BL51 BANKED LINKER/LOCATER V6.22                                                        05/20/2014  11:03:55  PAGE 1


BL51 BANKED LINKER/LOCATER V6.22, INVOKED BY:
C:\KEIL\C51\BIN\BL51.EXE C8051_adc.obj, C8051_delay.obj, C8051_mcutemp.obj, C8051_oscillator.obj, C8051_SMBus.obj, C8051
>> _SMBusSpy.obj, C8051_SMBusTimer3.obj, C8051_SPI0.obj, C8051_SPI0_int.obj, C8051_SPI0_shared.obj, C8051_uart0.obj, C80
>> 51_UART0Timer4.obj, C8051_uart1.obj, C8051_UART1Timer1.obj, C8051_watchdog.obj, comm_generic.obj, comm_imc.obj, comm_
>> itc.obj, comm_itc_cw.obj, hash_blob.obj, hash_frame.obj, hash_manifest.obj, mccif_active.obj, mccif_buffer.obj, mccif
>> _local.obj, mccif_spy.obj, mccif_stream.obj, mccif_xdata.obj, obdh_auth.obj, obdh_constant.obj, obdh_cqt.obj, obdh_de
>> bug.obj, obdh_events.obj, obdh_globalvariables.obj, obdh_grace.obj, obdh_main.obj, obdh_port.obj, obdh_recon.obj, obd
>> h_schedule.obj, obdh_systemconfig.obj, obdh_systeminit.obj, obdh_timer.obj, obdh_timekeeper.obj, obdh_trxuv.obj, rtc_
>> generic.obj, sdcard_generic.obj, sdcard_redundant.obj, state_adcsHk.obj, state_cmdHandler.obj, state_downlink.obj, st
>> ate_ferryCct.obj, state_ferryGps.obj, state_ferryXBee.obj, state_powerCqt.obj, state_pwrsHk.obj, state_radioUp.obj, s
>> tate_rtcSync.obj, state_scheduler.obj, state_trxuvHk.obj, state_util.obj, state_wireUp.obj, state_xdatSegGet.obj, Vel
>> ox_beacon.obj, Velox_calendar.obj, Velox_checksum.obj, Velox_clock.obj, Velox_delay.obj, Velox_meta.obj, Velox_rtc_su
>> pport.obj, Velox_runtime.obj, Velox_screen.obj, Velox_seconds.obj, Velox_slowtask.obj, Velox_sfrstack.obj, Velox_stat
>> e.obj, Velox_timertask.obj, Velox_uart.obj, Velox_uptime.obj, Velox_watchdog.obj TO obdh RAMSIZE (256) CODE (0X0000-0
>> XFFFF) XDATA (0X0000-0X1FFF)


MEMORY MODEL: LARGE WITH FLOATING POINT ARITHMETIC


INPUT MODULES INCLUDED:
  C8051_adc.obj (C8051_ADC)
  C8051_delay.obj (C8051_DELAY)
  C8051_mcutemp.obj (C8051_MCUTEMP)
  C8051_oscillator.obj (C8051_OSCILLATOR)
  C8051_SMBus.obj (C8051_SMBUS)
  C8051_SMBusSpy.obj (C8051_SMBUSSPY)
  C8051_SMBusTimer3.obj (C8051_SMBUSTIMER3)
  C8051_SPI0.obj (C8051_SPI0)
  C8051_SPI0_int.obj (C8051_SPI0_INT)
  C8051_SPI0_shared.obj (C8051_SPI0_SHARED)
  C8051_uart0.obj (C8051_UART0)
  C8051_UART0Timer4.obj (C8051_UART0TIMER4)
  C8051_uart1.obj (C8051_UART1)
  C8051_UART1Timer1.obj (C8051_UART1TIMER1)
  C8051_watchdog.obj (C8051_WATCHDOG)
  comm_generic.obj (COMM_GENERIC)
  comm_imc.obj (COMM_IMC)
  comm_itc.obj (COMM_ITC)
  comm_itc_cw.obj (COMM_ITC_CW)
  hash_blob.obj (HASH_BLOB)
  hash_frame.obj (HASH_FRAME)
  hash_manifest.obj (HASH_MANIFEST)
  mccif_active.obj (MCCIF_ACTIVE)
  mccif_buffer.obj (MCCIF_BUFFER)
  mccif_local.obj (MCCIF_LOCAL)
  mccif_spy.obj (MCCIF_SPY)
  mccif_stream.obj (MCCIF_STREAM)
  mccif_xdata.obj (MCCIF_XDATA)
  obdh_auth.obj (OBDH_AUTH)
  obdh_constant.obj (OBDH_CONSTANT)
  obdh_cqt.obj (OBDH_CQT)
  obdh_debug.obj (OBDH_DEBUG)
  obdh_events.obj (OBDH_EVENTS)
  obdh_globalvariables.obj (OBDH_GLOBALVARIABLES)
  obdh_grace.obj (OBDH_GRACE)
  obdh_main.obj (OBDH_MAIN)
  obdh_port.obj (OBDH_PORT)
BL51 BANKED LINKER/LOCATER V6.22                                                      05/20/2014  11:03:55  PAGE 2


  obdh_recon.obj (OBDH_RECON)
  obdh_schedule.obj (OBDH_SCHEDULE)
  obdh_systemconfig.obj (OBDH_SYSTEMCONFIG)
  obdh_systeminit.obj (OBDH_SYSTEMINIT)
  obdh_timer.obj (OBDH_TIMER)
  obdh_timekeeper.obj (OBDH_TIMEKEEPER)
  obdh_trxuv.obj (OBDH_TRXUV)
  rtc_generic.obj (RTC_GENERIC)
  sdcard_generic.obj (SDCARD_GENERIC)
  sdcard_redundant.obj (SDCARD_REDUNDANT)
  state_adcsHk.obj (STATE_ADCSHK)
  state_cmdHandler.obj (STATE_CMDHANDLER)
  state_downlink.obj (STATE_DOWNLINK)
  state_ferryCct.obj (STATE_FERRYCCT)
  state_ferryGps.obj (STATE_FERRYGPS)
  state_ferryXBee.obj (STATE_FERRYXBEE)
  state_powerCqt.obj (STATE_POWERCQT)
  state_pwrsHk.obj (STATE_PWRSHK)
  state_radioUp.obj (STATE_RADIOUP)
  state_rtcSync.obj (STATE_RTCSYNC)
  state_scheduler.obj (STATE_SCHEDULER)
  state_trxuvHk.obj (STATE_TRXUVHK)
  state_util.obj (STATE_UTIL)
  state_wireUp.obj (STATE_WIREUP)
  state_xdatSegGet.obj (STATE_XDATSEGGET)
  Velox_beacon.obj (VELOX_BEACON)
  Velox_calendar.obj (VELOX_CALENDAR)
  Velox_checksum.obj (VELOX_CHECKSUM)
  Velox_clock.obj (VELOX_CLOCK)
  Velox_delay.obj (VELOX_DELAY)
  Velox_meta.obj (VELOX_META)
  Velox_rtc_support.obj (VELOX_RTC_SUPPORT)
  Velox_runtime.obj (VELOX_RUNTIME)
  Velox_screen.obj (VELOX_SCREEN)
  Velox_seconds.obj (VELOX_SECONDS)
  Velox_slowtask.obj (VELOX_SLOWTASK)
  Velox_sfrstack.obj (VELOX_SFRSTACK)
  Velox_state.obj (VELOX_STATE)
  Velox_timertask.obj (VELOX_TIMERTASK)
  Velox_uart.obj (VELOX_UART)
  Velox_uptime.obj (VELOX_UPTIME)
  Velox_watchdog.obj (VELOX_WATCHDOG)
  C:\KEIL\C51\LIB\C51FPL.LIB (?C?FPADD)
  C:\KEIL\C51\LIB\C51FPL.LIB (?C?FPMUL)
  C:\KEIL\C51\LIB\C51FPL.LIB (?C?FPDIV)
  C:\KEIL\C51\LIB\C51FPL.LIB (?C?FPCMP)
  C:\KEIL\C51\LIB\C51FPL.LIB (?C?FCAST)
  C:\KEIL\C51\LIB\C51FPL.LIB (?C?CASTF)
  C:\KEIL\C51\LIB\C51FPL.LIB (PRINTF)
  C:\KEIL\C51\LIB\C51FPL.LIB (CEIL)
  C:\KEIL\C51\LIB\C51FPL.LIB (?C?FPGETOPN)
  C:\KEIL\C51\LIB\C51FPL.LIB (?C?FPROUND)
  C:\KEIL\C51\LIB\C51FPL.LIB (?C?FPCONVERT)
  C:\KEIL\C51\LIB\C51FPL.LIB (?C?FTNPWR)
  C:\KEIL\C51\LIB\C51L.LIB (?C_STARTUP)
  C:\KEIL\C51\LIB\C51L.LIB (?C?COPY)
  C:\KEIL\C51\LIB\C51L.LIB (?C?SCDIV)
BL51 BANKED LINKER/LOCATER V6.22                                                      05/20/2014  11:03:55  PAGE 3


  C:\KEIL\C51\LIB\C51L.LIB (?C?CLDPTR)
  C:\KEIL\C51\LIB\C51L.LIB (?C?CLDOPTR)
  C:\KEIL\C51\LIB\C51L.LIB (?C?CILDPTR)
  C:\KEIL\C51\LIB\C51L.LIB (?C?CILDOPTR)
  C:\KEIL\C51\LIB\C51L.LIB (?C?CSTPTR)
  C:\KEIL\C51\LIB\C51L.LIB (?C?CSTOPTR)
  C:\KEIL\C51\LIB\C51L.LIB (?C?IMUL)
  C:\KEIL\C51\LIB\C51L.LIB (?C?UIDIV)
  C:\KEIL\C51\LIB\C51L.LIB (?C?SIDIV)
  C:\KEIL\C51\LIB\C51L.LIB (?C?IILDX)
  C:\KEIL\C51\LIB\C51L.LIB (?C?ILDPTR)
  C:\KEIL\C51\LIB\C51L.LIB (?C?ILDOPTR)
  C:\KEIL\C51\LIB\C51L.LIB (?C?IILDPTR)
  C:\KEIL\C51\LIB\C51L.LIB (?C?ISTPTR)
  C:\KEIL\C51\LIB\C51L.LIB (?C?ISTOPTR)
  C:\KEIL\C51\LIB\C51L.LIB (?C?LMUL)
  C:\KEIL\C51\LIB\C51L.LIB (?C?ULDIV)
  C:\KEIL\C51\LIB\C51L.LIB (?C?SLDIV)
  C:\KEIL\C51\LIB\C51L.LIB (?C?LNEG)
  C:\KEIL\C51\LIB\C51L.LIB (?C?SLCMP)
  C:\KEIL\C51\LIB\C51L.LIB (?C?ULCMP)
  C:\KEIL\C51\LIB\C51L.LIB (?C?LSHL)
  C:\KEIL\C51\LIB\C51L.LIB (?C?LLDPTR)
  C:\KEIL\C51\LIB\C51L.LIB (?C?LLDOPTR)
  C:\KEIL\C51\LIB\C51L.LIB (?C?LSTPTR)
  C:\KEIL\C51\LIB\C51L.LIB (?C?LSTOPTR)
  C:\KEIL\C51\LIB\C51L.LIB (?C?LLDPTR0)
  C:\KEIL\C51\LIB\C51L.LIB (?C?LLDOPTR0)
  C:\KEIL\C51\LIB\C51L.LIB (?C?LSTXDATA)
  C:\KEIL\C51\LIB\C51L.LIB (?C?LSTKXDATA)
  C:\KEIL\C51\LIB\C51L.LIB (?C?PLDIXDATA)
  C:\KEIL\C51\LIB\C51L.LIB (?C?PSTXDATA)
  C:\KEIL\C51\LIB\C51L.LIB (?C?PLDPTR)
  C:\KEIL\C51\LIB\C51L.LIB (?C?PSTPTR)
  C:\KEIL\C51\LIB\C51L.LIB (?C?CCASE)
  C:\KEIL\C51\LIB\C51L.LIB (?C?ICASE)
  C:\KEIL\C51\LIB\C51L.LIB (?C?ICALL)
  C:\KEIL\C51\LIB\C51L.LIB (?C?LIMUL)
  C:\KEIL\C51\LIB\C51L.LIB (?C?MEMCMP)
  C:\KEIL\C51\LIB\C51L.LIB (?C?MEMSET)
  C:\KEIL\C51\LIB\C51L.LIB (?C_INIT)
  C:\KEIL\C51\LIB\C51L.LIB (?C?LLDIDATA)
  C:\KEIL\C51\LIB\C51L.LIB (?C?LLDXDATA)
  C:\KEIL\C51\LIB\C51L.LIB (?C?LLDPDATA)
  C:\KEIL\C51\LIB\C51L.LIB (?C?LLDCODE)
  C:\KEIL\C51\LIB\C51L.LIB (?C?LLDIDATA0)
  C:\KEIL\C51\LIB\C51L.LIB (?C?LLDXDATA0)
  C:\KEIL\C51\LIB\C51L.LIB (?C?LLDPDATA0)
  C:\KEIL\C51\LIB\C51L.LIB (?C?LLDCODE0)
  C:\KEIL\C51\LIB\C51L.LIB (?C?LSTIDATA)
  C:\KEIL\C51\LIB\C51L.LIB (?C?LSTPDATA)
  C:\KEIL\C51\LIB\C51L.LIB (?C?PLDIDATA)
  C:\KEIL\C51\LIB\C51L.LIB (?C?PSTIDATA)
  C:\KEIL\C51\LIB\C51L.LIB (?C?PLDXDATA)
  C:\KEIL\C51\LIB\C51L.LIB (?C?PLDPDATA)
  C:\KEIL\C51\LIB\C51L.LIB (?C?PSTPDATA)
  C:\KEIL\C51\LIB\C51L.LIB (?C?PLDCODE)
BL51 BANKED LINKER/LOCATER V6.22                                                      05/20/2014  11:03:55  PAGE 4




LINK MAP OF MODULE:  obdh (C8051_ADC)


            TYPE    BASE      LENGTH    RELOCATION   SEGMENT NAME
            -----------------------------------------------------

            * * * * * * *   D A T A   M E M O R Y   * * * * * * *
            REG     0000H     0008H     ABSOLUTE     "REG BANK 0"
            DATA    0008H     0005H     UNIT         _DATA_GROUP_
                    000DH     0013H                  *** GAP ***
            BIT     0020H.0   0001H.1   UNIT         _BIT_GROUP_
            BIT     0021H.1   0000H.1   UNIT         ?BI?UART0_RESETRX?C8051_UART0
            BIT     0021H.2   0000H.1   UNIT         ?BI?UART0_GETRXAVAILABLE?C8051_UART0
            BIT     0021H.3   0000H.1   UNIT         ?BI?_UART0_ADVANCE?C8051_UART0
            BIT     0021H.4   0000H.1   UNIT         ?BI?_UART0_PUTCHAR?C8051_UART0
            BIT     0021H.5   0000H.1   UNIT         ?BI?WATCHDOG_DISABLE?C8051_WATCHDOG
                    0021H.6   0000H.2                *** GAP ***
            IDATA   0022H     0001H     UNIT         ?STACK

            * * * * * * *  X D A T A   M E M O R Y  * * * * * * *
            XDATA   0000H     0060H     UNIT         ?XD?OBDH_CONSTANT
            XDATA   0060H     0004H     UNIT         ?XD?_ADC0_READSHORT?C8051_ADC
            XDATA   0064H     0002H     ABSOLUTE     
            XDATA   0066H     0001H     ABSOLUTE     
            XDATA   0067H     0002H     ABSOLUTE     
            XDATA   0069H     00D3H     ABSOLUTE     
            XDATA   013CH     0002H     ABSOLUTE     
            XDATA   013EH     001BH     UNIT         ?XD?MCCIF_LOCALPOLL?MCCIF_LOCAL
            XDATA   0159H     0005H     UNIT         ?XD?C8051_ADC
            XDATA   015EH     0360H     ABSOLUTE     
            XDATA   04BEH     0021H     UNIT         ?XD?OBDH_DEBUG
            XDATA   04DFH     0003H     UNIT         ?XD?OSCILLATOR_RESETCAUSECHECK?C8051_OSCILLATOR
            XDATA   04E2H     0006H     ABSOLUTE     
            XDATA   04E8H     0006H     ABSOLUTE     
            XDATA   04EEH     0006H     ABSOLUTE     
            XDATA   04F4H     0006H     ABSOLUTE     
            XDATA   04FAH     0006H     ABSOLUTE     
            XDATA   0500H     0006H     ABSOLUTE     
            XDATA   0506H     0006H     ABSOLUTE     
            XDATA   050CH     0006H     ABSOLUTE     
            XDATA   0512H     0006H     ABSOLUTE     
            XDATA   0518H     0006H     ABSOLUTE     
            XDATA   051EH     0006H     ABSOLUTE     
            XDATA   0524H     0006H     ABSOLUTE     
            XDATA   052AH     0006H     ABSOLUTE     
            XDATA   0530H     0006H     ABSOLUTE     
            XDATA   0536H     0009H     ABSOLUTE     
            XDATA   053FH     0016H     ABSOLUTE     
            XDATA   0555H     0005H     ABSOLUTE     
            XDATA   055AH     001BH     UNIT         ?XD?_STATE_CMDHANDLER?STATE_CMDHANDLER
            XDATA   0575H     0003H     UNIT         ?XD?SMBUSTIMER3_GETTIMEOUTCOUNT?C8051_SMBUSTIMER3
            XDATA   0578H     000EH     ABSOLUTE     
            XDATA   0586H     0032H     ABSOLUTE     
            XDATA   05B8H     000FH     ABSOLUTE     
            XDATA   05C7H     000AH     ABSOLUTE     
BL51 BANKED LINKER/LOCATER V6.22                                                      05/20/2014  11:03:55  PAGE 5


            XDATA   05D1H     0005H     ABSOLUTE     
            XDATA   05D6H     001AH     ABSOLUTE     
            XDATA   05F0H     0002H     ABSOLUTE     
            XDATA   05F2H     0002H     ABSOLUTE     
            XDATA   05F4H     0003H     ABSOLUTE     
            XDATA   05F7H     0004H     ABSOLUTE     
            XDATA   05FBH     0003H     ABSOLUTE     
            XDATA   05FEH     0014H     ABSOLUTE     
            XDATA   0612H     000DH     ABSOLUTE     
            XDATA   061FH     0001H     ABSOLUTE     
            XDATA   0620H     0013H     ABSOLUTE     
            XDATA   0633H     0005H     ABSOLUTE     
            XDATA   0638H     000DH     ABSOLUTE     
            XDATA   0645H     000CH     ABSOLUTE     
            XDATA   0651H     001BH     UNIT         ?XD?_STATE_SCHEDULER?STATE_SCHEDULER
            XDATA   066CH     0006H     UNIT         ?XD?_DELAY_US?C8051_DELAY
            XDATA   0672H     0014H     ABSOLUTE     
            XDATA   0686H     001AH     UNIT         ?XD?_OSCILLATOR_SETPLLDAM?C8051_OSCILLATOR
            XDATA   06A0H     0004H     UNIT         ?XD?MCUTEMP_INCELSIUS?C8051_MCUTEMP
            XDATA   06A4H     000AH     ABSOLUTE     
            XDATA   06AEH     0009H     ABSOLUTE     
            XDATA   06B7H     0008H     ABSOLUTE     
            XDATA   06BFH     0007H     ABSOLUTE     
            XDATA   06C6H     000FH     ABSOLUTE     
            XDATA   06D5H     0001H     ABSOLUTE     
            XDATA   06D6H     0001H     ABSOLUTE     
            XDATA   06D7H     000EH     ABSOLUTE     
            XDATA   06E5H     0018H     ABSOLUTE     
            XDATA   06FDH     0001H     ABSOLUTE     
            XDATA   06FEH     0009H     ABSOLUTE     
            XDATA   0707H     0001H     UNIT         ?XD?_ADC0_SETDELAYUS?C8051_ADC
            XDATA   0708H     0012H     ABSOLUTE     
            XDATA   071AH     000CH     UNIT         ?XD?_SPI0_PUTCHARS?C8051_SPI0
            XDATA   0726H     0009H     ABSOLUTE     
            XDATA   072FH     04A7H     UNIT         ?XD?OBDH_GLOBALVARIABLES
            XDATA   0BD6H     0382H     UNIT         ?XD?OBDH_MAIN
            XDATA   0F58H     0200H     UNIT         ?XD?VELOX_CHECKSUM
            XDATA   1158H     0030H     UNIT         _XDATA_GROUP_
            XDATA   1188H     002CH     UNIT         ?XD?C8051_SMBUS
            XDATA   11B4H     0018H     UNIT         ?XD?C8051_UART0
            XDATA   11CCH     0018H     UNIT         ?XD?_MCCIF_DOWNLINKSTREAM?MCCIF_STREAM
            XDATA   11E4H     0017H     UNIT         ?XD?C8051_UART1
            XDATA   11FBH     0014H     UNIT         ?XD?_SCHEDULE_SWAP?OBDH_SCHEDULE
            XDATA   120FH     0011H     UNIT         ?XD?_SD_SENDCOMMAND?SDCARD_GENERIC
            XDATA   1220H     0011H     UNIT         ?XD?STATE_UTIL
            XDATA   1231H     0011H     UNIT         ?XD?_CHECKSUM_INIT?VELOX_CHECKSUM
            XDATA   1242H     0010H     UNIT         ?XD?_BEACON_LINEAR?VELOX_BEACON
            XDATA   1252H     000FH     UNIT         ?XD?_HASH_GETBLOB?HASH_BLOB
            XDATA   1261H     000FH     UNIT         ?XD?_STATE_ADCSHK?STATE_ADCSHK
            XDATA   1270H     000EH     UNIT         ?XD?_OSCILLATOR_INIT?C8051_OSCILLATOR
            XDATA   127EH     000EH     UNIT         ?XD?_HASH_PUTBLOB?HASH_BLOB
            XDATA   128CH     000EH     UNIT         ?XD?_RTC_FROMTAI?VELOX_RTC_SUPPORT
            XDATA   129AH     000DH     UNIT         ?XD?C8051_SPI0_INT
            XDATA   12A7H     000DH     UNIT         ?XD?_MCCIF_FORMATSET?MCCIF_ACTIVE
            XDATA   12B4H     000DH     UNIT         ?XD?_SDRED_WRITE?SDCARD_REDUNDANT
            XDATA   12C1H     000CH     UNIT         ?XD?_SPI0_INIT?C8051_SPI0_SHARED
            XDATA   12CDH     000CH     UNIT         ?XD?_UART0_OPEN?C8051_UART0
BL51 BANKED LINKER/LOCATER V6.22                                                      05/20/2014  11:03:55  PAGE 6


            XDATA   12D9H     000CH     UNIT         ?XD?SD_INIT?SDCARD_GENERIC
            XDATA   12E5H     000CH     UNIT         ?XD?_SDRED_READ?SDCARD_REDUNDANT
            XDATA   12F1H     000CH     UNIT         ?XD?_CHECKSUM_UPDATE?VELOX_CHECKSUM
            XDATA   12FDH     000BH     UNIT         ?XD?_OSCILLATOR_ATTEMPTEXTINIT?C8051_OSCILLATOR
            XDATA   1308H     000BH     UNIT         ?XD?_SPI0_PUTGETCHARS?C8051_SPI0
            XDATA   1313H     000BH     UNIT         ?XD?_UART0TIMER4_INIT?C8051_UART0TIMER4
            XDATA   131EH     000BH     UNIT         ?XD?_UART1_OPEN?C8051_UART1
            XDATA   1329H     000BH     UNIT         ?XD?_UART1TIMER1_INIT?C8051_UART1TIMER1
            XDATA   1334H     000BH     UNIT         ?XD?_MCCIF_APPENDCHARS?MCCIF_BUFFER
            XDATA   133FH     000BH     UNIT         ?XD?_MCCIF_ISVALIDCONTENT?MCCIF_SPY
            XDATA   134AH     000BH     UNIT         ?XD?_MCCIF_FORMATCONTENT?MCCIF_XDATA
            XDATA   1355H     000BH     UNIT         ?XD?_SD_CRC7UPDATE?SDCARD_GENERIC
            XDATA   1360H     000BH     UNIT         ?XD?_SD_GETUNTILNOT?SDCARD_GENERIC
            XDATA   136BH     000BH     UNIT         ?XD?_SD_COMMANDUNTIL?SDCARD_GENERIC
            XDATA   1376H     000BH     UNIT         ?XD?_SD_WRITESINGLEBLOCK?SDCARD_GENERIC
            XDATA   1381H     000BH     UNIT         ?XD?_STATE_XDATSEGGET?STATE_XDATSEGGET
            XDATA   138CH     000BH     UNIT         ?XD?_CALENDAR_DAYSSINCETAIUNTIL?VELOX_CALENDAR
            XDATA   1397H     000AH     UNIT         ?XD?_SMBUS_INIT?C8051_SMBUS
            XDATA   13A1H     000AH     UNIT         ?XD?_UART0_POLLCHARS?C8051_UART0
            XDATA   13ABH     000AH     UNIT         ?XD?_UART0_PUTCHARS?C8051_UART0
            XDATA   13B5H     000AH     UNIT         ?XD?_UART1_POLLCHARS?C8051_UART1
            XDATA   13BFH     000AH     UNIT         ?XD?_UART1_PUTCHARS?C8051_UART1
            XDATA   13C9H     000AH     UNIT         ?XD?_MCCIF_FORMATREQUEST?MCCIF_ACTIVE
            XDATA   13D3H     000AH     UNIT         ?XD?MCCIF_BUFFER
            XDATA   13DDH     000AH     UNIT         ?XD?_MCCIF_LOCALSET?MCCIF_XDATA
            XDATA   13E7H     000AH     UNIT         ?XD?_SD_READSINGLEBLOCK?SDCARD_GENERIC
            XDATA   13F1H     000AH     UNIT         ?XD?_STATE_PWRSHK?STATE_PWRSHK
            XDATA   13FBH     000AH     UNIT         ?XD?_STATEUTIL_POKESETXDATA?STATE_UTIL
            XDATA   1405H     000AH     UNIT         ?XD?_PRIVATE_XDATSEGPROPAGATE?STATE_XDATSEGGET
            XDATA   140FH     000AH     UNIT         ?XD?_RTC_TOTAI?VELOX_RTC_SUPPORT
            XDATA   1419H     000AH     UNIT         ?XD?_UPTIME_INIT?VELOX_UPTIME
            XDATA   1423H     0009H     UNIT         ?XD?_OSCILLATOR_PRELIMPLLSETTING?C8051_OSCILLATOR
            XDATA   142CH     0009H     UNIT         ?XD?_HASH_ADDRESSBLOB?HASH_BLOB
            XDATA   1435H     0009H     UNIT         ?XD?_MCCIF_LOCALSEND?MCCIF_LOCAL
            XDATA   143EH     0009H     UNIT         ?XD?_AUTH_ISPERMITTED_OVERRIDE?OBDH_AUTH
            XDATA   1447H     0009H     UNIT         ?XD?_CALENDAR_INCREMENTSECONDS?VELOX_CALENDAR
            XDATA   1450H     0009H     UNIT         ?XD?_STATE_TURING?VELOX_STATE
            XDATA   1459H     0008H     UNIT         ?XD?_OSCILLATOR_SETSYSCLKFROMPLL?C8051_OSCILLATOR
            XDATA   1461H     0008H     UNIT         ?XD?_SPI0INT_PROCESS?C8051_SPI0_INT
            XDATA   1469H     0008H     UNIT         ?XD?COMM_GENERIC
            XDATA   1471H     0008H     UNIT         ?XD?_COMM_RXFRAMEGET?COMM_IMC
            XDATA   1479H     0008H     UNIT         ?XD?_HASH_GETFRAME?HASH_FRAME
            XDATA   1481H     0008H     UNIT         ?XD?_HASH_PUTFRAME?HASH_FRAME
            XDATA   1489H     0008H     UNIT         ?XD?_STATE_POWERCQT?STATE_POWERCQT
            XDATA   1491H     0008H     UNIT         ?XD?_STATE_RADIOUP?STATE_RADIOUP
            XDATA   1499H     0008H     UNIT         ?XD?_STATE_RTCSYNC?STATE_RTCSYNC
            XDATA   14A1H     0008H     UNIT         ?XD?_STATEUTIL_INIT?STATE_UTIL
            XDATA   14A9H     0008H     UNIT         ?XD?_STATE_ISREADY?VELOX_STATE
            XDATA   14B1H     0007H     UNIT         ?XD?_ADC0_INIT?C8051_ADC
            XDATA   14B8H     0007H     UNIT         ?XD?_ADC0_GETAVERAGE_MV?C8051_ADC
            XDATA   14BFH     0007H     UNIT         ?XD?_OSCILLATOR_SETXFCN?C8051_OSCILLATOR
            XDATA   14C6H     0007H     UNIT         ?XD?_INT_OSCILLATOR_INIT?C8051_OSCILLATOR
            XDATA   14CDH     0007H     UNIT         ?XD?COMM_ALLTELEMETRYGET?COMM_IMC
            XDATA   14D4H     0007H     UNIT         ?XD?_HASH_GETADDRESS?HASH_FRAME
            XDATA   14DBH     0007H     UNIT         ?XD?_TIMER0_INIT?OBDH_TIMER
            XDATA   14E2H     0007H     UNIT         ?XD?_SD_WRITEBLOCKDATA?SDCARD_GENERIC
            XDATA   14E9H     0007H     UNIT         ?XD?_SD_READBLOCKDATA?SDCARD_GENERIC
BL51 BANKED LINKER/LOCATER V6.22                                                      05/20/2014  11:03:55  PAGE 7


            XDATA   14F0H     0007H     UNIT         ?XD?_STATE_FERRYCCT?STATE_FERRYCCT
            XDATA   14F7H     0007H     UNIT         ?XD?_STATE_FERRYGPS?STATE_FERRYGPS
            XDATA   14FEH     0007H     UNIT         ?XD?_STATE_FERRYXBEE?STATE_FERRYXBEE
            XDATA   1505H     0007H     UNIT         ?XD?_STATEUTIL_POKEREQUESTXDATA?STATE_UTIL
            XDATA   150CH     0007H     UNIT         ?XD?_STATEUTIL_PEEK?STATE_UTIL
            XDATA   1513H     0007H     UNIT         ?XD?_STATE_WIREUP?STATE_WIREUP
            XDATA   151AH     0007H     UNIT         ?XD?_CALENDAR_SETFROMDAYS?VELOX_CALENDAR
            XDATA   1521H     0007H     UNIT         ?XD?_CALENDAR_FROMTAI?VELOX_CALENDAR
            XDATA   1528H     0007H     UNIT         ?XD?_CALENDAR_TOTAI?VELOX_CALENDAR
            XDATA   152FH     0007H     UNIT         ?XD?_DELAY_BLOCKMS?VELOX_DELAY
            XDATA   1536H     0007H     UNIT         ?XD?_RTC_FROMCALENDAR?VELOX_RTC_SUPPORT
            XDATA   153DH     0007H     UNIT         ?XD?_TIMERTASK_ISREADY?VELOX_TIMERTASK
            XDATA   1544H     0007H     UNIT         ?XD?VELOX_UPTIME
            XDATA   154BH     0007H     UNIT         ?XD?VELOX_WATCHDOG
            XDATA   1552H     0006H     UNIT         ?XD?_SMBUS_SETRXBUFFER?C8051_SMBUS
            XDATA   1558H     0006H     UNIT         ?XD?_SMBUS_SETTXBUFFER?C8051_SMBUS
            XDATA   155EH     0006H     UNIT         ?XD?_COMM_INIT?COMM_GENERIC
            XDATA   1564H     0006H     UNIT         ?XD?_MCCIF_GETARGLENGTH?MCCIF_SPY
            XDATA   156AH     0006H     UNIT         ?XD?_MCCIF_GETBLOBINDEX?MCCIF_SPY
            XDATA   1570H     0006H     UNIT         ?XD?_MCCIF_GETBLOBTYPE?MCCIF_SPY
            XDATA   1576H     0006H     UNIT         ?XD?_MCCIF_GETBLOBCOUNT?MCCIF_SPY
            XDATA   157CH     0006H     UNIT         ?XD?_STATE_TIMEOUT_OVERRIDE?OBDH_EVENTS
            XDATA   1582H     0006H     UNIT         ?XD?_RTC_INIT?RTC_GENERIC
            XDATA   1588H     0006H     UNIT         ?XD?RTC_GENERIC
            XDATA   158EH     0006H     UNIT         ?XD?_SDRED_INIT?SDCARD_REDUNDANT
            XDATA   1594H     0006H     UNIT         ?XD?SDCARD_REDUNDANT
            XDATA   159AH     0006H     UNIT         ?XD?_STATE_DOWNLINK?STATE_DOWNLINK
            XDATA   15A0H     0006H     UNIT         ?XD?_PRIVATE_XDATSEGSDSTORAGE?STATE_XDATSEGGET
            XDATA   15A6H     0006H     UNIT         ?XD?_RTC_TOCALENDAR?VELOX_RTC_SUPPORT
            XDATA   15ACH     0006H     UNIT         ?XD?VELOX_SFRSTACK
            XDATA   15B2H     0006H     UNIT         ?XD?_STATE_ISACTIVE?VELOX_STATE
            XDATA   15B8H     0006H     UNIT         ?XD?_UART_POLLCHARS?VELOX_UART
            XDATA   15BEH     0006H     UNIT         ?XD?_UART_PUTCHARS?VELOX_UART
            XDATA   15C4H     0005H     UNIT         ?XD?C8051_OSCILLATOR
            XDATA   15C9H     0005H     UNIT         ?XD?_SMBUSTIMER3_INIT?C8051_SMBUSTIMER3
            XDATA   15CEH     0005H     UNIT         ?XD?_SPI0_GETPUT?C8051_SPI0
            XDATA   15D3H     0005H     UNIT         ?XD?_UART1_PUTCHAR?C8051_UART1
            XDATA   15D8H     0005H     UNIT         ?XD?_COMM_RXQUEUESIZEGET?COMM_IMC
            XDATA   15DDH     0005H     UNIT         ?XD?_COMM_TXAX25PUT?COMM_ITC
            XDATA   15E2H     0005H     UNIT         ?XD?_COMM_TXAX25ANDCWGET?COMM_ITC
            XDATA   15E7H     0005H     UNIT         ?XD?_COMM_TXCWPUT?COMM_ITC_CW
            XDATA   15ECH     0005H     UNIT         ?XD?_MCCIF_SETBUFFER?MCCIF_BUFFER
            XDATA   15F1H     0005H     UNIT         ?XD?_RECON_DEBUGPRINT?OBDH_RECON
            XDATA   15F6H     0005H     UNIT         ?XD?_SCHEDULE_REMOVE?OBDH_SCHEDULE
            XDATA   15FBH     0005H     UNIT         ?XD?_TIMER2_INIT?OBDH_TIMER
            XDATA   1600H     0005H     UNIT         ?XD?_RTC_ISCONSISTENT?RTC_GENERIC
            XDATA   1605H     0005H     UNIT         ?XD?_RTC_OBTAINSTAMPGET?RTC_GENERIC
            XDATA   160AH     0005H     UNIT         ?XD?_PRIVATE_DOWNLINK?STATE_DOWNLINK
            XDATA   160FH     0005H     UNIT         ?XD?_MCCIF_LOCALHANDLE_OVERRIDE?STATE_RADIOUP
            XDATA   1614H     0005H     UNIT         ?XD?_CHECKSUM_ISVALID?VELOX_CHECKSUM
            XDATA   1619H     0005H     UNIT         ?XD?_SLOWTASK_ISREADY?VELOX_SLOWTASK
            XDATA   161EH     0005H     UNIT         ?XD?_SFR_INIT?VELOX_SFRSTACK
            XDATA   1623H     0005H     UNIT         ?XD?_STATE_STARTER?VELOX_STATE
            XDATA   1628H     0005H     UNIT         ?XD?_STATE_INITSTATETASK?VELOX_STATE
            XDATA   162DH     0005H     UNIT         ?XD?_TIMERTASK_SETEXECUTEONCE?VELOX_TIMERTASK
            XDATA   1632H     0005H     UNIT         ?XD?_TIMERTASK_SETPERIODIC?VELOX_TIMERTASK
            XDATA   1637H     0005H     UNIT         ?XD?_TIMERTASK_SETREPEATED?VELOX_TIMERTASK
BL51 BANKED LINKER/LOCATER V6.22                                                      05/20/2014  11:03:55  PAGE 8


            XDATA   163CH     0004H     UNIT         ?XD?_SMBUS_ISRXCOMPLETE?C8051_SMBUS
            XDATA   1640H     0004H     UNIT         ?XD?_SMBUS_START?C8051_SMBUS
            XDATA   1644H     0004H     UNIT         ?XD?_SMBUS_GETSTATUSCOUNT?C8051_SMBUS
            XDATA   1648H     0004H     UNIT         ?XD?C8051_SPI0_SHARED
            XDATA   164CH     0004H     UNIT         ?XD?_UART0_PUTCHAR?C8051_UART0
            XDATA   1650H     0004H     UNIT         ?XD?HASH_READMANIFEST?HASH_MANIFEST
            XDATA   1654H     0004H     UNIT         ?XD?HASH_WRITEMANIFEST?HASH_MANIFEST
            XDATA   1658H     0004H     UNIT         ?XD?_SD_CRC7ROTATE?SDCARD_GENERIC
            XDATA   165CH     0004H     UNIT         ?XD?_SD_GETUNTIL?SDCARD_GENERIC
            XDATA   1660H     0004H     UNIT         ?XD?_STATE_TRXUVHK?STATE_TRXUVHK
            XDATA   1664H     0004H     UNIT         ?XD?_BEACON_SETUNASSIGNED?VELOX_BEACON
            XDATA   1668H     0004H     UNIT         ?XD?_SLOWTASK_SETEXECUTEONCE?VELOX_SLOWTASK
            XDATA   166CH     0004H     UNIT         ?XD?_SLOWTASK_SETPERIODIC?VELOX_SLOWTASK
            XDATA   1670H     0004H     UNIT         ?XD?_SLOWTASK_SETREPEATED?VELOX_SLOWTASK
            XDATA   1674H     0004H     UNIT         ?XD?_SLOWTASK_SINCELAST?VELOX_SLOWTASK
            XDATA   1678H     0003H     UNIT         ?XD?SPI0_GETFAILURECOUNT?C8051_SPI0_SHARED
            XDATA   167BH     0003H     UNIT         ?XD?UART1_GETRXAVAILABLE?C8051_UART1
            XDATA   167EH     0003H     UNIT         ?XD?_UART1_ADVANCE?C8051_UART1
            XDATA   1681H     0003H     UNIT         ?XD?_MCCIF_GETFRAMELENGTH?MCCIF_SPY
            XDATA   1684H     0003H     UNIT         ?XD?CQT_PROCESSFRAME?OBDH_CQT
            XDATA   1687H     0003H     UNIT         ?XD?SCHEDULE_BUBBLESORT?OBDH_SCHEDULE
            XDATA   168AH     0003H     UNIT         ?XD?_RTC_SETRAWTIME?RTC_GENERIC
            XDATA   168DH     0003H     UNIT         ?XD?_PRIVATE_DOWNLINKBLOB?STATE_DOWNLINK
            XDATA   1690H     0003H     UNIT         ?XD?_STATEUPLINK_PREPAREACK?STATE_RADIOUP
            XDATA   1693H     0003H     UNIT         ?XD?_CALENDAR_INITTOTAI0?VELOX_CALENDAR
            XDATA   1696H     0003H     UNIT         ?XD?_CALENDAR_DAYSOFMONTH?VELOX_CALENDAR
            XDATA   1699H     0003H     UNIT         ?XD?_CALENDAR_INCREMENTDAY?VELOX_CALENDAR
            XDATA   169CH     0003H     UNIT         ?XD?_CHECKSUM_ROTATE?VELOX_CHECKSUM
            XDATA   169FH     0003H     UNIT         ?XD?VELOX_CLOCK
            XDATA   16A2H     0003H     UNIT         ?XD?_RUNTIME_FROMNOW?VELOX_RUNTIME
            XDATA   16A5H     0003H     UNIT         ?XD?_RUNTIME_HASEXPIRED?VELOX_RUNTIME
            XDATA   16A8H     0003H     UNIT         ?XD?_SLOWTASK_SETDISABLED?VELOX_SLOWTASK
            XDATA   16ABH     0003H     UNIT         ?XD?_SLOWTASK_FROMNOW?VELOX_SLOWTASK
            XDATA   16AEH     0003H     UNIT         ?XD?_STATE_RELEASE?VELOX_STATE
            XDATA   16B1H     0003H     UNIT         ?XD?_TIMERTASK_SETDISABLED?VELOX_TIMERTASK
            XDATA   16B4H     0003H     UNIT         ?XD?_TIMERTASK_FROMNOW?VELOX_TIMERTASK
            XDATA   16B7H     0003H     UNIT         ?XD?_UART_ADVANCE?VELOX_UART
            XDATA   16BAH     0003H     UNIT         ?XD?_WATCHDOG_ADVANCEDINIT?VELOX_WATCHDOG
            XDATA   16BDH     0002H     UNIT         ?XD?_SMBUS_SETGENERALRECEIVER?C8051_SMBUSSPY
            XDATA   16BFH     0002H     UNIT         ?XD?C8051_SMBUSTIMER3
            XDATA   16C1H     0002H     UNIT         ?XD?UART0_GETRXAVAILABLE?C8051_UART0
            XDATA   16C3H     0002H     UNIT         ?XD?_UART0_ADVANCE?C8051_UART0
            XDATA   16C5H     0002H     UNIT         ?XD?_COMM_SENDCHARS?COMM_GENERIC
            XDATA   16C7H     0002H     UNIT         ?XD?_COMM_GETCHARS?COMM_GENERIC
            XDATA   16C9H     0002H     UNIT         ?XD?COMM_RXUPTIMEGET?COMM_IMC
            XDATA   16CBH     0002H     UNIT         ?XD?_COMM_SETTXCWCHARRATE?COMM_ITC
            XDATA   16CDH     0002H     UNIT         ?XD?COMM_TXUPTIMEGET?COMM_ITC
            XDATA   16CFH     0002H     UNIT         ?XD?COMM_TXSTATUSGET?COMM_ITC
            XDATA   16D1H     0002H     UNIT         ?XD?_MCCIF_APPENDCHAR?MCCIF_BUFFER
            XDATA   16D3H     0002H     UNIT         ?XD?_MCCIF_LOCALINIT?MCCIF_LOCAL
            XDATA   16D5H     0002H     UNIT         ?XD?MCCIF_LOCAL
            XDATA   16D7H     0002H     UNIT         ?XD?CQT_CLEARRXBUFFER?OBDH_CQT
            XDATA   16D9H     0002H     UNIT         ?XD?_MCCIF_SETCOMPLETED_OVERRIDE?OBDH_EVENTS
            XDATA   16DBH     0002H     UNIT         ?XD?OBDH_GRACE
            XDATA   16DDH     0002H     UNIT         ?XD?RECON_CHANNELSTATUSUPDATED_EVENT?OBDH_RECON
            XDATA   16DFH     0002H     UNIT         ?XD?SCHEDULE_HANDLEADD?OBDH_SCHEDULE
            XDATA   16E1H     0002H     UNIT         ?XD?PRIVATE_DOWNLINKNEXTGETFRAME?STATE_DOWNLINK
BL51 BANKED LINKER/LOCATER V6.22                                                      05/20/2014  11:03:55  PAGE 9


            XDATA   16E3H     0002H     UNIT         ?XD?PRIVATE_DOWNLINKNEXTPINFRAME?STATE_DOWNLINK
            XDATA   16E5H     0002H     UNIT         ?XD?_CALENDAR_ISYEARWITH365DAYS?VELOX_CALENDAR
            XDATA   16E7H     0002H     UNIT         ?XD?_CHECKSUM_PUBLISH?VELOX_CHECKSUM
            XDATA   16E9H     0002H     UNIT         ?XD?TIMERTASK_GETCLOCK_OVERRIDE?VELOX_CLOCK
            XDATA   16EBH     0002H     UNIT         ?XD?SCREEN_CAPTURE?VELOX_SCREEN
            XDATA   16EDH     0002H     UNIT         ?XD?WATCHDOG_GETMAXCOUNT?VELOX_WATCHDOG
            XDATA   16EFH     0001H     UNIT         ?XD?SMBUS_ISR?C8051_SMBUS
            XDATA   16F0H     0001H     UNIT         ?XD?SMBUSTIMER3_ISR?C8051_SMBUSTIMER3
            XDATA   16F1H     0001H     UNIT         ?XD?UART0_CLOSE?C8051_UART0
            XDATA   16F2H     0001H     UNIT         ?XD?UART1_CLOSE?C8051_UART1
            XDATA   16F3H     0001H     UNIT         ?XD?_COMM_SETTXIDLESTATE?COMM_ITC
            XDATA   16F4H     0001H     UNIT         ?XD?_COMM_SETTXOUTPUTMODE?COMM_ITC
            XDATA   16F5H     0001H     UNIT         ?XD?_COMM_SETTXBITRATE?COMM_ITC
            XDATA   16F6H     0001H     UNIT         ?XD?HASH_MANIFEST
            XDATA   16F7H     0001H     UNIT         ?XD?CONSTANT_INIT?OBDH_CONSTANT
            XDATA   16F8H     0001H     UNIT         ?XD?_CQT_SENDCOMMAND?OBDH_CQT
            XDATA   16F9H     0001H     UNIT         ?XD?DEBUG_LOOPDOWNLINK?OBDH_DEBUG
            XDATA   16FAH     0001H     UNIT         ?XD?MAIN?OBDH_MAIN
            XDATA   16FBH     0001H     UNIT         ?XD?_SUBSYSTEM_ISAVAILABLE?OBDH_RECON
            XDATA   16FCH     0001H     UNIT         ?XD?SCHEDULE_SIZE?OBDH_SCHEDULE
            XDATA   16FDH     0001H     UNIT         ?XD?_SYSTEM_GETT1PRESCALER?OBDH_SYSTEMCONFIG
            XDATA   16FEH     0001H     UNIT         ?XD?_SYSTEM_GETCKCON?OBDH_SYSTEMCONFIG
            XDATA   16FFH     0001H     UNIT         ?XD?_PUTCHAR?OBDH_SYSTEMCONFIG
            XDATA   1700H     0001H     UNIT         ?XD?_SYSTEMINIT_CHIP?OBDH_SYSTEMINIT
            XDATA   1701H     0001H     UNIT         ?XD?TRXUV_GETTXRATEFACTOR?OBDH_TRXUV
            XDATA   1702H     0001H     UNIT         ?XD?_SD_SPIWRITEBYTE?SDCARD_GENERIC
            XDATA   1703H     0001H     UNIT         ?XD?SD_SPIREADBYTE?SDCARD_GENERIC
            XDATA   1704H     0001H     UNIT         ?XD?_SD_CRC7PUBLISH?SDCARD_GENERIC
            XDATA   1705H     0001H     UNIT         ?XD?SDCARD_GENERIC
            XDATA   1706H     0001H     UNIT         ?XD?STATE_DOWNLINK
            XDATA   1707H     0001H     UNIT         ?XD?STATE_TRXUVHK
            XDATA   1708H     0001H     UNIT         ?XD?STATE_XDATSEGGET
            XDATA   1709H     0001H     UNIT         ?XD?_BEACON_IDENTITY?VELOX_BEACON
            XDATA   170AH     0001H     UNIT         ?XD?CLOCK_HASADVANCED?VELOX_CLOCK
            XDATA   170BH     0001H     UNIT         ?XD?SECONDS_HAVEADVANCED?VELOX_SECONDS
            XDATA   170CH     0001H     UNIT         ?XD?_SFR_PUSHPAGE?VELOX_SFRSTACK

            * * * * * * *   C O D E   M E M O R Y   * * * * * * *
            CODE    0000H     0003H     ABSOLUTE     
            CODE    0003H     0020H     UNIT         ?PR?STATEUPLINK_RELEASEACK?STATE_RADIOUP
            CODE    0023H     0003H     ABSOLUTE     
            CODE    0026H     0004H     UNIT         ?PR?WATCHDOG_RESETTIMER?C8051_WATCHDOG
                    002AH     0001H                  *** GAP ***
            CODE    002BH     0003H     ABSOLUTE     
            CODE    002EH     0004H     UNIT         ?PR?WATCHDOG_LOCKOUT?C8051_WATCHDOG
                    0032H     0001H                  *** GAP ***
            CODE    0033H     0003H     ABSOLUTE     
            CODE    0036H     0004H     UNIT         ?CO?MCCIF_XDATA
                    003AH     0001H                  *** GAP ***
            CODE    003BH     0003H     ABSOLUTE     
            CODE    003EH     0035H     UNIT         ?PR?SCHEDULE_HASNEXT?OBDH_SCHEDULE
            CODE    0073H     0003H     ABSOLUTE     
            CODE    0076H     002CH     UNIT         ?PR?TIMERTASK_GETCLOCK_OVERRIDE?VELOX_CLOCK
                    00A2H     0001H                  *** GAP ***
            CODE    00A3H     0003H     ABSOLUTE     
            CODE    00A6H     0F2FH     UNIT         ?C?LIB_CODE
            CODE    0FD5H     0C58H     UNIT         ?PR?CONSTANT_INIT?OBDH_CONSTANT
BL51 BANKED LINKER/LOCATER V6.22                                                      05/20/2014  11:03:55  PAGE 10


            CODE    1C2DH     0685H     UNIT         ?PR?MAIN?OBDH_MAIN
            CODE    22B2H     04EBH     UNIT         ?PR?HASH_READMANIFEST?HASH_MANIFEST
            CODE    279DH     0483H     UNIT         ?PR?PRINTF?PRINTF
            CODE    2C20H     0457H     UNIT         ?PR?HASH_WRITEMANIFEST?HASH_MANIFEST
            CODE    3077H     03F7H     UNIT         ?PR?_STATE_DOWNLINK?STATE_DOWNLINK
            CODE    346EH     038CH     UNIT         ?PR?SMBUS_ISR?C8051_SMBUS
            CODE    37FAH     0336H     UNIT         ?PR?_OSCILLATOR_PRELIMPLLSETTING?C8051_OSCILLATOR
            CODE    3B30H     02DAH     UNIT         ?PR?GRACE_EACHSECOND?OBDH_GRACE
            CODE    3E0AH     02CFH     UNIT         ?PR?_STATE_XDATSEGGET?STATE_XDATSEGGET
            CODE    40D9H     02C2H     UNIT         ?PR?_STATE_PWRSHK?STATE_PWRSHK
            CODE    439BH     02A1H     UNIT         ?PR?_RTC_ISCONSISTENT?RTC_GENERIC
            CODE    463CH     02A1H     UNIT         ?PR?_STATE_ADCSHK?STATE_ADCSHK
            CODE    48DDH     0258H     UNIT         ?PR?_CALENDAR_TOTAI?VELOX_CALENDAR
            CODE    4B35H     0242H     UNIT         ?PR?_RTC_TOCALENDAR?VELOX_RTC_SUPPORT
            CODE    4D77H     0228H     UNIT         ?PR?_RTC_FROMCALENDAR?VELOX_RTC_SUPPORT
            CODE    4F9FH     0204H     UNIT         ?PR?_SDRED_WRITE?SDCARD_REDUNDANT
            CODE    51A3H     01F3H     UNIT         ?PR?_STATE_RADIOUP?STATE_RADIOUP
            CODE    5396H     01DCH     UNIT         ?PR?_HASH_ADDRESSBLOB?HASH_BLOB
            CODE    5572H     01D4H     UNIT         ?PR?_MCCIF_LOCALSET?MCCIF_XDATA
            CODE    5746H     01C0H     UNIT         ?PR?_CALENDAR_INCREMENTSECONDS?VELOX_CALENDAR
            CODE    5906H     01BBH     UNIT         ?PR?_SDRED_READ?SDCARD_REDUNDANT
            CODE    5AC1H     01B1H     UNIT         ?PR?_STATE_RTCSYNC?STATE_RTCSYNC
            CODE    5C72H     01A7H     UNIT         ?PR?_MCCIF_FORMATCONTENT?MCCIF_XDATA
            CODE    5E19H     019CH     UNIT         ?PR?CQT_HANDLER?OBDH_CQT
            CODE    5FB5H     0192H     UNIT         ?PR?MCCIF_LOCALPOLL?MCCIF_LOCAL
            CODE    6147H     018BH     UNIT         ?PR?_OSCILLATOR_SETXFCN?C8051_OSCILLATOR
            CODE    62D2H     0189H     UNIT         ?PR?_MCCIF_FORMATSET?MCCIF_ACTIVE
            CODE    645BH     0184H     UNIT         ?PR?_STATE_FERRYGPS?STATE_FERRYGPS
            CODE    65DFH     0182H     UNIT         ?PR?_MCCIF_FORMATREQUEST?MCCIF_ACTIVE
            CODE    6761H     017CH     UNIT         ?PR?_STATE_FERRYCCT?STATE_FERRYCCT
            CODE    68DDH     0176H     UNIT         ?PR?_STATE_FERRYXBEE?STATE_FERRYXBEE
            CODE    6A53H     016DH     UNIT         ?PR?_STATE_CMDHANDLER?STATE_CMDHANDLER
            CODE    6BC0H     0166H     UNIT         ?PR?_MCCIF_DOWNLINKSTREAM?MCCIF_STREAM
            CODE    6D26H     0151H     UNIT         ?PR?_CHECKSUM_INIT?VELOX_CHECKSUM
            CODE    6E77H     0149H     UNIT         ?PR?_BEACON_LINEAR?VELOX_BEACON
            CODE    6FC0H     0145H     UNIT         ?PR?_STATE_SCHEDULER?STATE_SCHEDULER
            CODE    7105H     0142H     UNIT         ?PR?_PRIVATE_XDATSEGSDSTORAGE?STATE_XDATSEGGET
            CODE    7247H     0141H     UNIT         ?PR?AUTH_LOCALNOTIFY_OVERRIDE?OBDH_AUTH
            CODE    7388H     013AH     UNIT         ?PR?_TIMERTASK_ISREADY?VELOX_TIMERTASK
            CODE    74C2H     012FH     UNIT         ?PR?_CALENDAR_SETFROMDAYS?VELOX_CALENDAR
            CODE    75F1H     012FH     UNIT         ?PR?_STATE_ISREADY?VELOX_STATE
            CODE    7720H     012EH     UNIT         ?PR?_OSCILLATOR_SETSYSCLKFROMPLL?C8051_OSCILLATOR
            CODE    784EH     012BH     UNIT         ?PR?_CALENDAR_FROMTAI?VELOX_CALENDAR
            CODE    7979H     012AH     UNIT         ?PR?COMM_ALLTELEMETRYGET?COMM_IMC
            CODE    7AA3H     0128H     UNIT         ?PR?_SYSTEMINIT_CHIP?OBDH_SYSTEMINIT
            CODE    7BCBH     0122H     UNIT         ?PR?_MCCIF_ISVALIDCONTENT?MCCIF_SPY
            CODE    7CEDH     011DH     UNIT         ?PR?_OSCILLATOR_ATTEMPTEXTINIT?C8051_OSCILLATOR
            CODE    7E0AH     011DH     UNIT         ?PR?_SLOWTASK_ISREADY?VELOX_SLOWTASK
            CODE    7F27H     011CH     UNIT         ?PR?UART0_ISR?C8051_UART0
            CODE    8043H     011BH     UNIT         ?PR?_AUTH_ISPERMITTED_OVERRIDE?OBDH_AUTH
            CODE    815EH     011AH     UNIT         ?PR?_STATEUTIL_PEEK?STATE_UTIL
            CODE    8278H     0116H     UNIT         ?PR?_UART1_PUTCHAR?C8051_UART1
            CODE    838EH     0115H     UNIT         ?PR?_SCHEDULE_REMOVE?OBDH_SCHEDULE
            CODE    84A3H     010BH     UNIT         ?PR?_UART0_PUTCHAR?C8051_UART0
            CODE    85AEH     0109H     UNIT         ?PR?_MCCIF_LOCALHANDLE_OVERRIDE?STATE_RADIOUP
            CODE    86B7H     0107H     UNIT         ?PR?_STATE_POWERCQT?STATE_POWERCQT
            CODE    87BEH     0105H     UNIT         ?PR?_CALENDAR_DAYSSINCETAIUNTIL?VELOX_CALENDAR
BL51 BANKED LINKER/LOCATER V6.22                                                      05/20/2014  11:03:55  PAGE 11


            CODE    88C3H     00FBH     UNIT         ?PR?UART1_ISR?C8051_UART1
            CODE    89BEH     00EFH     UNIT         ?PR?_OSCILLATOR_INIT?C8051_OSCILLATOR
            CODE    8AADH     00EFH     UNIT         ?PR?_CEIL?CEIL
            CODE    8B9CH     00EBH     UNIT         ?PR?_STATE_TRXUVHK?STATE_TRXUVHK
            CODE    8C87H     00EAH     UNIT         ?PR?DEBUG_LOOPDOWNLINK?OBDH_DEBUG
            CODE    8D71H     00E2H     UNIT         ?PR?_OSCILLATOR_SETPLLDAM?C8051_OSCILLATOR
            CODE    8E53H     00DCH     UNIT         ?PR?_SPI0INT_PROCESS?C8051_SPI0_INT
            CODE    8F2FH     00DBH     UNIT         ?PR?_ADC0_INIT?C8051_ADC
            CODE    900AH     00DAH     UNIT         ?PR?_SD_WRITESINGLEBLOCK?SDCARD_GENERIC
            CODE    90E4H     00D6H     UNIT         ?PR?_HASH_PUTBLOB?HASH_BLOB
            CODE    91BAH     00D4H     UNIT         ?PR?_CALENDAR_INCREMENTDAY?VELOX_CALENDAR
            CODE    928EH     00CFH     UNIT         ?C_INITSEG
            CODE    935DH     00CEH     UNIT         ?PR?_UART0_POLLCHARS?C8051_UART0
            CODE    942BH     00CEH     UNIT         ?PR?_UART1_POLLCHARS?C8051_UART1
            CODE    94F9H     00CDH     UNIT         ?PR?_HASH_GETADDRESS?HASH_FRAME
            CODE    95C6H     00CCH     UNIT         ?PR?_COMM_RXFRAMEGET?COMM_IMC
            CODE    9692H     00CCH     UNIT         ?PR?_PRIVATE_XDATSEGPROPAGATE?STATE_XDATSEGGET
            CODE    975EH     00C8H     UNIT         ?PR?PRIVATE_DOWNLINKNEXTPINFRAME?STATE_DOWNLINK
            CODE    9826H     00C8H     UNIT         ?PR?_STATE_WIREUP?STATE_WIREUP
            CODE    98EEH     00C3H     UNIT         ?PR?UPTIME_HANDLER?VELOX_UPTIME
            CODE    99B1H     00C2H     UNIT         ?PR?_SCHEDULE_SWAP?OBDH_SCHEDULE
            CODE    9A73H     00C2H     UNIT         ?PR?_STATEUTIL_POKEREQUESTXDATA?STATE_UTIL
            CODE    9B35H     00C1H     UNIT         ?PR?SPI0_ISR?C8051_SPI0_INT
            CODE    9BF6H     00C0H     UNIT         ?PR?_ADC0_GETAVERAGE_MV?C8051_ADC
            CODE    9CB6H     00C0H     UNIT         ?PR?_SMBUSTIMER3_INIT?C8051_SMBUSTIMER3
            CODE    9D76H     00BFH     UNIT         ?PR?_STATEUTIL_POKESETXDATA?STATE_UTIL
            CODE    9E35H     00BDH     UNIT         ?PR?_TIMER0_INIT?OBDH_TIMER
            CODE    9EF2H     00BCH     UNIT         ?PR?SCHEDULE_HANDLEADD?OBDH_SCHEDULE
            CODE    9FAEH     00B8H     UNIT         ?PR?SD_INIT?SDCARD_GENERIC
            CODE    A066H     00B7H     UNIT         ?PR?_SMBUS_INIT?C8051_SMBUS
            CODE    A11DH     00B4H     UNIT         ?PR?_SPI0_GETPUT?C8051_SPI0
            CODE    A1D1H     00B3H     UNIT         ?PR?_HASH_GETBLOB?HASH_BLOB
            CODE    A284H     00B2H     UNIT         ?PR?_DELAY_US?C8051_DELAY
            CODE    A336H     00ADH     UNIT         ?PR?CQT_PROCESSFRAME?OBDH_CQT
            CODE    A3E3H     00ACH     UNIT         ?PR?_UART1TIMER1_INIT?C8051_UART1TIMER1
            CODE    A48FH     00ABH     UNIT         ?PR?_RTC_OBTAINSTAMPGET?RTC_GENERIC
            CODE    A53AH     00A8H     UNIT         ?PR?RECON_CHANNELSTATUSUPDATED_EVENT?OBDH_RECON
            CODE    A5E2H     00A8H     UNIT         ?PR?_SD_SENDCOMMAND?SDCARD_GENERIC
            CODE    A68AH     00A5H     UNIT         ?PR?PRIVATE_DOWNLINKNEXTGETFRAME?STATE_DOWNLINK
            CODE    A72FH     009DH     UNIT         ?PR?_SD_GETUNTILNOT?SDCARD_GENERIC
            CODE    A7CCH     009DH     UNIT         ?PR?_SD_READSINGLEBLOCK?SDCARD_GENERIC
            CODE    A869H     009DH     UNIT         ?PR?_CHECKSUM_UPDATE?VELOX_CHECKSUM
            CODE    A906H     009BH     UNIT         ?PR?_UART0TIMER4_INIT?C8051_UART0TIMER4
            CODE    A9A1H     0099H     UNIT         ?PR?SCHEDULE_BUBBLESORT?OBDH_SCHEDULE
            CODE    AA3AH     0098H     UNIT         ?PR?_SPI0_PUTCHARS?C8051_SPI0
            CODE    AAD2H     0091H     UNIT         ?PR?_STATE_STARTER?VELOX_STATE
            CODE    AB63H     0091H     UNIT         ?PR?_STATE_RELEASE?VELOX_STATE
            CODE    ABF4H     008EH     UNIT         ?PR?_SD_CRC7UPDATE?SDCARD_GENERIC
            CODE    AC82H     008CH     UNIT         ?C_C51STARTUP
            CODE    AD0EH     008BH     UNIT         ?PR?_SPI0_PUTGETCHARS?C8051_SPI0
            CODE    AD99H     008BH     UNIT         ?PR?_MCCIF_APPENDCHAR?MCCIF_BUFFER
            CODE    AE24H     008AH     UNIT         ?PR?_SD_COMMANDUNTIL?SDCARD_GENERIC
            CODE    AEAEH     0088H     UNIT         ?PR?_SD_READBLOCKDATA?SDCARD_GENERIC
            CODE    AF36H     0086H     UNIT         ?PR?_UART0_OPEN?C8051_UART0
            CODE    AFBCH     0086H     UNIT         ?PR?PRIVATE_ADVANCEGETFRAMEINDEX?STATE_DOWNLINK
            CODE    B042H     0085H     UNIT         ?PR?_INT_OSCILLATOR_INIT?C8051_OSCILLATOR
            CODE    B0C7H     0083H     UNIT         ?PR?_SD_CRC7ROTATE?SDCARD_GENERIC
BL51 BANKED LINKER/LOCATER V6.22                                                      05/20/2014  11:03:55  PAGE 12


            CODE    B14AH     0081H     UNIT         ?PR?_SFR_PUSHPAGE?VELOX_SFRSTACK
            CODE    B1CBH     0081H     UNIT         ?PR?_STATE_TURING?VELOX_STATE
            CODE    B24CH     0080H     UNIT         ?PR?SCREEN_CAPTURE?VELOX_SCREEN
            CODE    B2CCH     007FH     UNIT         ?PR?_MCCIF_APPENDCHARS?MCCIF_BUFFER
            CODE    B34BH     007EH     UNIT         ?PR?_STATE_ISACTIVE?VELOX_STATE
            CODE    B3C9H     007DH     UNIT         ?PR?_UART0_PUTCHARS?C8051_UART0
            CODE    B446H     007DH     UNIT         ?PR?_UART1_OPEN?C8051_UART1
            CODE    B4C3H     007DH     UNIT         ?PR?_UART1_PUTCHARS?C8051_UART1
            CODE    B540H     007CH     UNIT         ?PR?PRIVATE_DOWNLINKBEACON?STATE_DOWNLINK
            CODE    B5BCH     007AH     UNIT         ?PR?META_HANDLER?VELOX_META
            CODE    B636H     0078H     UNIT         ?PR?_SD_WRITEBLOCKDATA?SDCARD_GENERIC
            CODE    B6AEH     0077H     UNIT         ?PR?_RTC_SETRAWTIME?RTC_GENERIC
            CODE    B725H     0072H     UNIT         ?PR?_PRIVATE_DOWNLINK?STATE_DOWNLINK
            CODE    B797H     006FH     UNIT         ?PR?_COMM_TXAX25PUT?COMM_ITC
            CODE    B806H     006FH     UNIT         ?PR?_COMM_TXCWPUT?COMM_ITC_CW
            CODE    B875H     006EH     UNIT         ?PR?MCCIF_FLUSH?MCCIF_BUFFER
            CODE    B8E3H     006DH     UNIT         ?PR?_COMM_RXQUEUESIZEGET?COMM_IMC
            CODE    B950H     006CH     UNIT         ?PR?_UART1_ADVANCE?C8051_UART1
            CODE    B9BCH     006AH     UNIT         ?PR?_HASH_GETFRAME?HASH_FRAME
            CODE    BA26H     0069H     UNIT         ?PR?_SPI0_INIT?C8051_SPI0_SHARED
            CODE    BA8FH     0069H     UNIT         ?PR?_COMM_TXAX25ANDCWGET?COMM_ITC
            CODE    BAF8H     0066H     UNIT         ?PR?_SMBUS_START?C8051_SMBUS
            CODE    BB5EH     0065H     UNIT         ?PR?COMM_TXSTATUSGET?COMM_ITC
            CODE    BBC3H     0065H     UNIT         ?PR?_MCCIF_LOCALSEND?MCCIF_LOCAL
            CODE    BC28H     0064H     UNIT         ?PR?CQT_CLEARRXBUFFER?OBDH_CQT
            CODE    BC8CH     0063H     UNIT         ?PR?TRXUV_ISAVAILABLE?OBDH_TRXUV
            CODE    BCEFH     0062H     UNIT         ?PR?_MCCIF_SETBUFFER?MCCIF_BUFFER
            CODE    BD51H     0061H     UNIT         ?PR?_UART0_ADVANCE?C8051_UART0
            CODE    BDB2H     0060H     UNIT         ?PR?_COMM_SETTXCWCHARRATE?COMM_ITC
            CODE    BE12H     005FH     UNIT         ?PR?COMM_RXUPTIMEGET?COMM_IMC
            CODE    BE71H     005FH     UNIT         ?PR?COMM_TXUPTIMEGET?COMM_ITC
            CODE    BED0H     005FH     UNIT         ?PR?_SUBSYSTEM_ISAVAILABLE?OBDH_RECON
            CODE    BF2FH     005FH     UNIT         ?PR?_STATEUPLINK_PREPAREACK?STATE_RADIOUP
            CODE    BF8EH     005EH     UNIT         ?PR?_SLOWTASK_SETEXECUTEONCE?VELOX_SLOWTASK
            CODE    BFECH     005EH     UNIT         ?PR?_SLOWTASK_SETPERIODIC?VELOX_SLOWTASK
            CODE    C04AH     005EH     UNIT         ?PR?_SLOWTASK_SETREPEATED?VELOX_SLOWTASK
            CODE    C0A8H     005EH     UNIT         ?PR?_UPTIME_INIT?VELOX_UPTIME
            CODE    C106H     005DH     UNIT         ?PR?_TIMERTASK_SETEXECUTEONCE?VELOX_TIMERTASK
            CODE    C163H     005DH     UNIT         ?PR?_TIMERTASK_SETPERIODIC?VELOX_TIMERTASK
            CODE    C1C0H     005DH     UNIT         ?PR?_TIMERTASK_SETREPEATED?VELOX_TIMERTASK
            CODE    C21DH     005CH     UNIT         ?PR?_COMM_SETTXIDLESTATE?COMM_ITC
            CODE    C279H     005BH     UNIT         ?PR?_PRIVATE_DOWNLINKBLOB?STATE_DOWNLINK
            CODE    C2D4H     005AH     UNIT         ?PR?_RUNTIME_HASEXPIRED?VELOX_RUNTIME
            CODE    C32EH     0059H     UNIT         ?PR?TRXUV_INIT?OBDH_TRXUV
            CODE    C387H     0059H     UNIT         ?PR?_CALENDAR_DAYSOFMONTH?VELOX_CALENDAR
            CODE    C3E0H     0056H     UNIT         ?PR?_SD_GETUNTIL?SDCARD_GENERIC
            CODE    C436H     0056H     UNIT         ?PR?_BEACON_IDENTITY?VELOX_BEACON
            CODE    C48CH     0054H     UNIT         ?PR?_RTC_FROMTAI?VELOX_RTC_SUPPORT
            CODE    C4E0H     0054H     UNIT         ?PR?_UART_POLLCHARS?VELOX_UART
            CODE    C534H     0052H     UNIT         ?PR?_HASH_PUTFRAME?HASH_FRAME
            CODE    C586H     0052H     UNIT         ?PR?_TIMER2_INIT?OBDH_TIMER
            CODE    C5D8H     0051H     UNIT         ?PR?SCHEDULE_SIZE?OBDH_SCHEDULE
            CODE    C629H     0051H     UNIT         ?PR?_CHECKSUM_ROTATE?VELOX_CHECKSUM
            CODE    C67AH     0051H     UNIT         ?PR?_UART_PUTCHARS?VELOX_UART
            CODE    C6CBH     004FH     UNIT         ?PR?_SMBUS_SETRXBUFFER?C8051_SMBUS
            CODE    C71AH     004FH     UNIT         ?PR?_SMBUS_SETTXBUFFER?C8051_SMBUS
            CODE    C769H     004BH     UNIT         ?PR?_SMBUS_GETSTATUSCOUNT?C8051_SMBUS
BL51 BANKED LINKER/LOCATER V6.22                                                      05/20/2014  11:03:55  PAGE 13


            CODE    C7B4H     0049H     UNIT         ?PR?WATCHDOG_CONFIRMALIVE?VELOX_WATCHDOG
            CODE    C7FDH     0048H     UNIT         ?PR?_STATEUTIL_INIT?STATE_UTIL
            CODE    C845H     0047H     UNIT         ?PR?_CALENDAR_ISYEARWITH365DAYS?VELOX_CALENDAR
            CODE    C88CH     0044H     UNIT         ?C?LDIV
            CODE    C8D0H     0043H     UNIT         ?PR?_COMM_SETTXBITRATE?COMM_ITC
            CODE    C913H     0042H     UNIT         ?PR?_ADC0_READSHORT?C8051_ADC
            CODE    C955H     0041H     UNIT         ?PR?_SMBUS_ISRXCOMPLETE?C8051_SMBUS
            CODE    C996H     0041H     UNIT         ?PR?META_INIT?VELOX_META
            CODE    C9D7H     0040H     UNIT         ?PR?_RTC_TOTAI?VELOX_RTC_SUPPORT
            CODE    CA17H     003FH     UNIT         ?PR?_CHECKSUM_ISVALID?VELOX_CHECKSUM
            CODE    CA56H     003FH     UNIT         ?PR?_STATE_INITSTATETASK?VELOX_STATE
            CODE    CA95H     003EH     UNIT         ?PR?SMBUSTIMER3_ISR?C8051_SMBUSTIMER3
            CODE    CAD3H     003EH     UNIT         ?PR?SFR_POPPAGE?VELOX_SFRSTACK
            CODE    CB11H     003DH     UNIT         ?PR?TIMER2_ISR?OBDH_TIMER
            CODE    CB4EH     003CH     UNIT         ?PR?OSCILLATOR_RESETCAUSECHECK?C8051_OSCILLATOR
            CODE    CB8AH     003CH     UNIT         ?PR?_RECON_DEBUGPRINT?OBDH_RECON
            CODE    CBC6H     003BH     UNIT         ?PR?_CHECKSUM_PUBLISH?VELOX_CHECKSUM
            CODE    CC01H     003AH     UNIT         ?PR?CQT_INIT?OBDH_CQT
            CODE    CC3BH     0039H     UNIT         ?PR?_MCCIF_GETARGLENGTH?MCCIF_SPY
            CODE    CC74H     0039H     UNIT         ?PR?_MCCIF_GETBLOBINDEX?MCCIF_SPY
            CODE    CCADH     0039H     UNIT         ?PR?_MCCIF_GETBLOBCOUNT?MCCIF_SPY
            CODE    CCE6H     0039H     UNIT         ?PR?PORT_INIT?OBDH_PORT
            CODE    CD1FH     0038H     UNIT         ?PR?_COMM_INIT?COMM_GENERIC
            CODE    CD57H     0038H     UNIT         ?PR?_RTC_INIT?RTC_GENERIC
            CODE    CD8FH     0038H     UNIT         ?PR?_SDRED_INIT?SDCARD_REDUNDANT
            CODE    CDC7H     0038H     UNIT         ?PR?_DELAY_BLOCKMS?VELOX_DELAY
            CODE    CDFFH     0038H     UNIT         ?PR?_UART_ADVANCE?VELOX_UART
            CODE    CE37H     0037H     UNIT         ?PR?_COMM_SETTXOUTPUTMODE?COMM_ITC
            CODE    CE6EH     0037H     UNIT         ?PR?_MCCIF_GETBLOBTYPE?MCCIF_SPY
            CODE    CEA5H     0037H     UNIT         ?PR?_SLOWTASK_SINCELAST?VELOX_SLOWTASK
            CODE    CEDCH     0037H     UNIT         ?PR?_SFR_INIT?VELOX_SFRSTACK
            CODE    CF13H     0036H     UNIT         ?PR?_CALENDAR_INITTOTAI0?VELOX_CALENDAR
            CODE    CF49H     0033H     UNIT         ?PR?_COMM_SENDCHARS?COMM_GENERIC
            CODE    CF7CH     0033H     UNIT         ?PR?_COMM_GETCHARS?COMM_GENERIC
            CODE    CFAFH     0032H     UNIT         ?PR?MCUTEMP_INCELSIUS?C8051_MCUTEMP
            CODE    CFE1H     0032H     UNIT         ?PR?CQT_STARTUP?OBDH_CQT
            CODE    D013H     002FH     UNIT         ?PR?WATCHDOG_INTERRUPTCALLBACK?VELOX_WATCHDOG
            CODE    D042H     002EH     UNIT         ?PR?SMBUSTIMER3_GETTIMEOUTCOUNT?C8051_SMBUSTIMER3
            CODE    D070H     002EH     UNIT         ?PR?SPI0_GETFAILURECOUNT?C8051_SPI0_SHARED
            CODE    D09EH     002EH     UNIT         ?PR?UART1_GETRXAVAILABLE?C8051_UART1
            CODE    D0CCH     002EH     UNIT         ?PR?_CQT_SENDCOMMAND?OBDH_CQT
            CODE    D0FAH     002EH     UNIT         ?PR?SD_INITCONFIG?SDCARD_GENERIC
            CODE    D128H     002EH     UNIT         ?PR?_WATCHDOG_ADVANCEDINIT?VELOX_WATCHDOG
            CODE    D156H     002CH     UNIT         ?PR?WATCHDOG_GETMAXCOUNT?VELOX_WATCHDOG
            CODE    D182H     002BH     UNIT         ?PR?_STATE_TIMEOUT_OVERRIDE?OBDH_EVENTS
            CODE    D1ADH     002BH     UNIT         ?PR?_BEACON_SETUNASSIGNED?VELOX_BEACON
            CODE    D1D8H     0029H     UNIT         ?PR?_SLOWTASK_FROMNOW?VELOX_SLOWTASK
            CODE    D201H     0028H     UNIT         ?PR?UART1_CLOSE?C8051_UART1
            CODE    D229H     0028H     UNIT         ?PR?DEBUG_INIT?OBDH_DEBUG
            CODE    D251H     0028H     UNIT         ?PR?_SD_CRC7PUBLISH?SDCARD_GENERIC
            CODE    D279H     0028H     UNIT         ?PR?_RUNTIME_FROMNOW?VELOX_RUNTIME
            CODE    D2A1H     0027H     UNIT         ?PR?UART0_CLOSE?C8051_UART0
            CODE    D2C8H     0027H     UNIT         ?PR?TRXUV_GETTXRATEFACTOR?OBDH_TRXUV
            CODE    D2EFH     0026H     UNIT         ?PR?_SMBUS_SETGENERALRECEIVER?C8051_SMBUSSPY
            CODE    D315H     0023H     UNIT         ?PR?UART0_RESETRX?C8051_UART0
            CODE    D338H     0023H     UNIT         ?PR?UART0_GETRXAVAILABLE?C8051_UART0
            CODE    D35BH     0023H     UNIT         ?PR?SCHEDULE_HOLDSENTRY?OBDH_SCHEDULE
BL51 BANKED LINKER/LOCATER V6.22                                                      05/20/2014  11:03:55  PAGE 14


            CODE    D37EH     0023H     UNIT         ?PR?UPTIME_ISTAITIMEVALID?VELOX_UPTIME
            CODE    D3A1H     0022H     UNIT         ?PR?_MCCIF_GETFRAMELENGTH?MCCIF_SPY
            CODE    D3C3H     0021H     UNIT         ?PR?SCREEN_SUMMARY?VELOX_SCREEN
            CODE    D3E4H     0021H     UNIT         ?PR?_SLOWTASK_SETDISABLED?VELOX_SLOWTASK
            CODE    D405H     0021H     UNIT         ?PR?_TIMERTASK_SETDISABLED?VELOX_TIMERTASK
            CODE    D426H     0020H     UNIT         ?PR?CLOCK_HASADVANCED?VELOX_CLOCK
            CODE    D446H     0020H     UNIT         ?PR?_TIMERTASK_FROMNOW?VELOX_TIMERTASK
            CODE    D466H     001FH     UNIT         ?PR?_MCCIF_LOCALINIT?MCCIF_LOCAL
            CODE    D485H     001FH     UNIT         ?PR?SCHEDULE_INIT?OBDH_SCHEDULE
            CODE    D4A4H     001DH     UNIT         ?CO?OBDH_EVENTS
            CODE    D4C1H     001DH     UNIT         ?CO?STATE_DOWNLINK
            CODE    D4DEH     001CH     UNIT         ?PR?SECONDS_HAVEADVANCED?VELOX_SECONDS
            CODE    D4FAH     001AH     UNIT         ?PR?RTC_OBTAINSTAMPPUT?RTC_GENERIC
            CODE    D514H     0019H     UNIT         ?PR?SD_SPIREADBYTE?SDCARD_GENERIC
            CODE    D52DH     0018H     UNIT         ?PR?COMM_RXRESET?COMM_IMC
            CODE    D545H     0018H     UNIT         ?PR?COMM_RXQUEUESIZEPUT?COMM_IMC
            CODE    D55DH     0018H     UNIT         ?PR?COMM_RXFRAMEPUT?COMM_IMC
            CODE    D575H     0018H     UNIT         ?PR?COMM_RXFRAMEDROP?COMM_IMC
            CODE    D58DH     0018H     UNIT         ?PR?COMM_ALLTELEMETRYPUT?COMM_IMC
            CODE    D5A5H     0018H     UNIT         ?PR?COMM_RXUPTIMEPUT?COMM_IMC
            CODE    D5BDH     0018H     UNIT         ?PR?COMM_TXRESET?COMM_ITC
            CODE    D5D5H     0018H     UNIT         ?PR?COMM_TXUPTIMEPUT?COMM_ITC
            CODE    D5EDH     0018H     UNIT         ?PR?COMM_TXSTATUSPUT?COMM_ITC
            CODE    D605H     0018H     UNIT         ?PR?_SD_SPIWRITEBYTE?SDCARD_GENERIC
            CODE    D61DH     0018H     UNIT         ?PR?CLOCK_INTERRUPTCALLBACK?VELOX_CLOCK
            CODE    D635H     0017H     UNIT         ?PR?_SYSTEM_GETT1PRESCALER?OBDH_SYSTEMCONFIG
            CODE    D64CH     0017H     UNIT         ?PR?_SYSTEM_GETCKCON?OBDH_SYSTEMCONFIG
            CODE    D663H     0017H     UNIT         ?CO?STATE_FERRYXBEE
            CODE    D67AH     0016H     UNIT         ?PR?TIMEKEEPER_INIT?OBDH_TIMEKEEPER
            CODE    D690H     0015H     UNIT         ?PR?_PUTCHAR?OBDH_SYSTEMCONFIG
            CODE    D6A5H     0014H     UNIT         ?CO?C8051_OSCILLATOR
            CODE    D6B9H     0014H     UNIT         ?CO?STATE_SCHEDULER
            CODE    D6CDH     0013H     UNIT         ?PR?WATCHDOG_DISABLE?C8051_WATCHDOG
            CODE    D6E0H     0012H     UNIT         ?CO?HASH_BLOB
            CODE    D6F2H     0011H     UNIT         ?CO?VELOX_BEACON
            CODE    D703H     0010H     UNIT         ?PR?_ADC0_SETDELAYUS?C8051_ADC
            CODE    D713H     0010H     UNIT         ?PR?AUTH_INIT?OBDH_AUTH
            CODE    D723H     000FH     UNIT         ?PR?OSCILLATOR_GETSYSTEMCLOCK?C8051_OSCILLATOR
            CODE    D732H     000EH     UNIT         ?CO?VELOX_CALENDAR
            CODE    D740H     000DH     UNIT         ?PR?UPTIME_STOREVITALS_OVERRIDE?OBDH_EVENTS
            CODE    D74DH     000CH     UNIT         ?PR?_MCCIF_SETCOMPLETED_OVERRIDE?OBDH_EVENTS
            CODE    D759H     000AH     UNIT         ?PR?WATCHDOG_INIT?C8051_WATCHDOG
            CODE    D763H     000AH     UNIT         ?PR?TRXUV_ISIDLEACTIVE?OBDH_TRXUV
            CODE    D76DH     0008H     UNIT         ?PR?TIMEKEEPER_HANDLER?OBDH_TIMEKEEPER
            CODE    D775H     0006H     UNIT         ?PR?OSCILLATOR_GETTYPE?C8051_OSCILLATOR
            CODE    D77BH     0006H     UNIT         ?PR?UART0_GETRXERRORCOUNT?C8051_UART0
            CODE    D781H     0006H     UNIT         ?PR?UART0_GETTXERRORCOUNT?C8051_UART0
            CODE    D787H     0006H     UNIT         ?PR?UART1_GETTXERRORCOUNT?C8051_UART1
            CODE    D78DH     0006H     UNIT         ?PR?SDCARD_ISAVAILABLE?OBDH_RECON
            CODE    D793H     0006H     UNIT         ?PR?RECON_ISDEBUGPRINTENABLED?OBDH_RECON
            CODE    D799H     0006H     UNIT         ?PR?SFR_GETMAXDEPTH?VELOX_SFRSTACK



OVERLAY MAP OF MODULE:   obdh (C8051_ADC)


BL51 BANKED LINKER/LOCATER V6.22                                                      05/20/2014  11:03:55  PAGE 15


SEGMENT                                             BIT_GROUP          DATA_GROUP          XDATA_GROUP
  +--> CALLED SEGMENT                            START    LENGTH     START    LENGTH     START    LENGTH
--------------------------------------------------------------------------------------------------------
?PR?TIMER2_ISR?OBDH_TIMER                        -----    -----      -----    -----      -----    -----
  +--> ?PR?CLOCK_INTERRUPTCALLBACK?VELOX_CLOCK

?PR?CLOCK_INTERRUPTCALLBACK?VELOX_CLOCK          -----    -----      -----    -----      -----    -----
  +--> ?PR?WATCHDOG_INTERRUPTCALLBACK?VELOX_...

?PR?WATCHDOG_INTERRUPTCALLBACK?VELOX_...         -----    -----      -----    -----      -----    -----
  +--> ?PR?WATCHDOG_RESETTIMER?C8051_WATCHDOG

*** NEW ROOT ***************************************************

?C_C51STARTUP                                    -----    -----      -----    -----      -----    -----
  +--> ?PR?MAIN?OBDH_MAIN
  +--> ?C_INITSEG

?PR?MAIN?OBDH_MAIN                               -----    -----      -----    -----      -----    -----
  +--> ?PR?WATCHDOG_DISABLE?C8051_WATCHDOG
  +--> ?PR?_OSCILLATOR_INIT?C8051_OSCILLATOR
  +--> ?PR?_SFR_INIT?VELOX_SFRSTACK
  +--> ?PR?PORT_INIT?OBDH_PORT
  +--> ?PR?META_INIT?VELOX_META
  +--> ?PR?_SPI0_INIT?C8051_SPI0_SHARED
  +--> ?PR?_SYSTEM_GETCKCON?OBDH_SYSTEMCONFIG
  +--> ?PR?_TIMER0_INIT?OBDH_TIMER
  +--> ?PR?_SYSTEM_GETT1PRESCALER?OBDH_SYSTE...
  +--> ?PR?_UART1TIMER1_INIT?C8051_UART1TIMER1
  +--> ?PR?_TIMER2_INIT?OBDH_TIMER
  +--> ?PR?_UART0TIMER4_INIT?C8051_UART0TIMER4
  +--> ?PR?_UART0_OPEN?C8051_UART0
  +--> ?PR?_UART1_OPEN?C8051_UART1
  +--> ?PR?_ADC0_INIT?C8051_ADC
  +--> ?PR?_SMBUS_SETRXBUFFER?C8051_SMBUS
  +--> ?PR?_SMBUS_INIT?C8051_SMBUS
  +--> ?PR?_SMBUSTIMER3_INIT?C8051_SMBUSTIMER3
  +--> ?PR?_CHECKSUM_INIT?VELOX_CHECKSUM
  +--> ?PR?_WATCHDOG_ADVANCEDINIT?VELOX_WATC...
  +--> ?PR?AUTH_INIT?OBDH_AUTH
  +--> ?PR?DEBUG_INIT?OBDH_DEBUG
  +--> ?PR?TIMEKEEPER_INIT?OBDH_TIMEKEEPER
  +--> ?PR?_COMM_INIT?COMM_GENERIC
  +--> ?PR?_RTC_INIT?RTC_GENERIC
  +--> ?PR?_UPTIME_INIT?VELOX_UPTIME
  +--> ?PR?SCHEDULE_INIT?OBDH_SCHEDULE
  +--> ?PR?CQT_INIT?OBDH_CQT
  +--> ?PR?_STATEUTIL_INIT?STATE_UTIL
  +--> ?PR?_STATE_INITSTATETASK?VELOX_STATE
  +--> ?PR?CONSTANT_INIT?OBDH_CONSTANT
  +--> ?PR?TRXUV_INIT?OBDH_TRXUV
  +--> ?PR?SD_INITCONFIG?SDCARD_GENERIC
  +--> ?PR?_MCCIF_ISVALIDCONTENT?MCCIF_SPY
  +--> ?PR?_SDRED_INIT?SDCARD_REDUNDANT
  +--> ?PR?_STATE_STARTER?VELOX_STATE
  +--> ?PR?WATCHDOG_LOCKOUT?C8051_WATCHDOG
  +--> ?PR?CLOCK_HASADVANCED?VELOX_CLOCK
BL51 BANKED LINKER/LOCATER V6.22                                                      05/20/2014  11:03:55  PAGE 16


  +--> ?PR?SECONDS_HAVEADVANCED?VELOX_SECONDS
  +--> ?PR?GRACE_EACHSECOND?OBDH_GRACE
  +--> ?PR?TIMEKEEPER_HANDLER?OBDH_TIMEKEEPER
  +--> ?PR?META_HANDLER?VELOX_META
  +--> ?PR?_STATE_PWRSHK?STATE_PWRSHK
  +--> ?PR?_STATE_TURING?VELOX_STATE
  +--> ?PR?_STATE_ADCSHK?STATE_ADCSHK
  +--> ?PR?_STATE_TRXUVHK?STATE_TRXUVHK
  +--> ?PR?_STATE_XDATSEGGET?STATE_XDATSEGGET
  +--> ?PR?_STATE_WIREUP?STATE_WIREUP
  +--> ?PR?_STATE_RADIOUP?STATE_RADIOUP
  +--> ?PR?_STATE_CMDHANDLER?STATE_CMDHANDLER
  +--> ?PR?_STATE_SCHEDULER?STATE_SCHEDULER
  +--> ?PR?_STATE_DOWNLINK?STATE_DOWNLINK
  +--> ?PR?_STATE_FERRYCCT?STATE_FERRYCCT
  +--> ?PR?_STATE_FERRYXBEE?STATE_FERRYXBEE
  +--> ?PR?_STATE_FERRYGPS?STATE_FERRYGPS
  +--> ?PR?_STATE_RTCSYNC?STATE_RTCSYNC
  +--> ?PR?_STATE_POWERCQT?STATE_POWERCQT
  +--> ?PR?DEBUG_LOOPDOWNLINK?OBDH_DEBUG
  +--> ?PR?CQT_HANDLER?OBDH_CQT

?PR?_OSCILLATOR_INIT?C8051_OSCILLATOR            -----    -----      -----    -----      -----    -----
  +--> ?PR?OSCILLATOR_RESETCAUSECHECK?C8051_...
  +--> ?PR?_OSCILLATOR_ATTEMPTEXTINIT?C8051_...
  +--> ?PR?_INT_OSCILLATOR_INIT?C8051_OSCILL...

?PR?_OSCILLATOR_ATTEMPTEXTINIT?C8051_...         -----    -----      -----    -----      -----    -----
  +--> ?PR?_OSCILLATOR_SETXFCN?C8051_OSCILLATOR
  +--> ?PR?_OSCILLATOR_SETSYSCLKFROMPLL?C805...

?PR?_OSCILLATOR_SETSYSCLKFROMPLL?C805...         -----    -----      -----    -----      -----    -----
  +--> ?PR?_OSCILLATOR_PRELIMPLLSETTING?C805...

?PR?_OSCILLATOR_PRELIMPLLSETTING?C805...         -----    -----      -----    -----      -----    -----
  +--> ?PR?_OSCILLATOR_SETPLLDAM?C8051_OSCIL...

?PR?_OSCILLATOR_SETPLLDAM?C8051_OSCIL...         -----    -----      -----    -----      -----    -----
  +--> ?CO?C8051_OSCILLATOR

?PR?_INT_OSCILLATOR_INIT?C8051_OSCILL...         -----    -----      -----    -----      -----    -----
  +--> ?PR?_OSCILLATOR_SETSYSCLKFROMPLL?C805...

?PR?PORT_INIT?OBDH_PORT                          -----    -----      -----    -----      -----    -----
  +--> ?PR?_SFR_PUSHPAGE?VELOX_SFRSTACK
  +--> ?PR?SFR_POPPAGE?VELOX_SFRSTACK

?PR?META_INIT?VELOX_META                         -----    -----      -----    -----      -----    -----
  +--> ?PR?OSCILLATOR_GETTYPE?C8051_OSCILLATOR
  +--> ?PR?OSCILLATOR_GETSYSTEMCLOCK?C8051_O...
  +--> ?PR?_SFR_PUSHPAGE?VELOX_SFRSTACK
  +--> ?PR?SFR_POPPAGE?VELOX_SFRSTACK

?PR?_UART0_OPEN?C8051_UART0                      -----    -----      -----    -----      -----    -----
  +--> ?PR?UART0_CLOSE?C8051_UART0
  +--> ?PR?UART0_RESETRX?C8051_UART0

BL51 BANKED LINKER/LOCATER V6.22                                                      05/20/2014  11:03:55  PAGE 17


?PR?_UART1_OPEN?C8051_UART1                      -----    -----      -----    -----      -----    -----
  +--> ?PR?UART1_CLOSE?C8051_UART1

?PR?_ADC0_INIT?C8051_ADC                         -----    -----      -----    -----      -----    -----
  +--> ?PR?_ADC0_SETDELAYUS?C8051_ADC

?PR?_WATCHDOG_ADVANCEDINIT?VELOX_WATC...         -----    -----      -----    -----      -----    -----
  +--> ?PR?WATCHDOG_CONFIRMALIVE?VELOX_WATCHDOG
  +--> ?PR?WATCHDOG_INIT?C8051_WATCHDOG

?PR?DEBUG_INIT?OBDH_DEBUG                        -----    -----      -----    -----      -----    -----
  +--> ?PR?_MCCIF_LOCALINIT?MCCIF_LOCAL
  +--> ?PR?_MCCIF_SETBUFFER?MCCIF_BUFFER
  +--> ?PR?_TIMERTASK_SETREPEATED?VELOX_TIME...

?PR?_MCCIF_SETBUFFER?MCCIF_BUFFER                -----    -----      -----    -----      -----    -----
  +--> ?PR?_MCCIF_APPENDCHARS?MCCIF_BUFFER

?PR?_MCCIF_APPENDCHARS?MCCIF_BUFFER              -----    -----      -----    -----      -----    -----
  +--> ?PR?_MCCIF_APPENDCHAR?MCCIF_BUFFER

?PR?_MCCIF_APPENDCHAR?MCCIF_BUFFER               -----    -----      -----    -----      -----    -----
  +--> ?PR?MCCIF_FLUSH?MCCIF_BUFFER

?PR?MCCIF_FLUSH?MCCIF_BUFFER                     -----    -----      -----    -----      -----    -----
  +--> ?PR?_MCCIF_DOWNLINKSTREAM?MCCIF_STREAM

?PR?_MCCIF_DOWNLINKSTREAM?MCCIF_STREAM           -----    -----      -----    -----      -----    -----
  +--> ?PR?_CHECKSUM_UPDATE?VELOX_CHECKSUM
  +--> ?PR?_UART_PUTCHARS?VELOX_UART
  +--> ?PR?_CHECKSUM_PUBLISH?VELOX_CHECKSUM

?PR?_CHECKSUM_UPDATE?VELOX_CHECKSUM              -----    -----      -----    -----      -----    -----
  +--> ?PR?_CHECKSUM_ROTATE?VELOX_CHECKSUM

?PR?_UART_PUTCHARS?VELOX_UART                    -----    -----      -----    -----      -----    -----
  +--> ?PR?_UART0_PUTCHARS?C8051_UART0
  +--> ?PR?_UART1_PUTCHARS?C8051_UART1

?PR?_UART0_PUTCHARS?C8051_UART0                  -----    -----      -----    -----      -----    -----
  +--> ?PR?_UART0_PUTCHAR?C8051_UART0

?PR?_UART1_PUTCHARS?C8051_UART1                  -----    -----      -----    -----      -----    -----
  +--> ?PR?_UART1_PUTCHAR?C8051_UART1

?PR?_CHECKSUM_PUBLISH?VELOX_CHECKSUM             -----    -----      -----    -----      -----    -----
  +--> ?PR?_CHECKSUM_ROTATE?VELOX_CHECKSUM

?PR?_TIMERTASK_SETREPEATED?VELOX_TIME...         -----    -----      -----    -----      -----    -----
  +--> ?PR?TIMERTASK_GETCLOCK_OVERRIDE?VELOX...

?PR?_UPTIME_INIT?VELOX_UPTIME                    -----    -----      -----    -----      -----    -----
  +--> ?PR?_TIMERTASK_SETPERIODIC?VELOX_TIME...

?PR?_TIMERTASK_SETPERIODIC?VELOX_TIME...         -----    -----      -----    -----      -----    -----
  +--> ?PR?TIMERTASK_GETCLOCK_OVERRIDE?VELOX...

BL51 BANKED LINKER/LOCATER V6.22                                                      05/20/2014  11:03:55  PAGE 18


?PR?_STATE_INITSTATETASK?VELOX_STATE             -----    -----      -----    -----      -----    -----
  +--> ?PR?_TIMERTASK_SETREPEATED?VELOX_TIME...

?PR?CONSTANT_INIT?OBDH_CONSTANT                  -----    -----      -----    -----      -----    -----
  +--> ?PR?_SLOWTASK_SETPERIODIC?VELOX_SLOWTASK
  +--> ?PR?_SLOWTASK_SETREPEATED?VELOX_SLOWTASK
  +--> ?PR?_SLOWTASK_SETDISABLED?VELOX_SLOWTASK
  +--> ?PR?_BEACON_SETUNASSIGNED?VELOX_BEACON

?PR?TRXUV_INIT?OBDH_TRXUV                        -----    -----      -----    -----      -----    -----
  +--> ?PR?_RUNTIME_FROMNOW?VELOX_RUNTIME

?PR?_MCCIF_ISVALIDCONTENT?MCCIF_SPY              -----    -----      -----    -----      -----    -----
  +--> ?CO?MCCIF_XDATA
  +--> ?PR?_CHECKSUM_ISVALID?VELOX_CHECKSUM

?PR?_CHECKSUM_ISVALID?VELOX_CHECKSUM             -----    -----      -----    -----      -----    -----
  +--> ?PR?_CHECKSUM_UPDATE?VELOX_CHECKSUM
  +--> ?PR?_CHECKSUM_PUBLISH?VELOX_CHECKSUM

?PR?_STATE_STARTER?VELOX_STATE                   -----    -----      -----    -----      -----    -----
  +--> ?PR?TIMERTASK_GETCLOCK_OVERRIDE?VELOX...

?PR?CLOCK_HASADVANCED?VELOX_CLOCK                -----    -----      -----    -----      -----    -----
  +--> ?PR?WATCHDOG_CONFIRMALIVE?VELOX_WATCHDOG

?PR?SECONDS_HAVEADVANCED?VELOX_SECONDS           -----    -----      -----    -----      -----    -----
  +--> ?PR?SCREEN_CAPTURE?VELOX_SCREEN
  +--> ?PR?UPTIME_HANDLER?VELOX_UPTIME
  +--> ?PR?SCREEN_SUMMARY?VELOX_SCREEN

?PR?SCREEN_CAPTURE?VELOX_SCREEN                  -----    -----      -----    -----      -----    -----
  +--> ?PR?TIMERTASK_GETCLOCK_OVERRIDE?VELOX...

?PR?UPTIME_HANDLER?VELOX_UPTIME                  -----    -----      -----    -----      -----    -----
  +--> ?PR?_TIMERTASK_ISREADY?VELOX_TIMERTASK
  +--> ?PR?UPTIME_ISTAITIMEVALID?VELOX_UPTIME
  +--> ?PR?UPTIME_STOREVITALS_OVERRIDE?OBDH_...

?PR?_TIMERTASK_ISREADY?VELOX_TIMERTASK           -----    -----      -----    -----      -----    -----
  +--> ?PR?TIMERTASK_GETCLOCK_OVERRIDE?VELOX...

?PR?UPTIME_STOREVITALS_OVERRIDE?OBDH_...         -----    -----      -----    -----      -----    -----
  +--> ?PR?HASH_WRITEMANIFEST?HASH_MANIFEST
  +--> ?CO?OBDH_EVENTS
  +--> ?PR?PRINTF?PRINTF

?PR?HASH_WRITEMANIFEST?HASH_MANIFEST             -----    -----      -----    -----      -----    -----
  +--> ?PR?_MCCIF_FORMATCONTENT?MCCIF_XDATA
  +--> ?PR?_SDRED_WRITE?SDCARD_REDUNDANT

?PR?_MCCIF_FORMATCONTENT?MCCIF_XDATA             -----    -----      -----    -----      -----    -----
  +--> ?CO?MCCIF_XDATA
  +--> ?PR?_CHECKSUM_UPDATE?VELOX_CHECKSUM
  +--> ?PR?_CHECKSUM_PUBLISH?VELOX_CHECKSUM

?PR?_SDRED_WRITE?SDCARD_REDUNDANT                -----    -----      -----    -----      -----    -----
BL51 BANKED LINKER/LOCATER V6.22                                                      05/20/2014  11:03:55  PAGE 19


  +--> ?PR?_SD_WRITESINGLEBLOCK?SDCARD_GENERIC
  +--> ?PR?_SDRED_READ?SDCARD_REDUNDANT

?PR?_SD_WRITESINGLEBLOCK?SDCARD_GENERIC          -----    -----      -----    -----      -----    -----
  +--> ?PR?SD_INIT?SDCARD_GENERIC
  +--> ?PR?_SD_COMMANDUNTIL?SDCARD_GENERIC
  +--> ?PR?_SD_WRITEBLOCKDATA?SDCARD_GENERIC
  +--> ?PR?_SD_GETUNTIL?SDCARD_GENERIC
  +--> ?PR?_SD_GETUNTILNOT?SDCARD_GENERIC
  +--> ?PR?_SD_SPIWRITEBYTE?SDCARD_GENERIC

?PR?SD_INIT?SDCARD_GENERIC                       -----    -----      -----    -----      -----    -----
  +--> ?PR?_SD_SENDCOMMAND?SDCARD_GENERIC
  +--> ?PR?_SPI0_PUTCHARS?C8051_SPI0
  +--> ?PR?_SD_COMMANDUNTIL?SDCARD_GENERIC

?PR?_SD_SENDCOMMAND?SDCARD_GENERIC               -----    -----      -----    -----      -----    -----
  +--> ?PR?_SD_CRC7UPDATE?SDCARD_GENERIC
  +--> ?PR?_SD_CRC7PUBLISH?SDCARD_GENERIC
  +--> ?PR?_SPI0_PUTCHARS?C8051_SPI0
  +--> ?PR?_SD_GETUNTILNOT?SDCARD_GENERIC
  +--> ?PR?SD_SPIREADBYTE?SDCARD_GENERIC

?PR?_SD_CRC7UPDATE?SDCARD_GENERIC                -----    -----      -----    -----      -----    -----
  +--> ?PR?_SD_CRC7ROTATE?SDCARD_GENERIC

?PR?_SD_CRC7PUBLISH?SDCARD_GENERIC               -----    -----      -----    -----      -----    -----
  +--> ?PR?_SD_CRC7ROTATE?SDCARD_GENERIC

?PR?_SPI0_PUTCHARS?C8051_SPI0                    -----    -----      -----    -----      -----    -----
  +--> ?PR?_SPI0_GETPUT?C8051_SPI0

?PR?_SD_GETUNTILNOT?SDCARD_GENERIC               -----    -----      -----    -----      -----    -----
  +--> ?PR?SD_SPIREADBYTE?SDCARD_GENERIC
  +--> ?PR?_DELAY_US?C8051_DELAY

?PR?SD_SPIREADBYTE?SDCARD_GENERIC                -----    -----      -----    -----      -----    -----
  +--> ?PR?_SPI0_PUTGETCHARS?C8051_SPI0

?PR?_SPI0_PUTGETCHARS?C8051_SPI0                 -----    -----      -----    -----      -----    -----
  +--> ?PR?_SPI0_GETPUT?C8051_SPI0

?PR?_DELAY_US?C8051_DELAY                        -----    -----      -----    -----      -----    -----
  +--> ?PR?OSCILLATOR_GETSYSTEMCLOCK?C8051_O...

?PR?_SD_COMMANDUNTIL?SDCARD_GENERIC              -----    -----      -----    -----      -----    -----
  +--> ?PR?_SD_SENDCOMMAND?SDCARD_GENERIC
  +--> ?PR?_DELAY_US?C8051_DELAY

?PR?_SD_WRITEBLOCKDATA?SDCARD_GENERIC            -----    -----      -----    -----      -----    -----
  +--> ?PR?_SD_SPIWRITEBYTE?SDCARD_GENERIC
  +--> ?PR?_SPI0INT_PROCESS?C8051_SPI0_INT

?PR?_SD_SPIWRITEBYTE?SDCARD_GENERIC              -----    -----      -----    -----      -----    -----
  +--> ?PR?_SPI0_PUTGETCHARS?C8051_SPI0

?PR?_SPI0INT_PROCESS?C8051_SPI0_INT              -----    -----      -----    -----      -----    -----
BL51 BANKED LINKER/LOCATER V6.22                                                      05/20/2014  11:03:55  PAGE 20


  +--> ?PR?_DELAY_US?C8051_DELAY

?PR?_SD_GETUNTIL?SDCARD_GENERIC                  -----    -----      -----    -----      -----    -----
  +--> ?PR?SD_SPIREADBYTE?SDCARD_GENERIC
  +--> ?PR?_DELAY_US?C8051_DELAY

?PR?_SDRED_READ?SDCARD_REDUNDANT                 -----    -----      -----    -----      -----    -----
  +--> ?PR?_SD_READSINGLEBLOCK?SDCARD_GENERIC

?PR?_SD_READSINGLEBLOCK?SDCARD_GENERIC           -----    -----      -----    -----      -----    -----
  +--> ?PR?SD_INIT?SDCARD_GENERIC
  +--> ?PR?_SD_COMMANDUNTIL?SDCARD_GENERIC
  +--> ?PR?_SD_GETUNTIL?SDCARD_GENERIC
  +--> ?PR?_SD_READBLOCKDATA?SDCARD_GENERIC

?PR?_SD_READBLOCKDATA?SDCARD_GENERIC             -----    -----      -----    -----      -----    -----
  +--> ?PR?_SPI0INT_PROCESS?C8051_SPI0_INT
  +--> ?PR?SD_SPIREADBYTE?SDCARD_GENERIC

?PR?PRINTF?PRINTF                                0020H.0  0001H.1    0008H    0005H      1158H    0030H
  +--> ?PR?_PUTCHAR?OBDH_SYSTEMCONFIG

?PR?_PUTCHAR?OBDH_SYSTEMCONFIG                   -----    -----      -----    -----      -----    -----
  +--> ?PR?_MCCIF_APPENDCHAR?MCCIF_BUFFER

?PR?GRACE_EACHSECOND?OBDH_GRACE                  -----    -----      -----    -----      -----    -----
  +--> ?PR?SD_INIT?SDCARD_GENERIC
  +--> ?PR?HASH_READMANIFEST?HASH_MANIFEST
  +--> ?PR?_SLOWTASK_SETPERIODIC?VELOX_SLOWTASK
  +--> ?PR?_BEACON_LINEAR?VELOX_BEACON
  +--> ?PR?_SLOWTASK_ISREADY?VELOX_SLOWTASK
  +--> ?PR?_RUNTIME_FROMNOW?VELOX_RUNTIME
  +--> ?PR?_SLOWTASK_SETDISABLED?VELOX_SLOWTASK
  +--> ?PR?_SLOWTASK_FROMNOW?VELOX_SLOWTASK
  +--> ?PR?MCCIF_FLUSH?MCCIF_BUFFER

?PR?HASH_READMANIFEST?HASH_MANIFEST              -----    -----      -----    -----      -----    -----
  +--> ?PR?_SDRED_READ?SDCARD_REDUNDANT

?PR?_BEACON_LINEAR?VELOX_BEACON                  -----    -----      -----    -----      -----    -----
  +--> ?CO?VELOX_BEACON
  +--> ?PR?_CEIL?CEIL

?PR?_CEIL?CEIL                                   -----    -----      -----    -----      1158H    0008H

?PR?META_HANDLER?VELOX_META                      -----    -----      -----    -----      -----    -----
  +--> ?PR?SPI0_GETFAILURECOUNT?C8051_SPI0_S...
  +--> ?PR?MCUTEMP_INCELSIUS?C8051_MCUTEMP
  +--> ?PR?_SMBUS_GETSTATUSCOUNT?C8051_SMBUS
  +--> ?PR?SMBUSTIMER3_GETTIMEOUTCOUNT?C8051...
  +--> ?PR?UART0_GETTXERRORCOUNT?C8051_UART0
  +--> ?PR?UART0_GETRXERRORCOUNT?C8051_UART0
  +--> ?PR?UART1_GETTXERRORCOUNT?C8051_UART1
  +--> ?PR?WATCHDOG_GETMAXCOUNT?VELOX_WATCHDOG
  +--> ?PR?SFR_GETMAXDEPTH?VELOX_SFRSTACK

?PR?MCUTEMP_INCELSIUS?C8051_MCUTEMP              -----    -----      -----    -----      -----    -----
BL51 BANKED LINKER/LOCATER V6.22                                                      05/20/2014  11:03:55  PAGE 21


  +--> ?PR?_ADC0_GETAVERAGE_MV?C8051_ADC

?PR?_ADC0_GETAVERAGE_MV?C8051_ADC                -----    -----      -----    -----      -----    -----
  +--> ?PR?_ADC0_READSHORT?C8051_ADC

?PR?_ADC0_READSHORT?C8051_ADC                    -----    -----      -----    -----      -----    -----
  +--> ?PR?_DELAY_US?C8051_DELAY

?PR?_STATE_PWRSHK?STATE_PWRSHK                   -----    -----      -----    -----      -----    -----
  +--> ?PR?_BEACON_SETUNASSIGNED?VELOX_BEACON
  +--> ?PR?_SUBSYSTEM_ISAVAILABLE?OBDH_RECON
  +--> ?PR?_STATEUTIL_POKEREQUESTXDATA?STATE...
  +--> ?PR?_STATEUTIL_PEEK?STATE_UTIL
  +--> ?PR?RECON_CHANNELSTATUSUPDATED_EVENT?...
  +--> ?PR?UPTIME_ISTAITIMEVALID?VELOX_UPTIME
  +--> ?PR?_RUNTIME_HASEXPIRED?VELOX_RUNTIME
  +--> ?PR?_STATEUTIL_POKESETXDATA?STATE_UTIL
  +--> ?PR?_RUNTIME_FROMNOW?VELOX_RUNTIME

?PR?_STATEUTIL_POKEREQUESTXDATA?STATE...         -----    -----      -----    -----      -----    -----
  +--> ?PR?_MCCIF_FORMATREQUEST?MCCIF_ACTIVE
  +--> ?PR?_SMBUS_SETTXBUFFER?C8051_SMBUS
  +--> ?PR?_SMBUS_SETRXBUFFER?C8051_SMBUS
  +--> ?PR?_SMBUS_START?C8051_SMBUS
  +--> ?PR?_TIMERTASK_SETEXECUTEONCE?VELOX_T...

?PR?_MCCIF_FORMATREQUEST?MCCIF_ACTIVE            -----    -----      -----    -----      -----    -----
  +--> ?CO?MCCIF_XDATA
  +--> ?PR?_CHECKSUM_UPDATE?VELOX_CHECKSUM
  +--> ?PR?_CHECKSUM_PUBLISH?VELOX_CHECKSUM

?PR?_TIMERTASK_SETEXECUTEONCE?VELOX_T...         -----    -----      -----    -----      -----    -----
  +--> ?PR?TIMERTASK_GETCLOCK_OVERRIDE?VELOX...

?PR?_STATEUTIL_PEEK?STATE_UTIL                   -----    -----      -----    -----      -----    -----
  +--> ?PR?_SMBUS_ISRXCOMPLETE?C8051_SMBUS
  +--> ?PR?_MCCIF_ISVALIDCONTENT?MCCIF_SPY
  +--> ?PR?_SMBUS_SETGENERALRECEIVER?C8051_S...
  +--> ?PR?_TIMERTASK_ISREADY?VELOX_TIMERTASK

?PR?RECON_CHANNELSTATUSUPDATED_EVENT?...         -----    -----      -----    -----      -----    -----
  +--> ?PR?_TIMERTASK_SETREPEATED?VELOX_TIME...
  +--> ?PR?_TIMERTASK_SETDISABLED?VELOX_TIME...

?PR?_STATEUTIL_POKESETXDATA?STATE_UTIL           -----    -----      -----    -----      -----    -----
  +--> ?PR?_MCCIF_FORMATSET?MCCIF_ACTIVE
  +--> ?PR?_SMBUS_SETTXBUFFER?C8051_SMBUS
  +--> ?PR?_SMBUS_SETGENERALRECEIVER?C8051_S...
  +--> ?PR?_SMBUS_START?C8051_SMBUS
  +--> ?PR?_TIMERTASK_SETEXECUTEONCE?VELOX_T...

?PR?_MCCIF_FORMATSET?MCCIF_ACTIVE                -----    -----      -----    -----      -----    -----
  +--> ?CO?MCCIF_XDATA
  +--> ?PR?_CHECKSUM_UPDATE?VELOX_CHECKSUM
  +--> ?PR?_CHECKSUM_PUBLISH?VELOX_CHECKSUM

?PR?_STATE_TURING?VELOX_STATE                    -----    -----      -----    -----      -----    -----
BL51 BANKED LINKER/LOCATER V6.22                                                      05/20/2014  11:03:55  PAGE 22


  +--> ?PR?_STATE_ISACTIVE?VELOX_STATE
  +--> ?PR?_STATE_RELEASE?VELOX_STATE

?PR?_STATE_ISACTIVE?VELOX_STATE                  -----    -----      -----    -----      -----    -----
  +--> ?PR?_TIMERTASK_ISREADY?VELOX_TIMERTASK
  +--> ?PR?_STATE_ISREADY?VELOX_STATE

?PR?_STATE_ISREADY?VELOX_STATE                   -----    -----      -----    -----      -----    -----
  +--> ?PR?TIMERTASK_GETCLOCK_OVERRIDE?VELOX...
  +--> ?PR?_STATE_TIMEOUT_OVERRIDE?OBDH_EVENTS
  +--> ?PR?_STATE_RELEASE?VELOX_STATE

?PR?_STATE_TIMEOUT_OVERRIDE?OBDH_EVENTS          -----    -----      -----    -----      -----    -----
  +--> ?CO?OBDH_EVENTS
  +--> ?PR?PRINTF?PRINTF

?PR?_STATE_RELEASE?VELOX_STATE                   -----    -----      -----    -----      -----    -----
  +--> ?PR?_TIMERTASK_FROMNOW?VELOX_TIMERTASK

?PR?_TIMERTASK_FROMNOW?VELOX_TIMERTASK           -----    -----      -----    -----      -----    -----
  +--> ?PR?TIMERTASK_GETCLOCK_OVERRIDE?VELOX...

?PR?_STATE_ADCSHK?STATE_ADCSHK                   -----    -----      -----    -----      -----    -----
  +--> ?PR?_BEACON_SETUNASSIGNED?VELOX_BEACON
  +--> ?PR?_SUBSYSTEM_ISAVAILABLE?OBDH_RECON
  +--> ?PR?_STATEUTIL_POKEREQUESTXDATA?STATE...
  +--> ?PR?_STATEUTIL_PEEK?STATE_UTIL
  +--> ?PR?UPTIME_ISTAITIMEVALID?VELOX_UPTIME
  +--> ?PR?_STATEUTIL_POKESETXDATA?STATE_UTIL

?PR?_STATE_TRXUVHK?STATE_TRXUVHK                 -----    -----      -----    -----      -----    -----
  +--> ?PR?TRXUV_ISAVAILABLE?OBDH_TRXUV
  +--> ?PR?COMM_ALLTELEMETRYPUT?COMM_IMC
  +--> ?PR?COMM_RXUPTIMEPUT?COMM_IMC
  +--> ?PR?COMM_TXUPTIMEPUT?COMM_ITC
  +--> ?PR?COMM_TXSTATUSPUT?COMM_ITC
  +--> ?PR?_TIMERTASK_SETEXECUTEONCE?VELOX_T...
  +--> ?PR?_TIMERTASK_ISREADY?VELOX_TIMERTASK
  +--> ?PR?COMM_ALLTELEMETRYGET?COMM_IMC
  +--> ?PR?COMM_RXUPTIMEGET?COMM_IMC
  +--> ?PR?COMM_TXUPTIMEGET?COMM_ITC
  +--> ?PR?COMM_TXSTATUSGET?COMM_ITC

?PR?COMM_ALLTELEMETRYPUT?COMM_IMC                -----    -----      -----    -----      -----    -----
  +--> ?PR?_COMM_SENDCHARS?COMM_GENERIC

?PR?_COMM_SENDCHARS?COMM_GENERIC                 -----    -----      -----    -----      -----    -----
  +--> ?PR?_SMBUS_SETTXBUFFER?C8051_SMBUS
  +--> ?PR?_SMBUS_START?C8051_SMBUS
  +--> ?PR?_DELAY_BLOCKMS?VELOX_DELAY

?PR?_DELAY_BLOCKMS?VELOX_DELAY                   -----    -----      -----    -----      -----    -----
  +--> ?PR?_TIMERTASK_SETEXECUTEONCE?VELOX_T...
  +--> ?PR?_TIMERTASK_ISREADY?VELOX_TIMERTASK
  +--> ?PR?_DELAY_US?C8051_DELAY

?PR?COMM_RXUPTIMEPUT?COMM_IMC                    -----    -----      -----    -----      -----    -----
BL51 BANKED LINKER/LOCATER V6.22                                                      05/20/2014  11:03:55  PAGE 23


  +--> ?PR?_COMM_SENDCHARS?COMM_GENERIC

?PR?COMM_TXUPTIMEPUT?COMM_ITC                    -----    -----      -----    -----      -----    -----
  +--> ?PR?_COMM_SENDCHARS?COMM_GENERIC

?PR?COMM_TXSTATUSPUT?COMM_ITC                    -----    -----      -----    -----      -----    -----
  +--> ?PR?_COMM_SENDCHARS?COMM_GENERIC

?PR?COMM_ALLTELEMETRYGET?COMM_IMC                -----    -----      -----    -----      -----    -----
  +--> ?PR?_COMM_GETCHARS?COMM_GENERIC
  +--> ?PR?_SMBUS_ISRXCOMPLETE?C8051_SMBUS

?PR?_COMM_GETCHARS?COMM_GENERIC                  -----    -----      -----    -----      -----    -----
  +--> ?PR?_SMBUS_SETRXBUFFER?C8051_SMBUS
  +--> ?PR?_SMBUS_START?C8051_SMBUS
  +--> ?PR?_DELAY_BLOCKMS?VELOX_DELAY

?PR?COMM_RXUPTIMEGET?COMM_IMC                    -----    -----      -----    -----      -----    -----
  +--> ?PR?_COMM_GETCHARS?COMM_GENERIC
  +--> ?PR?_SMBUS_ISRXCOMPLETE?C8051_SMBUS

?PR?COMM_TXUPTIMEGET?COMM_ITC                    -----    -----      -----    -----      -----    -----
  +--> ?PR?_COMM_GETCHARS?COMM_GENERIC
  +--> ?PR?_SMBUS_ISRXCOMPLETE?C8051_SMBUS

?PR?COMM_TXSTATUSGET?COMM_ITC                    -----    -----      -----    -----      -----    -----
  +--> ?PR?_COMM_GETCHARS?COMM_GENERIC
  +--> ?PR?_SMBUS_ISRXCOMPLETE?C8051_SMBUS

?PR?_STATE_XDATSEGGET?STATE_XDATSEGGET           -----    -----      -----    -----      -----    -----
  +--> ?PR?_MCCIF_FORMATCONTENT?MCCIF_XDATA
  +--> ?PR?_PRIVATE_XDATSEGSDSTORAGE?STATE_X...
  +--> ?PR?_PRIVATE_XDATSEGPROPAGATE?STATE_X...
  +--> ?PR?_RECON_DEBUGPRINT?OBDH_RECON
  +--> ?PR?_SUBSYSTEM_ISAVAILABLE?OBDH_RECON
  +--> ?PR?_STATEUTIL_POKEREQUESTXDATA?STATE...
  +--> ?PR?_STATEUTIL_PEEK?STATE_UTIL

?PR?_PRIVATE_XDATSEGSDSTORAGE?STATE_X...         -----    -----      -----    -----      -----    -----
  +--> ?PR?_SLOWTASK_ISREADY?VELOX_SLOWTASK
  +--> ?PR?SDCARD_ISAVAILABLE?OBDH_RECON
  +--> ?PR?_HASH_PUTFRAME?HASH_FRAME

?PR?_HASH_PUTFRAME?HASH_FRAME                    -----    -----      -----    -----      -----    -----
  +--> ?PR?_HASH_GETADDRESS?HASH_FRAME
  +--> ?PR?_SDRED_WRITE?SDCARD_REDUNDANT

?PR?_RECON_DEBUGPRINT?OBDH_RECON                 -----    -----      -----    -----      -----    -----
  +--> ?PR?_UART_PUTCHARS?VELOX_UART

?PR?_STATE_WIREUP?STATE_WIREUP                   -----    -----      -----    -----      -----    -----
  +--> ?PR?MCCIF_LOCALPOLL?MCCIF_LOCAL
  +--> ?PR?_STATEUTIL_PEEK?STATE_UTIL
  +--> ?PR?STATEUPLINK_RELEASEACK?STATE_RADIOUP

?PR?MCCIF_LOCALPOLL?MCCIF_LOCAL                  -----    -----      -----    -----      -----    -----
  +--> ?PR?_UART_POLLCHARS?VELOX_UART
BL51 BANKED LINKER/LOCATER V6.22                                                      05/20/2014  11:03:55  PAGE 24


  +--> ?CO?MCCIF_XDATA
  +--> ?PR?_CHECKSUM_ISVALID?VELOX_CHECKSUM
  +--> ?PR?_UART_ADVANCE?VELOX_UART
  +--> ?PR?_MCCIF_LOCALHANDLE_OVERRIDE?STATE...

?PR?_UART_POLLCHARS?VELOX_UART                   -----    -----      -----    -----      -----    -----
  +--> ?PR?_UART0_POLLCHARS?C8051_UART0
  +--> ?PR?_UART1_POLLCHARS?C8051_UART1

?PR?_UART0_POLLCHARS?C8051_UART0                 -----    -----      -----    -----      -----    -----
  +--> ?PR?UART0_GETRXAVAILABLE?C8051_UART0

?PR?_UART1_POLLCHARS?C8051_UART1                 -----    -----      -----    -----      -----    -----
  +--> ?PR?UART1_GETRXAVAILABLE?C8051_UART1

?PR?_UART_ADVANCE?VELOX_UART                     -----    -----      -----    -----      -----    -----
  +--> ?PR?_UART0_ADVANCE?C8051_UART0
  +--> ?PR?_UART1_ADVANCE?C8051_UART1

?PR?_MCCIF_LOCALHANDLE_OVERRIDE?STATE...         -----    -----      -----    -----      -----    -----
  +--> ?PR?_MCCIF_LOCALSET?MCCIF_XDATA
  +--> ?PR?_STATEUPLINK_PREPAREACK?STATE_RAD...
  +--> ?PR?STATEUPLINK_RELEASEACK?STATE_RADIOUP
  +--> ?PR?_SUBSYSTEM_ISAVAILABLE?OBDH_RECON
  +--> ?PR?_STATEUTIL_POKESETXDATA?STATE_UTIL

?PR?_MCCIF_LOCALSET?MCCIF_XDATA                  -----    -----      -----    -----      -----    -----
  +--> ?CO?MCCIF_XDATA
  +--> ?PR?_CHECKSUM_ISVALID?VELOX_CHECKSUM
  +--> ?PR?_MCCIF_SETCOMPLETED_OVERRIDE?OBDH...

?PR?_MCCIF_SETCOMPLETED_OVERRIDE?OBDH...         -----    -----      -----    -----      -----    -----
  +--> ?PR?SCHEDULE_HANDLEADD?OBDH_SCHEDULE

?PR?SCHEDULE_HANDLEADD?OBDH_SCHEDULE             -----    -----      -----    -----      -----    -----
  +--> ?PR?SCHEDULE_SIZE?OBDH_SCHEDULE
  +--> ?PR?UPTIME_ISTAITIMEVALID?VELOX_UPTIME

?PR?_STATEUPLINK_PREPAREACK?STATE_RAD...         -----    -----      -----    -----      -----    -----
  +--> ?PR?_MCCIF_GETARGLENGTH?MCCIF_SPY

?PR?STATEUPLINK_RELEASEACK?STATE_RADIOUP         -----    -----      -----    -----      -----    -----
  +--> ?PR?TIMERTASK_GETCLOCK_OVERRIDE?VELOX...

?PR?_STATE_RADIOUP?STATE_RADIOUP                 -----    -----      -----    -----      -----    -----
  +--> ?PR?TRXUV_ISAVAILABLE?OBDH_TRXUV
  +--> ?PR?COMM_RXQUEUESIZEPUT?COMM_IMC
  +--> ?PR?_TIMERTASK_SETEXECUTEONCE?VELOX_T...
  +--> ?PR?_TIMERTASK_ISREADY?VELOX_TIMERTASK
  +--> ?PR?_COMM_RXQUEUESIZEGET?COMM_IMC
  +--> ?PR?COMM_RXFRAMEPUT?COMM_IMC
  +--> ?PR?_COMM_RXFRAMEGET?COMM_IMC
  +--> ?PR?COMM_RXFRAMEDROP?COMM_IMC
  +--> ?CO?MCCIF_XDATA
  +--> ?PR?_AUTH_ISPERMITTED_OVERRIDE?OBDH_AUTH
  +--> ?PR?_RUNTIME_FROMNOW?VELOX_RUNTIME
  +--> ?PR?_MCCIF_LOCALHANDLE_OVERRIDE?STATE...
BL51 BANKED LINKER/LOCATER V6.22                                                      05/20/2014  11:03:55  PAGE 25


  +--> ?PR?AUTH_LOCALNOTIFY_OVERRIDE?OBDH_AUTH
  +--> ?PR?_STATEUTIL_PEEK?STATE_UTIL
  +--> ?PR?STATEUPLINK_RELEASEACK?STATE_RADIOUP

?PR?COMM_RXQUEUESIZEPUT?COMM_IMC                 -----    -----      -----    -----      -----    -----
  +--> ?PR?_COMM_SENDCHARS?COMM_GENERIC

?PR?_COMM_RXQUEUESIZEGET?COMM_IMC                -----    -----      -----    -----      -----    -----
  +--> ?PR?_COMM_GETCHARS?COMM_GENERIC
  +--> ?PR?_SMBUS_ISRXCOMPLETE?C8051_SMBUS

?PR?COMM_RXFRAMEPUT?COMM_IMC                     -----    -----      -----    -----      -----    -----
  +--> ?PR?_COMM_SENDCHARS?COMM_GENERIC

?PR?_COMM_RXFRAMEGET?COMM_IMC                    -----    -----      -----    -----      -----    -----
  +--> ?PR?_COMM_GETCHARS?COMM_GENERIC
  +--> ?PR?_SMBUS_ISRXCOMPLETE?C8051_SMBUS

?PR?COMM_RXFRAMEDROP?COMM_IMC                    -----    -----      -----    -----      -----    -----
  +--> ?PR?_COMM_SENDCHARS?COMM_GENERIC

?PR?AUTH_LOCALNOTIFY_OVERRIDE?OBDH_AUTH          -----    -----      -----    -----      -----    -----
  +--> ?PR?_SLOWTASK_FROMNOW?VELOX_SLOWTASK
  +--> ?PR?_CHECKSUM_UPDATE?VELOX_CHECKSUM
  +--> ?PR?_CHECKSUM_PUBLISH?VELOX_CHECKSUM
  +--> ?PR?_SLOWTASK_SETEXECUTEONCE?VELOX_SL...
  +--> ?PR?_SLOWTASK_SETDISABLED?VELOX_SLOWTASK

?PR?_STATE_CMDHANDLER?STATE_CMDHANDLER           -----    -----      -----    -----      -----    -----
  +--> ?PR?COMM_RXRESET?COMM_IMC
  +--> ?PR?COMM_TXRESET?COMM_ITC
  +--> ?PR?_COMM_SETTXBITRATE?COMM_ITC
  +--> ?PR?_COMM_SETTXOUTPUTMODE?COMM_ITC
  +--> ?PR?_COMM_SETTXCWCHARRATE?COMM_ITC
  +--> ?PR?_SD_WRITESINGLEBLOCK?SDCARD_GENERIC
  +--> ?PR?_SD_READSINGLEBLOCK?SDCARD_GENERIC
  +--> ?PR?HASH_WRITEMANIFEST?HASH_MANIFEST
  +--> ?PR?HASH_READMANIFEST?HASH_MANIFEST
  +--> ?PR?WATCHDOG_DISABLE?C8051_WATCHDOG
  +--> ?PR?_SYSTEMINIT_CHIP?OBDH_SYSTEMINIT

?PR?COMM_RXRESET?COMM_IMC                        -----    -----      -----    -----      -----    -----
  +--> ?PR?_COMM_SENDCHARS?COMM_GENERIC

?PR?COMM_TXRESET?COMM_ITC                        -----    -----      -----    -----      -----    -----
  +--> ?PR?_COMM_SENDCHARS?COMM_GENERIC

?PR?_COMM_SETTXBITRATE?COMM_ITC                  -----    -----      -----    -----      -----    -----
  +--> ?PR?_COMM_SENDCHARS?COMM_GENERIC

?PR?_COMM_SETTXOUTPUTMODE?COMM_ITC               -----    -----      -----    -----      -----    -----
  +--> ?PR?_COMM_SENDCHARS?COMM_GENERIC

?PR?_COMM_SETTXCWCHARRATE?COMM_ITC               -----    -----      -----    -----      -----    -----
  +--> ?PR?_COMM_SENDCHARS?COMM_GENERIC

?PR?_SYSTEMINIT_CHIP?OBDH_SYSTEMINIT             -----    -----      -----    -----      -----    -----
BL51 BANKED LINKER/LOCATER V6.22                                                      05/20/2014  11:03:55  PAGE 26


  +--> ?PR?_OSCILLATOR_INIT?C8051_OSCILLATOR
  +--> ?PR?META_INIT?VELOX_META
  +--> ?PR?_SPI0_INIT?C8051_SPI0_SHARED
  +--> ?PR?_SYSTEM_GETCKCON?OBDH_SYSTEMCONFIG
  +--> ?PR?_TIMER0_INIT?OBDH_TIMER
  +--> ?PR?_SYSTEM_GETT1PRESCALER?OBDH_SYSTE...
  +--> ?PR?_UART1TIMER1_INIT?C8051_UART1TIMER1
  +--> ?PR?_TIMER2_INIT?OBDH_TIMER
  +--> ?PR?_UART0TIMER4_INIT?C8051_UART0TIMER4
  +--> ?PR?_ADC0_INIT?C8051_ADC
  +--> ?PR?_SMBUS_INIT?C8051_SMBUS
  +--> ?PR?_SMBUSTIMER3_INIT?C8051_SMBUSTIMER3

?PR?_STATE_SCHEDULER?STATE_SCHEDULER             -----    -----      -----    -----      -----    -----
  +--> ?PR?SCHEDULE_HASNEXT?OBDH_SCHEDULE
  +--> ?PR?_MCCIF_FORMATSET?MCCIF_ACTIVE
  +--> ?PR?_MCCIF_LOCALSET?MCCIF_XDATA
  +--> ?PR?_SCHEDULE_REMOVE?OBDH_SCHEDULE
  +--> ?PR?_SUBSYSTEM_ISAVAILABLE?OBDH_RECON
  +--> ?PR?_STATEUTIL_POKESETXDATA?STATE_UTIL
  +--> ?CO?STATE_SCHEDULER
  +--> ?PR?PRINTF?PRINTF
  +--> ?PR?_STATEUTIL_PEEK?STATE_UTIL

?PR?SCHEDULE_HASNEXT?OBDH_SCHEDULE               -----    -----      -----    -----      -----    -----
  +--> ?PR?SCHEDULE_HOLDSENTRY?OBDH_SCHEDULE
  +--> ?PR?SCHEDULE_BUBBLESORT?OBDH_SCHEDULE

?PR?SCHEDULE_BUBBLESORT?OBDH_SCHEDULE            -----    -----      -----    -----      -----    -----
  +--> ?PR?SCHEDULE_HOLDSENTRY?OBDH_SCHEDULE
  +--> ?PR?SCHEDULE_SIZE?OBDH_SCHEDULE
  +--> ?PR?_SCHEDULE_SWAP?OBDH_SCHEDULE

?PR?_SCHEDULE_REMOVE?OBDH_SCHEDULE               -----    -----      -----    -----      -----    -----
  +--> ?PR?SCHEDULE_SIZE?OBDH_SCHEDULE

?PR?_STATE_DOWNLINK?STATE_DOWNLINK               -----    -----      -----    -----      -----    -----
  +--> ?PR?_SLOWTASK_SINCELAST?VELOX_SLOWTASK
  +--> ?PR?TRXUV_ISAVAILABLE?OBDH_TRXUV
  +--> ?PR?RECON_ISDEBUGPRINTENABLED?OBDH_RECON
  +--> ?PR?_MCCIF_FORMATCONTENT?MCCIF_XDATA
  +--> ?PR?_PRIVATE_DOWNLINK?STATE_DOWNLINK
  +--> ?PR?_PRIVATE_DOWNLINKBLOB?STATE_DOWNLINK
  +--> ?PR?PRIVATE_DOWNLINKNEXTGETFRAME?STAT...
  +--> ?PR?PRIVATE_DOWNLINKNEXTPINFRAME?STAT...
  +--> ?PR?_SLOWTASK_FROMNOW?VELOX_SLOWTASK
  +--> ?PR?_SLOWTASK_ISREADY?VELOX_SLOWTASK
  +--> ?PR?PRIVATE_DOWNLINKBEACON?STATE_DOWN...
  +--> ?PR?_TIMERTASK_SETEXECUTEONCE?VELOX_T...
  +--> ?PR?TRXUV_ISIDLEACTIVE?OBDH_TRXUV
  +--> ?PR?_COMM_SETTXIDLESTATE?COMM_ITC
  +--> ?PR?_TIMERTASK_ISREADY?VELOX_TIMERTASK
  +--> ?PR?_COMM_TXAX25ANDCWGET?COMM_ITC
  +--> ?PR?TRXUV_GETTXRATEFACTOR?OBDH_TRXUV
  +--> ?CO?STATE_DOWNLINK
  +--> ?PR?PRINTF?PRINTF

BL51 BANKED LINKER/LOCATER V6.22                                                      05/20/2014  11:03:55  PAGE 27


?PR?_PRIVATE_DOWNLINK?STATE_DOWNLINK             -----    -----      -----    -----      -----    -----
  +--> ?PR?_MCCIF_GETFRAMELENGTH?MCCIF_SPY
  +--> ?PR?TRXUV_ISAVAILABLE?OBDH_TRXUV
  +--> ?PR?_COMM_TXAX25PUT?COMM_ITC
  +--> ?PR?_RECON_DEBUGPRINT?OBDH_RECON

?PR?_MCCIF_GETFRAMELENGTH?MCCIF_SPY              -----    -----      -----    -----      -----    -----
  +--> ?PR?_MCCIF_GETARGLENGTH?MCCIF_SPY

?PR?_COMM_TXAX25PUT?COMM_ITC                     -----    -----      -----    -----      -----    -----
  +--> ?PR?_COMM_SENDCHARS?COMM_GENERIC

?PR?_PRIVATE_DOWNLINKBLOB?STATE_DOWNLINK         -----    -----      -----    -----      -----    -----
  +--> ?PR?_HASH_GETBLOB?HASH_BLOB
  +--> ?PR?_PRIVATE_DOWNLINK?STATE_DOWNLINK

?PR?_HASH_GETBLOB?HASH_BLOB                      -----    -----      -----    -----      -----    -----
  +--> ?PR?_HASH_ADDRESSBLOB?HASH_BLOB
  +--> ?PR?_SDRED_READ?SDCARD_REDUNDANT

?PR?_HASH_ADDRESSBLOB?HASH_BLOB                  -----    -----      -----    -----      -----    -----
  +--> ?CO?HASH_BLOB

?PR?PRIVATE_DOWNLINKNEXTGETFRAME?STAT...         -----    -----      -----    -----      -----    -----
  +--> ?PR?_HASH_GETFRAME?HASH_FRAME
  +--> ?PR?_PRIVATE_DOWNLINK?STATE_DOWNLINK
  +--> ?PR?PRIVATE_ADVANCEGETFRAMEINDEX?STAT...

?PR?_HASH_GETFRAME?HASH_FRAME                    -----    -----      -----    -----      -----    -----
  +--> ?PR?_HASH_GETADDRESS?HASH_FRAME
  +--> ?PR?_SDRED_READ?SDCARD_REDUNDANT

?PR?PRIVATE_DOWNLINKNEXTPINFRAME?STAT...         -----    -----      -----    -----      -----    -----
  +--> ?PR?_HASH_GETFRAME?HASH_FRAME
  +--> ?PR?_PRIVATE_DOWNLINK?STATE_DOWNLINK
  +--> ?CO?STATE_DOWNLINK
  +--> ?PR?PRINTF?PRINTF

?PR?PRIVATE_DOWNLINKBEACON?STATE_DOWN...         -----    -----      -----    -----      -----    -----
  +--> ?PR?TRXUV_ISAVAILABLE?OBDH_TRXUV
  +--> ?PR?_COMM_SETTXCWCHARRATE?COMM_ITC
  +--> ?PR?_COMM_TXCWPUT?COMM_ITC_CW

?PR?_COMM_TXCWPUT?COMM_ITC_CW                    -----    -----      -----    -----      -----    -----
  +--> ?PR?_COMM_SENDCHARS?COMM_GENERIC

?PR?_COMM_SETTXIDLESTATE?COMM_ITC                -----    -----      -----    -----      -----    -----
  +--> ?PR?_COMM_SENDCHARS?COMM_GENERIC

?PR?_COMM_TXAX25ANDCWGET?COMM_ITC                -----    -----      -----    -----      -----    -----
  +--> ?PR?_COMM_GETCHARS?COMM_GENERIC
  +--> ?PR?_SMBUS_ISRXCOMPLETE?C8051_SMBUS

?PR?_STATE_FERRYCCT?STATE_FERRYCCT               -----    -----      -----    -----      -----    -----
  +--> ?PR?SDCARD_ISAVAILABLE?OBDH_RECON
  +--> ?PR?_STATEUTIL_POKEREQUESTXDATA?STATE...
  +--> ?PR?_STATEUTIL_PEEK?STATE_UTIL
BL51 BANKED LINKER/LOCATER V6.22                                                      05/20/2014  11:03:55  PAGE 28


  +--> ?PR?_HASH_PUTBLOB?HASH_BLOB
  +--> ?PR?_RECON_DEBUGPRINT?OBDH_RECON
  +--> ?PR?_STATEUTIL_POKESETXDATA?STATE_UTIL

?PR?_HASH_PUTBLOB?HASH_BLOB                      -----    -----      -----    -----      -----    -----
  +--> ?PR?_MCCIF_GETBLOBINDEX?MCCIF_SPY
  +--> ?PR?_MCCIF_GETBLOBTYPE?MCCIF_SPY
  +--> ?PR?_MCCIF_GETBLOBCOUNT?MCCIF_SPY
  +--> ?PR?_HASH_ADDRESSBLOB?HASH_BLOB
  +--> ?PR?_SDRED_WRITE?SDCARD_REDUNDANT

?PR?_STATE_FERRYXBEE?STATE_FERRYXBEE             -----    -----      -----    -----      -----    -----
  +--> ?PR?_STATEUTIL_POKEREQUESTXDATA?STATE...
  +--> ?PR?_STATEUTIL_PEEK?STATE_UTIL
  +--> ?PR?_HASH_PUTBLOB?HASH_BLOB
  +--> ?PR?_RECON_DEBUGPRINT?OBDH_RECON
  +--> ?CO?STATE_FERRYXBEE
  +--> ?PR?PRINTF?PRINTF
  +--> ?PR?_STATEUTIL_POKESETXDATA?STATE_UTIL

?PR?_STATE_FERRYGPS?STATE_FERRYGPS               -----    -----      -----    -----      -----    -----
  +--> ?PR?SDCARD_ISAVAILABLE?OBDH_RECON
  +--> ?PR?_SUBSYSTEM_ISAVAILABLE?OBDH_RECON
  +--> ?PR?_STATEUTIL_POKEREQUESTXDATA?STATE...
  +--> ?PR?_STATEUTIL_PEEK?STATE_UTIL
  +--> ?PR?_HASH_PUTBLOB?HASH_BLOB
  +--> ?PR?_RECON_DEBUGPRINT?OBDH_RECON
  +--> ?PR?_STATEUTIL_POKESETXDATA?STATE_UTIL

?PR?_STATE_RTCSYNC?STATE_RTCSYNC                 -----    -----      -----    -----      -----    -----
  +--> ?PR?UPTIME_ISTAITIMEVALID?VELOX_UPTIME
  +--> ?PR?_RTC_FROMTAI?VELOX_RTC_SUPPORT
  +--> ?PR?_RTC_SETRAWTIME?RTC_GENERIC
  +--> ?PR?RTC_OBTAINSTAMPPUT?RTC_GENERIC
  +--> ?PR?_TIMERTASK_SETEXECUTEONCE?VELOX_T...
  +--> ?PR?_TIMERTASK_ISREADY?VELOX_TIMERTASK
  +--> ?PR?_RTC_OBTAINSTAMPGET?RTC_GENERIC
  +--> ?PR?_RTC_TOTAI?VELOX_RTC_SUPPORT

?PR?_RTC_FROMTAI?VELOX_RTC_SUPPORT               -----    -----      -----    -----      -----    -----
  +--> ?PR?_CALENDAR_FROMTAI?VELOX_CALENDAR
  +--> ?PR?_RTC_FROMCALENDAR?VELOX_RTC_SUPPORT

?PR?_CALENDAR_FROMTAI?VELOX_CALENDAR             -----    -----      -----    -----      -----    -----
  +--> ?PR?_CALENDAR_INITTOTAI0?VELOX_CALENDAR
  +--> ?PR?_CALENDAR_INCREMENTDAY?VELOX_CALE...
  +--> ?PR?_CALENDAR_SETFROMDAYS?VELOX_CALENDAR
  +--> ?PR?_CALENDAR_INCREMENTSECONDS?VELOX_...

?PR?_CALENDAR_INITTOTAI0?VELOX_CALENDAR          -----    -----      -----    -----      -----    -----
  +--> ?CO?VELOX_CALENDAR

?PR?_CALENDAR_INCREMENTDAY?VELOX_CALE...         -----    -----      -----    -----      -----    -----
  +--> ?PR?_CALENDAR_DAYSOFMONTH?VELOX_CALENDAR

?PR?_CALENDAR_DAYSOFMONTH?VELOX_CALENDAR         -----    -----      -----    -----      -----    -----
  +--> ?PR?_CALENDAR_ISYEARWITH365DAYS?VELOX...
BL51 BANKED LINKER/LOCATER V6.22                                                      05/20/2014  11:03:55  PAGE 29



?PR?_CALENDAR_SETFROMDAYS?VELOX_CALENDAR         -----    -----      -----    -----      -----    -----
  +--> ?PR?_CALENDAR_ISYEARWITH365DAYS?VELOX...
  +--> ?PR?_CALENDAR_DAYSOFMONTH?VELOX_CALENDAR

?PR?_CALENDAR_INCREMENTSECONDS?VELOX_...         -----    -----      -----    -----      -----    -----
  +--> ?PR?_CALENDAR_INCREMENTDAY?VELOX_CALE...

?PR?_RTC_SETRAWTIME?RTC_GENERIC                  -----    -----      -----    -----      -----    -----
  +--> ?PR?_SMBUS_SETTXBUFFER?C8051_SMBUS
  +--> ?PR?_SMBUS_START?C8051_SMBUS
  +--> ?PR?_DELAY_BLOCKMS?VELOX_DELAY

?PR?RTC_OBTAINSTAMPPUT?RTC_GENERIC               -----    -----      -----    -----      -----    -----
  +--> ?PR?_SMBUS_SETRXBUFFER?C8051_SMBUS
  +--> ?PR?_SMBUS_START?C8051_SMBUS

?PR?_RTC_OBTAINSTAMPGET?RTC_GENERIC              -----    -----      -----    -----      -----    -----
  +--> ?PR?_SMBUS_ISRXCOMPLETE?C8051_SMBUS
  +--> ?PR?_RTC_ISCONSISTENT?RTC_GENERIC

?PR?_RTC_TOTAI?VELOX_RTC_SUPPORT                 -----    -----      -----    -----      -----    -----
  +--> ?PR?_RTC_TOCALENDAR?VELOX_RTC_SUPPORT
  +--> ?PR?_CALENDAR_TOTAI?VELOX_CALENDAR

?PR?_RTC_TOCALENDAR?VELOX_RTC_SUPPORT            -----    -----      -----    -----      -----    -----
  +--> ?CO?VELOX_CALENDAR

?PR?_CALENDAR_TOTAI?VELOX_CALENDAR               -----    -----      -----    -----      -----    -----
  +--> ?CO?VELOX_CALENDAR
  +--> ?PR?_CALENDAR_DAYSSINCETAIUNTIL?VELOX...

?PR?_CALENDAR_DAYSSINCETAIUNTIL?VELOX...         -----    -----      -----    -----      -----    -----
  +--> ?PR?_CALENDAR_ISYEARWITH365DAYS?VELOX...
  +--> ?PR?_CALENDAR_DAYSOFMONTH?VELOX_CALENDAR

?PR?_STATE_POWERCQT?STATE_POWERCQT               -----    -----      -----    -----      -----    -----
  +--> ?PR?_STATEUTIL_POKESETXDATA?STATE_UTIL
  +--> ?PR?_STATEUTIL_PEEK?STATE_UTIL

?PR?DEBUG_LOOPDOWNLINK?OBDH_DEBUG                -----    -----      -----    -----      -----    -----
  +--> ?PR?_TIMERTASK_ISREADY?VELOX_TIMERTASK
  +--> ?PR?RECON_ISDEBUGPRINTENABLED?OBDH_RECON
  +--> ?PR?_MCCIF_LOCALSEND?MCCIF_LOCAL

?PR?_MCCIF_LOCALSEND?MCCIF_LOCAL                 -----    -----      -----    -----      -----    -----
  +--> ?PR?_MCCIF_FORMATCONTENT?MCCIF_XDATA
  +--> ?PR?_UART_PUTCHARS?VELOX_UART

?PR?CQT_HANDLER?OBDH_CQT                         -----    -----      -----    -----      -----    -----
  +--> ?PR?_TIMERTASK_SETEXECUTEONCE?VELOX_T...
  +--> ?PR?_TIMERTASK_ISREADY?VELOX_TIMERTASK
  +--> ?PR?CQT_STARTUP?OBDH_CQT
  +--> ?PR?CQT_CLEARRXBUFFER?OBDH_CQT
  +--> ?PR?_UART_POLLCHARS?VELOX_UART
  +--> ?PR?CQT_PROCESSFRAME?OBDH_CQT
  +--> ?PR?_CQT_SENDCOMMAND?OBDH_CQT
BL51 BANKED LINKER/LOCATER V6.22                                                      05/20/2014  11:03:55  PAGE 30


  +--> ?PR?_RUNTIME_HASEXPIRED?VELOX_RUNTIME

?PR?CQT_STARTUP?OBDH_CQT                         -----    -----      -----    -----      -----    -----
  +--> ?PR?_RUNTIME_FROMNOW?VELOX_RUNTIME

?PR?CQT_CLEARRXBUFFER?OBDH_CQT                   -----    -----      -----    -----      -----    -----
  +--> ?PR?_UART_POLLCHARS?VELOX_UART
  +--> ?PR?_UART_ADVANCE?VELOX_UART

?PR?CQT_PROCESSFRAME?OBDH_CQT                    -----    -----      -----    -----      -----    -----
  +--> ?PR?_UART_ADVANCE?VELOX_UART
  +--> ?PR?CQT_CLEARRXBUFFER?OBDH_CQT
  +--> ?PR?_CHECKSUM_ISVALID?VELOX_CHECKSUM
  +--> ?PR?_MCCIF_FORMATCONTENT?MCCIF_XDATA
  +--> ?PR?_HASH_PUTBLOB?HASH_BLOB
  +--> ?PR?_RECON_DEBUGPRINT?OBDH_RECON

?PR?_CQT_SENDCOMMAND?OBDH_CQT                    -----    -----      -----    -----      -----    -----
  +--> ?PR?_UART_PUTCHARS?VELOX_UART



SYMBOL TABLE OF MODULE:  obdh (C8051_ADC)

  VALUE           TYPE          NAME
  ----------------------------------

  -------         MODULE        C8051_ADC
  C:0000H         SYMBOL        _ICE_DUMMY_
  C:9BF6H         PUBLIC        _ADC0_getAverage_mV
  D:00BCH         PUBLIC        ADC0CF
  D:00E8H         PUBLIC        ADC0CN
  D:0084H         PUBLIC        SFRPAGE
  C:C913H         PUBLIC        _ADC0_readShort
  C:8F2FH         PUBLIC        _ADC0_init
  D:00D1H         PUBLIC        REF0CN
  D:00BAH         PUBLIC        AMX0CF
  B:00E8H.5       PUBLIC        AD0INT
  D:00BBH         PUBLIC        AMX0SL
  X:0159H         PUBLIC        adc0_to_mV
  B:00E8H.7       PUBLIC        AD0EN
  X:015DH         PUBLIC        adc0_delay
  C:D703H         PUBLIC        _ADC0_setDelayUs
  D:00BEH         PUBLIC        ADC0
  B:00E8H.4       PUBLIC        AD0BUSY
  -------         PROC          _ADC0_SETDELAYUS
  X:0707H         SYMBOL        delay
  C:D703H         LINE#         16
  C:D708H         LINE#         17
  C:D712H         LINE#         18
  -------         ENDPROC       _ADC0_SETDELAYUS
  -------         PROC          _ADC0_INIT
  X:14B1H         SYMBOL        sys_clk
  X:14B5H         SYMBOL        vref_mv
  -------         DO            
  X:14B7H         SYMBOL        SFRPAGE_SAVE
  -------         ENDDO         
BL51 BANKED LINKER/LOCATER V6.22                                                      05/20/2014  11:03:55  PAGE 31


  C:8F2FH         LINE#         23
  C:8F35H         LINE#         24
  C:8F3BH         LINE#         25
  C:8F3EH         LINE#         27
  C:8F41H         LINE#         29
  C:8F44H         LINE#         31
  C:8F47H         LINE#         33
  C:8F4AH         LINE#         35
  C:8F66H         LINE#         36
  C:8FA3H         LINE#         38
  C:8FDEH         LINE#         40
  C:8FE0H         LINE#         41
  C:8FE7H         LINE#         42
  C:9004H         LINE#         43
  C:9009H         LINE#         44
  -------         ENDPROC       _ADC0_INIT
  -------         PROC          _ADC0_READSHORT
  X:0060H         SYMBOL        channel
  -------         DO            
  X:0061H         SYMBOL        SFRPAGE_SAVE
  X:0062H         SYMBOL        value
  -------         ENDDO         
  C:C913H         LINE#         50
  C:C918H         LINE#         51
  C:C91EH         LINE#         53
  C:C921H         LINE#         54
  C:C928H         LINE#         56
  C:C932H         LINE#         57
  C:C934H         LINE#         58
  C:C936H         LINE#         59
  C:C939H         LINE#         60
  C:C939H         LINE#         61
  C:C943H         LINE#         62
  C:C945H         LINE#         63
  C:C94CH         LINE#         64
  C:C954H         LINE#         65
  -------         ENDPROC       _ADC0_READSHORT
  -------         PROC          _ADC0_GETAVERAGE_MV
  X:14B8H         SYMBOL        channel
  X:14B9H         SYMBOL        samples
  -------         DO            
  X:14BAH         SYMBOL        count
  X:14BBH         SYMBOL        sum
  -------         ENDDO         
  C:9BF6H         LINE#         71
  C:9C00H         LINE#         73
  C:9C0AH         LINE#         74
  C:9C24H         LINE#         75
  C:9C6EH         LINE#         76
  C:9CB5H         LINE#         77
  -------         ENDPROC       _ADC0_GETAVERAGE_MV
  -------         ENDMOD        C8051_ADC

  -------         MODULE        C8051_DELAY
  C:0000H         SYMBOL        _ICE_DUMMY_
  C:A284H         PUBLIC        _Delay_us
  -------         PROC          _DELAY_US
BL51 BANKED LINKER/LOCATER V6.22                                                      05/20/2014  11:03:55  PAGE 32


  X:066CH         SYMBOL        l_us_us_count
  -------         DO            
  X:066EH         SYMBOL        factor
  -------         ENDDO         
  C:A284H         LINE#         18
  C:A28CH         LINE#         19
  C:A2A4H         LINE#         20
  C:A2DFH         LINE#         21
  C:A319H         LINE#         22
  C:A325H         LINE#         23
  C:A335H         LINE#         24
  -------         ENDPROC       _DELAY_US
  -------         ENDMOD        C8051_DELAY

  -------         MODULE        C8051_MCUTEMP
  C:0000H         SYMBOL        _ICE_DUMMY_
  C:CFAFH         PUBLIC        Mcutemp_inCelsius
  -------         PROC          MCUTEMP_INCELSIUS
  -------         DO            
  X:06A0H         SYMBOL        adc_mV
  -------         ENDDO         
  C:CFAFH         LINE#         6
  C:CFAFH         LINE#         8
  C:CFBCH         LINE#         9
  C:CFE0H         LINE#         10
  -------         ENDPROC       MCUTEMP_INCELSIUS
  -------         ENDMOD        C8051_MCUTEMP

  -------         MODULE        C8051_OSCILLATOR
  C:0000H         SYMBOL        _ICE_DUMMY_
  C:CB4EH         PUBLIC        Oscillator_resetCauseCheck
  D:008FH         PUBLIC        PLL0FLT
  C:6147H         PUBLIC        _Oscillator_setXFCN
  D:008EH         PUBLIC        PLL0MUL
  D:0084H         PUBLIC        SFRPAGE
  C:8D71H         PUBLIC        _Oscillator_setPllDam
  C:7720H         PUBLIC        _Oscillator_setSysclkFromPll
  D:00A1H         PUBLIC        CCH0CN
  C:37FAH         PUBLIC        _Oscillator_prelimPllSetting
  C:B042H         PUBLIC        _Int_Oscillator_Init
  D:0089H         PUBLIC        PLL0CN
  C:89BEH         PUBLIC        _Oscillator_init
  C:D723H         PUBLIC        Oscillator_getSystemClock
  D:0097H         PUBLIC        CLKSEL
  D:008AH         PUBLIC        OSCICN
  C:D6A5H         SYMBOL        _?ix1000
  C:D6AFH         SYMBOL        _?ix1001
  X:15C4H         PUBLIC        osc_sysclk
  D:008CH         PUBLIC        OSCXCN
  C:7CEDH         PUBLIC        _Oscillator_attemptExtInit
  D:00EFH         PUBLIC        RSTSRC
  X:15C8H         PUBLIC        oscillator_type
  C:D775H         PUBLIC        Oscillator_getType
  D:00B7H         PUBLIC        FLSCL
  D:008DH         PUBLIC        PLL0DIV
  -------         PROC          _OSCILLATOR_SETXFCN
  X:14BFH         SYMBOL        xfcn
BL51 BANKED LINKER/LOCATER V6.22                                                      05/20/2014  11:03:55  PAGE 33


  X:14C2H         SYMBOL        osc_speed
  C:6147H         LINE#         33
  C:6158H         LINE#         34
  C:6174H         LINE#         35
  C:6186H         LINE#         36
  C:61A2H         LINE#         37
  C:61B5H         LINE#         38
  C:61D1H         LINE#         39
  C:61E4H         LINE#         40
  C:6200H         LINE#         41
  C:6213H         LINE#         42
  C:622FH         LINE#         43
  C:6242H         LINE#         44
  C:625EH         LINE#         45
  C:6270H         LINE#         46
  C:628CH         LINE#         47
  C:629EH         LINE#         48
  C:62BAH         LINE#         49
  C:62CCH         LINE#         51
  C:62CFH         LINE#         52
  C:62D1H         LINE#         53
  -------         ENDPROC       _OSCILLATOR_SETXFCN
  -------         PROC          _OSCILLATOR_SETPLLDAM
  X:0686H         SYMBOL        osc_type
  X:0687H         SYMBOL        osc_gear
  X:0688H         SYMBOL        pll
  -------         DO            
  X:068BH         SYMBOL        divider_set
  X:0695H         SYMBOL        multiplier_set
  X:069FH         SYMBOL        choice_set
  -------         ENDDO         
  C:8D71H         LINE#         55
  C:8D86H         LINE#         56
  C:8DABH         LINE#         57
  C:8DD0H         LINE#         60
  C:8DDBH         LINE#         61
  C:8DDEH         LINE#         63
  C:8DFAH         LINE#         64
  C:8E25H         LINE#         65
  C:8E50H         LINE#         67
  C:8E52H         LINE#         68
  -------         ENDPROC       _OSCILLATOR_SETPLLDAM
  -------         PROC          _OSCILLATOR_PRELIMPLLSETTING
  X:1423H         SYMBOL        osc_type
  X:1424H         SYMBOL        osc_gear
  X:1425H         SYMBOL        pll
  -------         DO            
  X:1428H         SYMBOL        osc_speed
  -------         ENDDO         
  C:37FAH         LINE#         70
  C:380FH         LINE#         73
  C:382DH         LINE#         74
  C:384DH         LINE#         75
  C:388DH         LINE#         76
  C:38D1H         LINE#         78
  C:3959H         LINE#         79
  C:395CH         LINE#         81
BL51 BANKED LINKER/LOCATER V6.22                                                      05/20/2014  11:03:55  PAGE 34


  C:397EH         LINE#         82
  C:3997H         LINE#         83
  C:39B9H         LINE#         84
  C:39D1H         LINE#         85
  C:39F3H         LINE#         86
  C:3A0BH         LINE#         88
  C:3A21H         LINE#         90
  C:3A43H         LINE#         91
  C:3A5CH         LINE#         92
  C:3A7EH         LINE#         93
  C:3A96H         LINE#         94
  C:3AB8H         LINE#         95
  C:3AD0H         LINE#         97
  C:3AE5H         LINE#         99
  C:3B28H         LINE#         109
  C:3B2AH         LINE#         110
  C:3B2DH         LINE#         112
  C:3B2FH         LINE#         113
  -------         ENDPROC       _OSCILLATOR_PRELIMPLLSETTING
  -------         PROC          OSCILLATOR_RESETCAUSECHECK
  -------         DO            
  X:04DFH         SYMBOL        SFRPAGE_SAVE
  X:04E0H         SYMBOL        l_uc_reset_source
  X:04E1H         SYMBOL        osc_type
  -------         ENDDO         
  C:CB4EH         LINE#         120
  C:CB4EH         LINE#         121
  C:CB54H         LINE#         124
  C:CB57H         LINE#         128
  C:CB5AH         LINE#         133
  C:CB5FH         LINE#         136
  C:CB65H         LINE#         139
  C:CB6EH         LINE#         141
  C:CB77H         LINE#         143
  C:CB7DH         LINE#         144
  C:CB7DH         LINE#         145
  C:CB7DH         LINE#         146
  C:CB84H         LINE#         147
  C:CB89H         LINE#         148
  -------         ENDPROC       OSCILLATOR_RESETCAUSECHECK
  -------         PROC          _OSCILLATOR_SETSYSCLKFROMPLL
  X:1459H         SYMBOL        osc_type
  X:145AH         SYMBOL        osc_gear
  X:145BH         SYMBOL        pll
  -------         DO            
  X:145EH         SYMBOL        SFRPAGE_SAVE
  X:145FH         SYMBOL        count
  -------         ENDDO         
  C:7720H         LINE#         150
  C:7735H         LINE#         151
  C:773BH         LINE#         154
  C:7756H         LINE#         155
  C:7759H         LINE#         157
  C:775CH         LINE#         160
  C:776CH         LINE#         163
  C:7781H         LINE#         165
  C:7789H         LINE#         167
BL51 BANKED LINKER/LOCATER V6.22                                                      05/20/2014  11:03:55  PAGE 35


  C:778CH         LINE#         169
  C:778FH         LINE#         171
  C:77A0H         LINE#         173
  C:77A3H         LINE#         175
  C:77ABH         LINE#         176
  C:77AEH         LINE#         179
  C:77B1H         LINE#         182
  C:77C8H         LINE#         185
  C:77DFH         LINE#         186
  C:77F7H         LINE#         189
  C:780EH         LINE#         192
  C:7839H         LINE#         196
  C:783CH         LINE#         199
  C:7841H         LINE#         203
  C:7844H         LINE#         205
  C:784BH         LINE#         206
  C:784DH         LINE#         207
  -------         ENDPROC       _OSCILLATOR_SETSYSCLKFROMPLL
  -------         PROC          _OSCILLATOR_ATTEMPTEXTINIT
  X:12FDH         SYMBOL        osc_gear
  X:1300H         SYMBOL        pll
  -------         DO            
  X:1303H         SYMBOL        SFRPAGE_SAVE
  X:1304H         SYMBOL        isStable
  X:1305H         SYMBOL        count
  X:1307H         SYMBOL        xfcn
  -------         ENDDO         
  C:7CEDH         LINE#         213
  C:7CF8H         LINE#         214
  C:7CFEH         LINE#         219
  C:7D27H         LINE#         220
  C:7D2AH         LINE#         222
  C:7D2DH         LINE#         225
  C:7D30H         LINE#         226
  C:7D38H         LINE#         229
  C:7D51H         LINE#         230
  C:7D52H         LINE#         231
  C:7D62H         LINE#         234
  C:7D7BH         LINE#         235
  C:7D85H         LINE#         236
  C:7D8DH         LINE#         237
  C:7D8DH         LINE#         238
  C:7D9DH         LINE#         240
  C:7DA5H         LINE#         241
  C:7DBAH         LINE#         242
  C:7DDCH         LINE#         243
  C:7DECH         LINE#         244
  C:7DEFH         LINE#         245
  C:7DEFH         LINE#         246
  C:7DF1H         LINE#         247
  C:7DF4H         LINE#         248
  C:7DF6H         LINE#         249
  C:7DFDH         LINE#         250
  C:7E00H         LINE#         251
  C:7E00H         LINE#         253
  C:7E07H         LINE#         254
  C:7E09H         LINE#         255
BL51 BANKED LINKER/LOCATER V6.22                                                      05/20/2014  11:03:55  PAGE 36


  -------         ENDPROC       _OSCILLATOR_ATTEMPTEXTINIT
  -------         PROC          _INT_OSCILLATOR_INIT
  X:14C6H         SYMBOL        osc_gear
  X:14C9H         SYMBOL        pll
  -------         DO            
  X:14CCH         SYMBOL        SFRPAGE_SAVE
  -------         ENDDO         
  C:B042H         LINE#         260
  C:B04DH         LINE#         261
  C:B053H         LINE#         262
  C:B056H         LINE#         264
  C:B06BH         LINE#         266
  C:B06EH         LINE#         267
  C:B090H         LINE#         268
  C:B0A0H         LINE#         269
  C:B0A3H         LINE#         270
  C:B0A6H         LINE#         271
  C:B0A6H         LINE#         272
  C:B0A8H         LINE#         273
  C:B0BCH         LINE#         274
  C:B0BFH         LINE#         275
  C:B0BFH         LINE#         277
  C:B0C6H         LINE#         278
  -------         ENDPROC       _INT_OSCILLATOR_INIT
  -------         PROC          _OSCILLATOR_INIT
  X:1270H         SYMBOL        osc_gear
  -------         DO            
  X:1271H         SYMBOL        pll
  -------         ENDDO         
  C:89BEH         LINE#         283
  C:89C3H         LINE#         285
  C:89CEH         LINE#         286
  C:89D4H         LINE#         287
  C:89DCH         LINE#         288
  C:89E4H         LINE#         289
  C:8A0FH         LINE#         291
  C:8A18H         LINE#         292
  C:8A3EH         LINE#         294
  C:8A49H         LINE#         295
  C:8A5EH         LINE#         296
  C:8A6FH         LINE#         297
  C:8A7AH         LINE#         299
  C:8AACH         LINE#         300
  -------         ENDPROC       _OSCILLATOR_INIT
  -------         PROC          OSCILLATOR_GETTYPE
  C:D775H         LINE#         304
  C:D775H         LINE#         305
  C:D77AH         LINE#         306
  -------         ENDPROC       OSCILLATOR_GETTYPE
  -------         PROC          OSCILLATOR_GETSYSTEMCLOCK
  C:D723H         LINE#         310
  C:D723H         LINE#         311
  C:D731H         LINE#         312
  -------         ENDPROC       OSCILLATOR_GETSYSTEMCLOCK
  -------         ENDMOD        C8051_OSCILLATOR

  -------         MODULE        C8051_SMBUS
BL51 BANKED LINKER/LOCATER V6.22                                                      05/20/2014  11:03:55  PAGE 37


  C:0000H         SYMBOL        _ICE_DUMMY_
  D:0080H         PUBLIC        P0
  X:1188H         PUBLIC        SMBus_txLength
  B:00C0H.2       PUBLIC        AA
  C:C769H         PUBLIC        _SMBus_getStatusCount
  D:00E6H         PUBLIC        EIE1
  D:0084H         PUBLIC        SFRPAGE
  C:C955H         PUBLIC        _SMBus_isRxComplete
  C:346EH         PUBLIC        SMBus_ISR
  B:00C0H.3       PUBLIC        SI
  X:118AH         PUBLIC        SMBus_rxCount
  C:C6CBH         PUBLIC        _SMBus_setRxBuffer
  D:00C0H         PUBLIC        SMB0CN
  X:118CH         PUBLIC        SMBus_txCount
  X:118EH         PUBLIC        SMBus_rxLengthMax
  C:C71AH         PUBLIC        _SMBus_setTxBuffer
  D:00CFH         PUBLIC        SMB0CR
  X:1190H         PUBLIC        SMBus_target
  X:1191H         PUBLIC        SMBus_StatusCount
  X:11ACH         PUBLIC        SMBus_rxIsDone
  C:BAF8H         PUBLIC        _SMBus_start
  C:A066H         PUBLIC        _SMBus_init
  B:00C0H.5       PUBLIC        STA
  D:00C3H         PUBLIC        SMB0ADR
  D:00C2H         PUBLIC        SMB0DAT
  X:11ADH         PUBLIC        SMBus_MT_retryCount
  X:11AEH         PUBLIC        SMBus_rxBuffer
  B:00C0H.4       PUBLIC        STO
  X:11B1H         PUBLIC        SMBus_txBuffer
  D:00C1H         PUBLIC        SMB0STA
  -------         PROC          _SMBUS_SETRXBUFFER
  X:1552H         SYMBOL        buffer
  X:1555H         SYMBOL        length
  -------         DO            
  X:1557H         SYMBOL        EIE1_SAVE
  -------         ENDDO         
  C:C6CBH         LINE#         32
  C:C6DEH         LINE#         33
  C:C6E8H         LINE#         34
  C:C6EBH         LINE#         35
  C:C701H         LINE#         36
  C:C711H         LINE#         37
  C:C719H         LINE#         38
  -------         ENDPROC       _SMBUS_SETRXBUFFER
  -------         PROC          _SMBUS_ISRXCOMPLETE
  X:163CH         SYMBOL        length
  -------         DO            
  X:163FH         SYMBOL        status
  -------         ENDDO         
  C:C955H         LINE#         40
  C:C960H         LINE#         42
  C:C96AH         LINE#         43
  C:C972H         LINE#         44
  C:C977H         LINE#         45
  C:C990H         LINE#         46
  C:C990H         LINE#         47
  C:C995H         LINE#         48
BL51 BANKED LINKER/LOCATER V6.22                                                      05/20/2014  11:03:55  PAGE 38


  -------         ENDPROC       _SMBUS_ISRXCOMPLETE
  -------         PROC          _SMBUS_SETTXBUFFER
  X:1558H         SYMBOL        buffer
  X:155BH         SYMBOL        length
  -------         DO            
  X:155DH         SYMBOL        EIE1_SAVE
  -------         ENDDO         
  C:C71AH         LINE#         50
  C:C72DH         LINE#         51
  C:C737H         LINE#         52
  C:C73AH         LINE#         53
  C:C750H         LINE#         54
  C:C760H         LINE#         55
  C:C768H         LINE#         56
  -------         ENDPROC       _SMBUS_SETTXBUFFER
  -------         PROC          _SMBUS_START
  X:1640H         SYMBOL        mode
  X:1641H         SYMBOL        target
  -------         DO            
  X:1642H         SYMBOL        SFRPAGE_SAVE
  X:1643H         SYMBOL        EIE1_SAVE
  -------         ENDDO         
  C:BAF8H         LINE#         60
  C:BB02H         LINE#         63
  C:BB15H         LINE#         64
  C:BB15H         LINE#         65
  C:BB1AH         LINE#         66
  C:BB1CH         LINE#         67
  C:BB1CH         LINE#         68
  C:BB21H         LINE#         69
  C:BB23H         LINE#         70
  C:BB24H         LINE#         72
  C:BB24H         LINE#         74
  C:BB2EH         LINE#         75
  C:BB31H         LINE#         76
  C:BB43H         LINE#         77
  C:BB4BH         LINE#         79
  C:BB51H         LINE#         80
  C:BB54H         LINE#         81
  C:BB56H         LINE#         82
  C:BB5DH         LINE#         83
  -------         ENDPROC       _SMBUS_START
  -------         PROC          _SMBUS_GETSTATUSCOUNT
  X:1644H         SYMBOL        buffer
  -------         DO            
  X:1647H         SYMBOL        EIE1_SAVE
  -------         ENDDO         
  C:C769H         LINE#         86
  C:C774H         LINE#         87
  C:C77EH         LINE#         88
  C:C781H         LINE#         89
  C:C7ABH         LINE#         90
  C:C7B3H         LINE#         91
  -------         ENDPROC       _SMBUS_GETSTATUSCOUNT
  -------         PROC          _SMBUS_INIT
  X:1397H         SYMBOL        address
  X:1398H         SYMBOL        sys_clk
BL51 BANKED LINKER/LOCATER V6.22                                                      05/20/2014  11:03:55  PAGE 39


  -------         DO            
  X:139CH         SYMBOL        SFRPAGE_SAVE
  X:139DH         SYMBOL        smb_freq
  -------         ENDDO         
  C:A066H         LINE#         93
  C:A06BH         LINE#         94
  C:A071H         LINE#         95
  C:A0A5H         LINE#         96
  C:A0A8H         LINE#         97
  C:A0ABH         LINE#         98
  C:A0F9H         LINE#         99
  C:A100H         LINE#         100
  C:A103H         LINE#         101
  C:A106H         LINE#         102
  C:A10DH         LINE#         103
  C:A11CH         LINE#         104
  -------         ENDPROC       _SMBUS_INIT
  -------         PROC          SMBUS_ISR
  -------         DO            
  X:16EFH         SYMBOL        value
  -------         ENDDO         
  C:346EH         LINE#         106
  C:3489H         LINE#         109
  C:349AH         LINE#         110
  C:34A7H         LINE#         111
  C:34BEH         LINE#         113
  C:351CH         LINE#         118
  C:351CH         LINE#         119
  C:351CH         LINE#         120
  C:3523H         LINE#         121
  C:352BH         LINE#         122
  C:3533H         LINE#         123
  C:3535H         LINE#         124
  C:3538H         LINE#         127
  C:3538H         LINE#         128
  C:3555H         LINE#         129
  C:3563H         LINE#         130
  C:3566H         LINE#         133
  C:3566H         LINE#         135
  C:3573H         LINE#         136
  C:3575H         LINE#         137
  C:357BH         LINE#         138
  C:357EH         LINE#         139
  C:3580H         LINE#         140
  C:3585H         LINE#         141
  C:3585H         LINE#         142
  C:3588H         LINE#         145
  C:3588H         LINE#         147
  C:35A5H         LINE#         148
  C:35C2H         LINE#         149
  C:35D0H         LINE#         150
  C:35D3H         LINE#         151
  C:35D5H         LINE#         152
  C:35D8H         LINE#         155
  C:35D8H         LINE#         156
  C:35E5H         LINE#         157
  C:35E7H         LINE#         158
BL51 BANKED LINKER/LOCATER V6.22                                                      05/20/2014  11:03:55  PAGE 40


  C:35EDH         LINE#         159
  C:35F0H         LINE#         160
  C:35F2H         LINE#         161
  C:35F7H         LINE#         162
  C:35F7H         LINE#         163
  C:35FAH         LINE#         166
  C:35FAH         LINE#         168
  C:35FDH         LINE#         173
  C:35FDH         LINE#         174
  C:3628H         LINE#         175
  C:362BH         LINE#         178
  C:362BH         LINE#         179
  C:362DH         LINE#         181
  C:3630H         LINE#         184
  C:3630H         LINE#         185
  C:364CH         LINE#         186
  C:365AH         LINE#         187
  C:3685H         LINE#         188
  C:3688H         LINE#         191
  C:3688H         LINE#         192
  C:36A4H         LINE#         193
  C:36B2H         LINE#         194
  C:36B8H         LINE#         195
  C:36BAH         LINE#         196
  C:36BCH         LINE#         197
  C:36BFH         LINE#         203
  C:36BFH         LINE#         204
  C:36BFH         LINE#         205
  C:36C4H         LINE#         206
  C:36CCH         LINE#         207
  C:36CFH         LINE#         211
  C:36CFH         LINE#         212
  C:36CFH         LINE#         214
  C:36D1H         LINE#         215
  C:36D4H         LINE#         219
  C:36D4H         LINE#         220
  C:36D4H         LINE#         221
  C:36DAH         LINE#         222
  C:36F7H         LINE#         223
  C:3717H         LINE#         224
  C:3725H         LINE#         225
  C:3727H         LINE#         226
  C:372AH         LINE#         230
  C:372AH         LINE#         231
  C:372AH         LINE#         234
  C:372CH         LINE#         235
  C:372FH         LINE#         238
  C:372FH         LINE#         239
  C:3735H         LINE#         240
  C:3738H         LINE#         246
  C:3738H         LINE#         247
  C:3738H         LINE#         249
  C:3755H         LINE#         250
  C:3772H         LINE#         251
  C:3780H         LINE#         252
  C:3782H         LINE#         254
  C:3785H         LINE#         255
BL51 BANKED LINKER/LOCATER V6.22                                                      05/20/2014  11:03:55  PAGE 41


  C:3785H         LINE#         256
  C:3787H         LINE#         259
  C:3787H         LINE#         261
  C:3789H         LINE#         262
  C:378BH         LINE#         265
  C:378BH         LINE#         267
  C:37C9H         LINE#         268
  C:37CBH         LINE#         271
  C:37CBH         LINE#         273
  C:37CDH         LINE#         277
  C:37CDH         LINE#         278
  C:37CDH         LINE#         279
  C:37CFH         LINE#         280
  C:37D1H         LINE#         283
  C:37D1H         LINE#         284
  C:37D3H         LINE#         286
  C:37D3H         LINE#         288
  C:37D6H         LINE#         289
  C:37D9H         LINE#         290
  C:37DBH         LINE#         291
  C:37DDH         LINE#         292
  C:37DFH         LINE#         293
  C:37DFH         LINE#         294
  C:37DFH         LINE#         295
  C:37E1H         LINE#         296
  -------         ENDPROC       SMBUS_ISR
  -------         ENDMOD        C8051_SMBUS

  -------         MODULE        C8051_SMBUSSPY
  C:0000H         SYMBOL        _ICE_DUMMY_
  D:0084H         PUBLIC        SFRPAGE
  D:00C3H         PUBLIC        SMB0ADR
  C:D2EFH         PUBLIC        _SMBus_setGeneralReceiver
  -------         PROC          _SMBUS_SETGENERALRECEIVER
  X:16BDH         SYMBOL        enable
  -------         DO            
  X:16BEH         SYMBOL        SFRPAGE_SAVE
  -------         ENDDO         
  C:D2EFH         LINE#         5
  C:D2F4H         LINE#         6
  C:D2FAH         LINE#         7
  C:D2FDH         LINE#         8
  C:D305H         LINE#         9
  C:D30AH         LINE#         11
  C:D30DH         LINE#         12
  C:D314H         LINE#         13
  -------         ENDPROC       _SMBUS_SETGENERALRECEIVER
  -------         ENDMOD        C8051_SMBUSSPY

  -------         MODULE        C8051_SMBUSTIMER3
  C:0000H         SYMBOL        _ICE_DUMMY_
  D:00E7H         PUBLIC        EIE2
  D:0084H         PUBLIC        SFRPAGE
  X:16BFH         PUBLIC        SMBusTimer3_count
  C:9CB6H         PUBLIC        _SMBusTimer3_init
  C:D042H         PUBLIC        SMBusTimer3_getTimeoutCount
  D:00C0H         PUBLIC        SMB0CN
BL51 BANKED LINKER/LOCATER V6.22                                                      05/20/2014  11:03:55  PAGE 42


  D:00CCH         PUBLIC        TMR3
  D:00C9H         PUBLIC        TMR3CF
  D:00C8H         PUBLIC        TMR3CN
  B:00C8H.7       PUBLIC        TF3
  C:CA95H         PUBLIC        SMBusTimer3_ISR
  B:00C8H.2       PUBLIC        TR3
  D:00CAH         PUBLIC        RCAP3
  -------         PROC          SMBUSTIMER3_GETTIMEOUTCOUNT
  -------         DO            
  X:0575H         SYMBOL        count
  X:0577H         SYMBOL        EIE2_SAVE
  -------         ENDDO         
  C:D042H         LINE#         14
  C:D042H         LINE#         16
  C:D04CH         LINE#         17
  C:D04FH         LINE#         18
  C:D05FH         LINE#         19
  C:D067H         LINE#         20
  C:D06FH         LINE#         21
  -------         ENDPROC       SMBUSTIMER3_GETTIMEOUTCOUNT
  -------         PROC          _SMBUSTIMER3_INIT
  X:15C9H         SYMBOL        sys_clk
  -------         DO            
  X:15CDH         SYMBOL        SFRPAGE_SAVE
  -------         ENDDO         
  C:9CB6H         LINE#         23
  C:9CBCH         LINE#         24
  C:9CC2H         LINE#         25
  C:9CC5H         LINE#         26
  C:9CC8H         LINE#         27
  C:9CE4H         LINE#         28
  C:9CE7H         LINE#         29
  C:9D06H         LINE#         30
  C:9D08H         LINE#         31
  C:9D0BH         LINE#         32
  C:9D2AH         LINE#         33
  C:9D46H         LINE#         34
  C:9D4EH         LINE#         36
  C:9D63H         LINE#         37
  C:9D69H         LINE#         38
  C:9D6CH         LINE#         39
  C:9D6EH         LINE#         40
  C:9D75H         LINE#         41
  -------         ENDPROC       _SMBUSTIMER3_INIT
  -------         PROC          SMBUSTIMER3_ISR
  -------         DO            
  X:16F0H         SYMBOL        SFRPAGE_SAVE
  -------         ENDDO         
  C:CA95H         LINE#         44
  C:CAA2H         LINE#         45
  C:CAA8H         LINE#         46
  C:CAABH         LINE#         47
  C:CAAEH         LINE#         48
  C:CAB1H         LINE#         49
  C:CAB8H         LINE#         50
  C:CAC6H         LINE#         51
  C:CAC8H         LINE#         52
BL51 BANKED LINKER/LOCATER V6.22                                                      05/20/2014  11:03:55  PAGE 43


  -------         ENDPROC       SMBUSTIMER3_ISR
  -------         ENDMOD        C8051_SMBUSTIMER3

  -------         MODULE        C8051_SPI0
  C:0000H         SYMBOL        _ICE_DUMMY_
  D:0084H         PUBLIC        SFRPAGE
  B:00F8H.7       PUBLIC        SPIF
  C:AA3AH         PUBLIC        _SPI0_putChars
  D:009AH         PUBLIC        SPI0CFG
  C:AD0EH         PUBLIC        _SPI0_putGetChars
  D:009BH         PUBLIC        SPI0DAT
  C:A11DH         PUBLIC        _SPI0_getPut
  -------         PROC          _SPI0_GETPUT
  X:15CEH         SYMBOL        value
  -------         DO            
  X:15D1H         SYMBOL        delay
  -------         ENDDO         
  C:A11DH         LINE#         13
  C:A128H         LINE#         16
  C:A130H         LINE#         17
  C:A135H         LINE#         18
  C:A157H         LINE#         19
  C:A165H         LINE#         20
  C:A168H         LINE#         21
  C:A16AH         LINE#         22
  C:A16CH         LINE#         24
  C:A17DH         LINE#         26
  C:A185H         LINE#         27
  C:A188H         LINE#         28
  C:A1AAH         LINE#         29
  C:A1B8H         LINE#         30
  C:A1BAH         LINE#         31
  C:A1BCH         LINE#         33
  C:A1CCH         LINE#         34
  C:A1CEH         LINE#         35
  C:A1D0H         LINE#         36
  -------         ENDPROC       _SPI0_GETPUT
  -------         PROC          _SPI0_PUTGETCHARS
  X:1308H         SYMBOL        buffer
  X:130BH         SYMBOL        length
  -------         DO            
  X:130DH         SYMBOL        count
  X:130FH         SYMBOL        message
  X:1312H         SYMBOL        SFRPAGE_SAVE
  -------         ENDDO         
  C:AD0EH         LINE#         39
  C:AD21H         LINE#         41
  C:AD37H         LINE#         42
  C:AD3DH         LINE#         43
  C:AD40H         LINE#         44
  C:AD65H         LINE#         45
  C:AD91H         LINE#         46
  C:AD98H         LINE#         47
  -------         ENDPROC       _SPI0_PUTGETCHARS
  -------         PROC          _SPI0_PUTCHARS
  X:071AH         SYMBOL        buffer
  X:071DH         SYMBOL        length
BL51 BANKED LINKER/LOCATER V6.22                                                      05/20/2014  11:03:55  PAGE 44


  -------         DO            
  X:071FH         SYMBOL        count
  X:0721H         SYMBOL        message
  X:0724H         SYMBOL        temp
  X:0725H         SYMBOL        SFRPAGE_SAVE
  -------         ENDDO         
  C:AA3AH         LINE#         51
  C:AA4DH         LINE#         53
  C:AA63H         LINE#         55
  C:AA69H         LINE#         56
  C:AA6CH         LINE#         57
  C:AA91H         LINE#         58
  C:AAB1H         LINE#         59
  C:AABAH         LINE#         60
  C:AACAH         LINE#         61
  C:AAD1H         LINE#         62
  -------         ENDPROC       _SPI0_PUTCHARS
  -------         ENDMOD        C8051_SPI0

  -------         MODULE        C8051_SPI0_INT
  C:0000H         SYMBOL        _ICE_DUMMY_
  D:00E6H         PUBLIC        EIE1
  X:129AH         PUBLIC        spi0_available
  D:0084H         PUBLIC        SFRPAGE
  X:129CH         PUBLIC        spi0_rxMessage
  X:129FH         PUBLIC        spi0_txMessage
  X:12A2H         PUBLIC        spi0_rxPosition
  X:12A4H         PUBLIC        spi0_txPosition
  D:00F8H         PUBLIC        SPI0CN
  B:00F8H.7       PUBLIC        SPIF
  C:8E53H         PUBLIC        _SPI0int_process
  C:9B35H         PUBLIC        SPI0_ISR
  X:12A6H         PUBLIC        spi0_rxIncrement
  D:009BH         PUBLIC        SPI0DAT
  -------         PROC          _SPI0INT_PROCESS
  X:1461H         SYMBOL        mode
  X:1462H         SYMBOL        buffer
  X:1465H         SYMBOL        length
  -------         DO            
  X:1467H         SYMBOL        SFRPAGE_SAVE
  X:1468H         SYMBOL        dummy
  -------         ENDDO         
  C:8E53H         LINE#         21
  C:8E63H         LINE#         24
  C:8E7BH         LINE#         25
  C:8E91H         LINE#         26
  C:8E99H         LINE#         27
  C:8EBFH         LINE#         28
  C:8EC7H         LINE#         29
  C:8ED1H         LINE#         30
  C:8ED7H         LINE#         31
  C:8EDAH         LINE#         32
  C:8EEAH         LINE#         33
  C:8EEDH         LINE#         34
  C:8F0AH         LINE#         35
  C:8F0AH         LINE#         36
  C:8F11H         LINE#         37
BL51 BANKED LINKER/LOCATER V6.22                                                      05/20/2014  11:03:55  PAGE 45


  C:8F14H         LINE#         38
  C:8F20H         LINE#         39
  C:8F20H         LINE#         40
  C:8F23H         LINE#         41
  C:8F25H         LINE#         42
  C:8F2CH         LINE#         43
  C:8F2CH         LINE#         44
  C:8F2EH         LINE#         45
  -------         ENDPROC       _SPI0INT_PROCESS
  -------         PROC          SPI0_ISR
  C:9B35H         LINE#         47
  C:9B4CH         LINE#         48
  C:9B4FH         LINE#         49
  C:9B51H         LINE#         50
  C:9B6DH         LINE#         51
  C:9B83H         LINE#         52
  C:9B91H         LINE#         53
  C:9B9DH         LINE#         54
  C:9BABH         LINE#         55
  C:9BC8H         LINE#         56
  C:9BC8H         LINE#         57
  C:9BC8H         LINE#         58
  C:9BD0H         LINE#         59
  C:9BDEH         LINE#         60
  C:9BE1H         LINE#         61
  C:9BE1H         LINE#         62
  -------         ENDPROC       SPI0_ISR
  -------         ENDMOD        C8051_SPI0_INT

  -------         MODULE        C8051_SPI0_SHARED
  C:0000H         SYMBOL        _ICE_DUMMY_
  D:009DH         PUBLIC        SPI0CKR
  B:00F8H.0       PUBLIC        SPIEN
  D:00E6H         PUBLIC        EIE1
  X:1648H         PUBLIC        SPI0_timeout
  D:0084H         PUBLIC        SFRPAGE
  C:D070H         PUBLIC        SPI0_getFailureCount
  C:BA26H         PUBLIC        _SPI0_init
  B:00F8H.2       PUBLIC        NSSMD0
  B:00F8H.3       PUBLIC        NSSMD1
  X:164AH         PUBLIC        SPI0_failures
  D:009AH         PUBLIC        SPI0CFG
  -------         PROC          _SPI0_INIT
  X:12C1H         SYMBOL        sys_clk
  X:12C5H         SYMBOL        f_sck_max
  X:12C9H         SYMBOL        spi0cfg
  X:12CAH         SYMBOL        p_timeout
  -------         DO            
  X:12CCH         SYMBOL        SFRPAGE_SAVE
  -------         ENDDO         
  C:BA26H         LINE#         16
  C:BA2CH         LINE#         17
  C:BA32H         LINE#         18
  C:BA35H         LINE#         25
  C:BA69H         LINE#         26
  C:BA71H         LINE#         27
  C:BA73H         LINE#         28
BL51 BANKED LINKER/LOCATER V6.22                                                      05/20/2014  11:03:55  PAGE 46


  C:BA75H         LINE#         29
  C:BA77H         LINE#         34
  C:BA7EH         LINE#         35
  C:BA8EH         LINE#         36
  -------         ENDPROC       _SPI0_INIT
  -------         PROC          SPI0_GETFAILURECOUNT
  -------         DO            
  X:1678H         SYMBOL        copy
  X:167AH         SYMBOL        ESPI0_save
  -------         ENDDO         
  C:D070H         LINE#         38
  C:D070H         LINE#         41
  C:D07AH         LINE#         42
  C:D07DH         LINE#         43
  C:D08DH         LINE#         44
  C:D095H         LINE#         45
  C:D09DH         LINE#         46
  -------         ENDPROC       SPI0_GETFAILURECOUNT
  -------         ENDMOD        C8051_SPI0_SHARED

  -------         MODULE        C8051_UART0
  C:0000H         SYMBOL        _ICE_DUMMY_
  C:AF36H         PUBLIC        _UART0_open
  D:0084H         PUBLIC        SFRPAGE
  C:B3C9H         PUBLIC        _UART0_putChars
  C:BD51H         PUBLIC        _UART0_advance
  C:84A3H         PUBLIC        _UART0_putChar
  X:11B4H         PUBLIC        UART0_rx
  X:11B7H         PUBLIC        UART0_tx
  C:7F27H         PUBLIC        UART0_ISR
  C:D315H         PUBLIC        UART0_resetRx
  X:11BAH         PUBLIC        UART0_rx_available
  X:11BCH         PUBLIC        UART0_rx_main
  X:11BEH         PUBLIC        UART0_tx_available
  X:11C0H         PUBLIC        UART0_tx_main
  B:00A8H.4       PUBLIC        ES0
  B:0098H.0       PUBLIC        RI0
  B:0098H.1       PUBLIC        TI0
  X:11C2H         PUBLIC        UART0_rx_errorCount
  X:11C3H         PUBLIC        UART0_tx_errorCount
  X:11C4H         PUBLIC        UART0_rx_size
  X:11C6H         PUBLIC        UART0_rx_uart
  X:11C8H         PUBLIC        UART0_tx_size
  X:11CAH         PUBLIC        UART0_tx_uart
  D:0099H         PUBLIC        SBUF0
  C:D338H         PUBLIC        UART0_getRxAvailable
  D:0098H         PUBLIC        SCON0
  C:D2A1H         PUBLIC        UART0_close
  D:0091H         PUBLIC        SSTA0
  C:D77BH         PUBLIC        UART0_getRxErrorCount
  C:D781H         PUBLIC        UART0_getTxErrorCount
  C:935DH         PUBLIC        _UART0_pollChars
  -------         PROC          UART0_RESETRX
  -------         DO            
  B:0021H.1       SYMBOL        ES0_SAVE
  -------         ENDDO         
  C:D315H         LINE#         31
BL51 BANKED LINKER/LOCATER V6.22                                                      05/20/2014  11:03:55  PAGE 47


  C:D315H         LINE#         32
  C:D319H         LINE#         33
  C:D31BH         LINE#         34
  C:D323H         LINE#         35
  C:D32BH         LINE#         36
  C:D333H         LINE#         37
  C:D337H         LINE#         38
  -------         ENDPROC       UART0_RESETRX
  -------         PROC          _UART0_OPEN
  X:12CDH         SYMBOL        rx_buffer
  X:12D0H         SYMBOL        rx_size
  X:12D2H         SYMBOL        tx_buffer
  X:12D5H         SYMBOL        tx_size
  X:12D7H         SYMBOL        p_uc_SSTA0
  -------         DO            
  X:12D8H         SYMBOL        SFRPAGE_SAVE
  -------         ENDDO         
  C:AF36H         LINE#         40
  C:AF49H         LINE#         41
  C:AF4FH         LINE#         42
  C:AF65H         LINE#         43
  C:AF75H         LINE#         44
  C:AF8BH         LINE#         45
  C:AF9BH         LINE#         46
  C:AF9EH         LINE#         47
  C:AFA1H         LINE#         49
  C:AFA4H         LINE#         56
  C:AFA7H         LINE#         65
  C:AFAEH         LINE#         67
  C:AFB0H         LINE#         68
  C:AFB2H         LINE#         69
  C:AFB4H         LINE#         70
  C:AFBBH         LINE#         71
  -------         ENDPROC       _UART0_OPEN
  -------         PROC          UART0_CLOSE
  -------         DO            
  X:16F1H         SYMBOL        SFRPAGE_SAVE
  -------         ENDDO         
  C:D2A1H         LINE#         73
  C:D2A1H         LINE#         74
  C:D2A7H         LINE#         75
  C:D2AAH         LINE#         76
  C:D2ACH         LINE#         77
  C:D2AEH         LINE#         78
  C:D2B0H         LINE#         79
  C:D2B8H         LINE#         80
  C:D2C0H         LINE#         81
  C:D2C7H         LINE#         82
  -------         ENDPROC       UART0_CLOSE
  -------         PROC          UART0_GETRXAVAILABLE
  -------         DO            
  X:16C1H         SYMBOL        value
  B:0021H.2       SYMBOL        ES0_SAVE
  -------         ENDDO         
  C:D338H         LINE#         84
  C:D338H         LINE#         86
  C:D33CH         LINE#         87
BL51 BANKED LINKER/LOCATER V6.22                                                      05/20/2014  11:03:55  PAGE 48


  C:D33EH         LINE#         88
  C:D34EH         LINE#         89
  C:D352H         LINE#         90
  C:D35AH         LINE#         91
  -------         ENDPROC       UART0_GETRXAVAILABLE
  -------         PROC          _UART0_POLLCHARS
  X:13A1H         SYMBOL        ptr
  X:13A4H         SYMBOL        length
  -------         DO            
  X:13A6H         SYMBOL        message
  X:13A9H         SYMBOL        count
  -------         ENDDO         
  C:935DH         LINE#         94
  C:9370H         LINE#         95
  C:9386H         LINE#         97
  C:93A1H         LINE#         98
  C:93C6H         LINE#         99
  C:9425H         LINE#         100
  C:9428H         LINE#         101
  C:9428H         LINE#         102
  C:942AH         LINE#         103
  -------         ENDPROC       _UART0_POLLCHARS
  -------         PROC          _UART0_ADVANCE
  X:16C3H         SYMBOL        length
  -------         DO            
  B:0021H.3       SYMBOL        ES0_SAVE
  -------         ENDDO         
  C:BD51H         LINE#         105
  C:BD59H         LINE#         106
  C:BD5DH         LINE#         107
  C:BD5FH         LINE#         108
  C:BD7EH         LINE#         109
  C:BD92H         LINE#         110
  C:BDADH         LINE#         111
  C:BDB1H         LINE#         112
  -------         ENDPROC       _UART0_ADVANCE
  -------         PROC          _UART0_PUTCHAR
  X:164CH         SYMBOL        value
  -------         DO            
  X:164DH         SYMBOL        SAVE_SFRPAGE
  X:164EH         SYMBOL        delay
  B:0021H.4       SYMBOL        ES0_SAVE
  -------         ENDDO         
  C:84A3H         LINE#         114
  C:84A8H         LINE#         116
  C:84B0H         LINE#         118
  C:84E0H         LINE#         119
  C:84F0H         LINE#         120
  C:850DH         LINE#         121
  C:8514H         LINE#         123
  C:8514H         LINE#         126
  C:8518H         LINE#         127
  C:851AH         LINE#         128
  C:8526H         LINE#         129
  C:8546H         LINE#         130
  C:8554H         LINE#         131
  C:856CH         LINE#         132
BL51 BANKED LINKER/LOCATER V6.22                                                      05/20/2014  11:03:55  PAGE 49


  C:8574H         LINE#         133
  C:8582H         LINE#         134
  C:8584H         LINE#         135
  C:858AH         LINE#         136
  C:858DH         LINE#         137
  C:859BH         LINE#         138
  C:85A2H         LINE#         139
  C:85A9H         LINE#         140
  C:85A9H         LINE#         141
  C:85ADH         LINE#         142
  -------         ENDPROC       _UART0_PUTCHAR
  -------         PROC          _UART0_PUTCHARS
  X:13ABH         SYMBOL        ptr
  X:13AEH         SYMBOL        length
  -------         DO            
  X:13B0H         SYMBOL        count
  X:13B2H         SYMBOL        message
  -------         ENDDO         
  C:B3C9H         LINE#         144
  C:B3DCH         LINE#         146
  C:B3F2H         LINE#         147
  C:B417H         LINE#         148
  C:B445H         LINE#         149
  -------         ENDPROC       _UART0_PUTCHARS
  -------         PROC          UART0_ISR
  C:7F27H         LINE#         151
  C:7F42H         LINE#         152
  C:7F45H         LINE#         153
  C:7F47H         LINE#         156
  C:7F4FH         LINE#         157
  C:7F55H         LINE#         158
  C:7F58H         LINE#         159
  C:7F5AH         LINE#         160
  C:7F76H         LINE#         161
  C:7F84H         LINE#         162
  C:7F9CH         LINE#         163
  C:7FA4H         LINE#         164
  C:7FB2H         LINE#         165
  C:7FB2H         LINE#         166
  C:7FB2H         LINE#         167
  C:7FB5H         LINE#         168
  C:7FB7H         LINE#         169
  C:7FBCH         LINE#         170
  C:7FC2H         LINE#         171
  C:7FC5H         LINE#         172
  C:7FC5H         LINE#         173
  C:7FD3H         LINE#         174
  C:7FDFH         LINE#         175
  C:7FFCH         LINE#         176
  C:800AH         LINE#         177
  C:8022H         LINE#         178
  C:802AH         LINE#         179
  C:802AH         LINE#         180
  C:802AH         LINE#         181
  -------         ENDPROC       UART0_ISR
  -------         PROC          UART0_GETRXERRORCOUNT
  C:D77BH         LINE#         183
BL51 BANKED LINKER/LOCATER V6.22                                                      05/20/2014  11:03:55  PAGE 50


  C:D77BH         LINE#         184
  C:D780H         LINE#         185
  -------         ENDPROC       UART0_GETRXERRORCOUNT
  -------         PROC          UART0_GETTXERRORCOUNT
  C:D781H         LINE#         187
  C:D781H         LINE#         188
  C:D786H         LINE#         189
  -------         ENDPROC       UART0_GETTXERRORCOUNT
  -------         ENDMOD        C8051_UART0

  -------         MODULE        C8051_UART0TIMER4
  C:0000H         SYMBOL        _ICE_DUMMY_
  D:00E7H         PUBLIC        EIE2
  D:0084H         PUBLIC        SFRPAGE
  D:00CCH         PUBLIC        TMR4
  D:00C9H         PUBLIC        TMR4CF
  D:00C8H         PUBLIC        TMR4CN
  C:A906H         PUBLIC        _UART0Timer4_init
  B:00C8H.2       PUBLIC        TR4
  D:00CAH         PUBLIC        RCAP4
  -------         PROC          _UART0TIMER4_INIT
  X:1313H         SYMBOL        sys_clk
  X:1317H         SYMBOL        baudrate
  -------         DO            
  X:131BH         SYMBOL        SFRPAGE_SAVE
  X:131CH         SYMBOL        timer4_reload
  -------         ENDDO         
  C:A906H         LINE#         11
  C:A90CH         LINE#         12
  C:A912H         LINE#         16
  C:A915H         LINE#         19
  C:A918H         LINE#         22
  C:A91BH         LINE#         23
  C:A97BH         LINE#         24
  C:A98EH         LINE#         26
  C:A994H         LINE#         28
  C:A997H         LINE#         30
  C:A999H         LINE#         33
  C:A9A0H         LINE#         34
  -------         ENDPROC       _UART0TIMER4_INIT
  -------         ENDMOD        C8051_UART0TIMER4

  -------         MODULE        C8051_UART1
  C:0000H         SYMBOL        _ICE_DUMMY_
  C:B446H         PUBLIC        _UART1_open
  D:00E7H         PUBLIC        EIE2
  D:0084H         PUBLIC        SFRPAGE
  C:B4C3H         PUBLIC        _UART1_putChars
  C:B950H         PUBLIC        _UART1_advance
  C:8278H         PUBLIC        _UART1_putChar
  X:11E4H         PUBLIC        UART1_rx
  X:11E7H         PUBLIC        UART1_tx
  C:88C3H         PUBLIC        UART1_ISR
  X:11EAH         PUBLIC        UART1_rx_available
  X:11ECH         PUBLIC        UART1_rx_main
  X:11EEH         PUBLIC        UART1_tx_available
  X:11F0H         PUBLIC        UART1_tx_main
BL51 BANKED LINKER/LOCATER V6.22                                                      05/20/2014  11:03:55  PAGE 51


  B:0098H.0       PUBLIC        RI1
  B:0098H.1       PUBLIC        TI1
  X:11F2H         PUBLIC        UART1_tx_errorCount
  X:11F3H         PUBLIC        UART1_rx_size
  X:11F5H         PUBLIC        UART1_rx_uart
  X:11F7H         PUBLIC        UART1_tx_size
  X:11F9H         PUBLIC        UART1_tx_uart
  D:0099H         PUBLIC        SBUF1
  C:D09EH         PUBLIC        UART1_getRxAvailable
  D:0098H         PUBLIC        SCON1
  C:D201H         PUBLIC        UART1_close
  C:D787H         PUBLIC        UART1_getTxErrorCount
  C:942BH         PUBLIC        _UART1_pollChars
  -------         PROC          _UART1_OPEN
  X:131EH         SYMBOL        rx_buffer
  X:1321H         SYMBOL        rx_size
  X:1323H         SYMBOL        tx_buffer
  X:1326H         SYMBOL        tx_size
  -------         DO            
  X:1328H         SYMBOL        SFRPAGE_SAVE
  -------         ENDDO         
  C:B446H         LINE#         32
  C:B459H         LINE#         33
  C:B45FH         LINE#         34
  C:B475H         LINE#         35
  C:B485H         LINE#         36
  C:B49BH         LINE#         37
  C:B4ABH         LINE#         38
  C:B4AEH         LINE#         40
  C:B4B1H         LINE#         49
  C:B4B4H         LINE#         51
  C:B4B6H         LINE#         52
  C:B4B8H         LINE#         53
  C:B4BBH         LINE#         55
  C:B4C2H         LINE#         56
  -------         ENDPROC       _UART1_OPEN
  -------         PROC          UART1_CLOSE
  -------         DO            
  X:16F2H         SYMBOL        SFRPAGE_SAVE
  -------         ENDDO         
  C:D201H         LINE#         58
  C:D201H         LINE#         59
  C:D207H         LINE#         60
  C:D20AH         LINE#         61
  C:D20DH         LINE#         62
  C:D20FH         LINE#         63
  C:D211H         LINE#         64
  C:D219H         LINE#         65
  C:D221H         LINE#         66
  C:D228H         LINE#         67
  -------         ENDPROC       UART1_CLOSE
  -------         PROC          UART1_GETRXAVAILABLE
  -------         DO            
  X:167BH         SYMBOL        value
  X:167DH         SYMBOL        EIE2_SAVE
  -------         ENDDO         
  C:D09EH         LINE#         69
BL51 BANKED LINKER/LOCATER V6.22                                                      05/20/2014  11:03:55  PAGE 52


  C:D09EH         LINE#         71
  C:D0A8H         LINE#         72
  C:D0ABH         LINE#         73
  C:D0BBH         LINE#         74
  C:D0C3H         LINE#         75
  C:D0CBH         LINE#         76
  -------         ENDPROC       UART1_GETRXAVAILABLE
  -------         PROC          _UART1_POLLCHARS
  X:13B5H         SYMBOL        ptr
  X:13B8H         SYMBOL        length
  -------         DO            
  X:13BAH         SYMBOL        message
  X:13BDH         SYMBOL        count
  -------         ENDDO         
  C:942BH         LINE#         78
  C:943EH         LINE#         79
  C:9454H         LINE#         81
  C:946FH         LINE#         82
  C:9494H         LINE#         83
  C:94F3H         LINE#         84
  C:94F6H         LINE#         85
  C:94F6H         LINE#         86
  C:94F8H         LINE#         87
  -------         ENDPROC       _UART1_POLLCHARS
  -------         PROC          _UART1_ADVANCE
  X:167EH         SYMBOL        length
  -------         DO            
  X:1680H         SYMBOL        EIE2_SAVE
  -------         ENDDO         
  C:B950H         LINE#         89
  C:B958H         LINE#         90
  C:B962H         LINE#         91
  C:B965H         LINE#         92
  C:B984H         LINE#         93
  C:B998H         LINE#         94
  C:B9B3H         LINE#         95
  C:B9BBH         LINE#         96
  -------         ENDPROC       _UART1_ADVANCE
  -------         PROC          _UART1_PUTCHAR
  X:15D3H         SYMBOL        value
  -------         DO            
  X:15D4H         SYMBOL        SFRPAGE_SAVE
  X:15D5H         SYMBOL        EIE2_SAVE
  X:15D6H         SYMBOL        delay
  -------         ENDDO         
  C:8278H         LINE#         98
  C:827DH         LINE#         101
  C:8285H         LINE#         103
  C:82B5H         LINE#         104
  C:82C5H         LINE#         105
  C:82E2H         LINE#         106
  C:82E9H         LINE#         108
  C:82E9H         LINE#         111
  C:82F3H         LINE#         112
  C:82F6H         LINE#         113
  C:8302H         LINE#         114
  C:8322H         LINE#         115
BL51 BANKED LINKER/LOCATER V6.22                                                      05/20/2014  11:03:55  PAGE 53


  C:8330H         LINE#         118
  C:8348H         LINE#         119
  C:8350H         LINE#         120
  C:835EH         LINE#         121
  C:8360H         LINE#         122
  C:8366H         LINE#         123
  C:8369H         LINE#         124
  C:8377H         LINE#         125
  C:837EH         LINE#         126
  C:8385H         LINE#         127
  C:8385H         LINE#         128
  C:838DH         LINE#         129
  -------         ENDPROC       _UART1_PUTCHAR
  -------         PROC          _UART1_PUTCHARS
  X:13BFH         SYMBOL        ptr
  X:13C2H         SYMBOL        length
  -------         DO            
  X:13C4H         SYMBOL        count
  X:13C6H         SYMBOL        message
  -------         ENDDO         
  C:B4C3H         LINE#         131
  C:B4D6H         LINE#         133
  C:B4ECH         LINE#         134
  C:B511H         LINE#         135
  C:B53FH         LINE#         136
  -------         ENDPROC       _UART1_PUTCHARS
  -------         PROC          UART1_ISR
  C:88C3H         LINE#         138
  C:88DEH         LINE#         139
  C:88E1H         LINE#         140
  C:88E3H         LINE#         143
  C:88FFH         LINE#         144
  C:890DH         LINE#         145
  C:8925H         LINE#         146
  C:892DH         LINE#         147
  C:893BH         LINE#         149
  C:893BH         LINE#         150
  C:893EH         LINE#         151
  C:8940H         LINE#         152
  C:894EH         LINE#         153
  C:895AH         LINE#         154
  C:8977H         LINE#         155
  C:8985H         LINE#         156
  C:899DH         LINE#         157
  C:89A5H         LINE#         158
  C:89A5H         LINE#         159
  C:89A5H         LINE#         160
  -------         ENDPROC       UART1_ISR
  -------         PROC          UART1_GETTXERRORCOUNT
  C:D787H         LINE#         162
  C:D787H         LINE#         163
  C:D78CH         LINE#         164
  -------         ENDPROC       UART1_GETTXERRORCOUNT
  -------         ENDMOD        C8051_UART1

  -------         MODULE        C8051_UART1TIMER1
  C:0000H         SYMBOL        _ICE_DUMMY_
BL51 BANKED LINKER/LOCATER V6.22                                                      05/20/2014  11:03:55  PAGE 54


  D:0084H         PUBLIC        SFRPAGE
  D:0089H         PUBLIC        TMOD
  C:A3E3H         PUBLIC        _UART1Timer1_init
  B:00A8H.3       PUBLIC        ET1
  D:008DH         PUBLIC        TH1
  B:0088H.6       PUBLIC        TR1
  -------         PROC          _UART1TIMER1_INIT
  X:1329H         SYMBOL        sys_clk
  X:132DH         SYMBOL        prescaler
  X:132EH         SYMBOL        baudrate
  -------         DO            
  X:1332H         SYMBOL        SFRPAGE_SAVE
  X:1333H         SYMBOL        timer1_reload_hi
  -------         ENDDO         
  C:A3E3H         LINE#         16
  C:A3E9H         LINE#         17
  C:A3EFH         LINE#         21
  C:A3F2H         LINE#         23
  C:A473H         LINE#         24
  C:A47DH         LINE#         28
  C:A480H         LINE#         29
  C:A483H         LINE#         32
  C:A485H         LINE#         36
  C:A487H         LINE#         38
  C:A48EH         LINE#         39
  -------         ENDPROC       _UART1TIMER1_INIT
  -------         ENDMOD        C8051_UART1TIMER1

  -------         MODULE        C8051_WATCHDOG
  C:0000H         SYMBOL        _ICE_DUMMY_
  D:00FFH         PUBLIC        WDTCN
  B:00A8H.7       PUBLIC        EA
  C:002EH         PUBLIC        Watchdog_lockout
  C:0026H         PUBLIC        Watchdog_resetTimer
  C:D759H         PUBLIC        Watchdog_init
  C:D6CDH         PUBLIC        Watchdog_disable
  -------         PROC          WATCHDOG_INIT
  C:D759H         LINE#         12
  C:D759H         LINE#         27
  C:D75CH         LINE#         29
  C:D75FH         LINE#         31
  C:D762H         LINE#         32
  -------         ENDPROC       WATCHDOG_INIT
  -------         PROC          WATCHDOG_RESETTIMER
  C:0026H         LINE#         35
  C:0026H         LINE#         36
  C:0029H         LINE#         37
  -------         ENDPROC       WATCHDOG_RESETTIMER
  -------         PROC          WATCHDOG_DISABLE
  -------         DO            
  B:0021H.5       SYMBOL        EA_SAVE
  -------         ENDDO         
  C:D6CDH         LINE#         40
  C:D6CDH         LINE#         45
  C:D6D1H         LINE#         46
  C:D6D3H         LINE#         47
  C:D6D5H         LINE#         48
BL51 BANKED LINKER/LOCATER V6.22                                                      05/20/2014  11:03:55  PAGE 55


  C:D6D8H         LINE#         49
  C:D6DBH         LINE#         50
  C:D6DFH         LINE#         51
  -------         ENDPROC       WATCHDOG_DISABLE
  -------         PROC          WATCHDOG_LOCKOUT
  C:002EH         LINE#         57
  C:002EH         LINE#         58
  C:0031H         LINE#         59
  -------         ENDPROC       WATCHDOG_LOCKOUT
  -------         ENDMOD        C8051_WATCHDOG

  -------         MODULE        COMM_GENERIC
  C:0000H         SYMBOL        _ICE_DUMMY_
  C:CF49H         PUBLIC        _Comm_sendChars
  C:CF7CH         PUBLIC        _Comm_getChars
  C:CD1FH         PUBLIC        _Comm_init
  X:1469H         PUBLIC        comm_failCount
  X:146BH         PUBLIC        comm_rxbuffer
  X:146EH         PUBLIC        comm_txbuffer
  -------         PROC          _COMM_SENDCHARS
  X:16C5H         SYMBOL        address
  X:16C6H         SYMBOL        length
  C:CF49H         LINE#         20
  C:CF53H         LINE#         21
  C:CF6AH         LINE#         22
  C:CF74H         LINE#         23
  C:CF7BH         LINE#         24
  -------         ENDPROC       _COMM_SENDCHARS
  -------         PROC          _COMM_GETCHARS
  X:16C7H         SYMBOL        address
  X:16C8H         SYMBOL        length
  C:CF7CH         LINE#         26
  C:CF86H         LINE#         27
  C:CF9DH         LINE#         28
  C:CFA7H         LINE#         29
  C:CFAEH         LINE#         30
  -------         ENDPROC       _COMM_GETCHARS
  -------         PROC          _COMM_INIT
  X:155EH         SYMBOL        i2c_txbuffer
  X:1561H         SYMBOL        i2c_rxbuffer
  C:CD1FH         LINE#         33
  C:CD2AH         LINE#         34
  C:CD40H         LINE#         35
  C:CD56H         LINE#         36
  -------         ENDPROC       _COMM_INIT
  -------         ENDMOD        COMM_GENERIC

  -------         MODULE        COMM_IMC
  C:0000H         SYMBOL        _ICE_DUMMY_
  C:D55DH         PUBLIC        Comm_rxFramePut
  C:D5A5H         PUBLIC        Comm_rxUptimePut
  C:7979H         PUBLIC        Comm_allTelemetryGet
  C:B8E3H         PUBLIC        _Comm_rxQueueSizeGet
  C:D58DH         PUBLIC        Comm_allTelemetryPut
  C:D545H         PUBLIC        Comm_rxQueueSizePut
  C:D575H         PUBLIC        Comm_rxFrameDrop
  C:D52DH         PUBLIC        Comm_rxReset
BL51 BANKED LINKER/LOCATER V6.22                                                      05/20/2014  11:03:55  PAGE 56


  C:95C6H         PUBLIC        _Comm_rxFrameGet
  C:BE12H         PUBLIC        Comm_rxUptimeGet
  -------         PROC          COMM_RXRESET
  C:D52DH         LINE#         17
  C:D52DH         LINE#         18
  C:D544H         LINE#         19
  -------         ENDPROC       COMM_RXRESET
  -------         PROC          COMM_RXQUEUESIZEPUT
  C:D545H         LINE#         24
  C:D545H         LINE#         26
  C:D55CH         LINE#         27
  -------         ENDPROC       COMM_RXQUEUESIZEPUT
  -------         PROC          _COMM_RXQUEUESIZEGET
  X:15D8H         SYMBOL        numel
  -------         DO            
  X:15DBH         SYMBOL        length
  -------         ENDDO         
  C:B8E3H         LINE#         29
  C:B8EEH         LINE#         32
  C:B8F5H         LINE#         33
  C:B901H         LINE#         34
  C:B90FH         LINE#         35
  C:B92DH         LINE#         36
  C:B930H         LINE#         37
  C:B930H         LINE#         38
  C:B93FH         LINE#         39
  C:B94DH         LINE#         40
  C:B94FH         LINE#         41
  -------         ENDPROC       _COMM_RXQUEUESIZEGET
  -------         PROC          COMM_RXFRAMEPUT
  C:D55DH         LINE#         46
  C:D55DH         LINE#         47
  C:D574H         LINE#         48
  -------         ENDPROC       COMM_RXFRAMEPUT
  -------         PROC          _COMM_RXFRAMEGET
  X:1471H         SYMBOL        buffer
  X:1474H         SYMBOL        numel
  -------         DO            
  X:1477H         SYMBOL        length
  -------         ENDDO         
  C:95C6H         LINE#         50
  C:95D1H         LINE#         57
  C:95D8H         LINE#         58
  C:95E7H         LINE#         59
  C:95F8H         LINE#         60
  C:9616H         LINE#         61
  C:9647H         LINE#         62
  C:967EH         LINE#         63
  C:9681H         LINE#         64
  C:9681H         LINE#         65
  C:9681H         LINE#         66
  C:968FH         LINE#         67
  C:9691H         LINE#         68
  -------         ENDPROC       _COMM_RXFRAMEGET
  -------         PROC          COMM_RXFRAMEDROP
  C:D575H         LINE#         73
  C:D575H         LINE#         74
BL51 BANKED LINKER/LOCATER V6.22                                                      05/20/2014  11:03:55  PAGE 57


  C:D58CH         LINE#         75
  -------         ENDPROC       COMM_RXFRAMEDROP
  -------         PROC          COMM_ALLTELEMETRYPUT
  C:D58DH         LINE#         90
  C:D58DH         LINE#         92
  C:D5A4H         LINE#         93
  -------         ENDPROC       COMM_ALLTELEMETRYPUT
  -------         PROC          COMM_ALLTELEMETRYGET
  -------         DO            
  X:14CDH         SYMBOL        length
  X:14CFH         SYMBOL        count
  X:14D0H         SYMBOL        temp
  X:14D1H         SYMBOL        bytes
  -------         ENDDO         
  C:7979H         LINE#         95
  C:7979H         LINE#         101
  C:7980H         LINE#         102
  C:798FH         LINE#         103
  C:79A0H         LINE#         104
  C:79B1H         LINE#         105
  C:79E0H         LINE#         106
  C:79F5H         LINE#         107
  C:7A17H         LINE#         108
  C:7A5AH         LINE#         109
  C:7A85H         LINE#         110
  C:7A8FH         LINE#         111
  C:7A92H         LINE#         112
  C:7A92H         LINE#         113
  C:7AA0H         LINE#         114
  C:7AA2H         LINE#         115
  -------         ENDPROC       COMM_ALLTELEMETRYGET
  -------         PROC          COMM_RXUPTIMEPUT
  C:D5A5H         LINE#         125
  C:D5A5H         LINE#         127
  C:D5BCH         LINE#         128
  -------         ENDPROC       COMM_RXUPTIMEPUT
  -------         PROC          COMM_RXUPTIMEGET
  -------         DO            
  X:16C9H         SYMBOL        length
  -------         ENDDO         
  C:BE12H         LINE#         130
  C:BE12H         LINE#         133
  C:BE19H         LINE#         134
  C:BE25H         LINE#         135
  C:BE33H         LINE#         136
  C:BE5DH         LINE#         137
  C:BE60H         LINE#         138
  C:BE60H         LINE#         139
  C:BE6EH         LINE#         140
  C:BE70H         LINE#         141
  -------         ENDPROC       COMM_RXUPTIMEGET
  -------         ENDMOD        COMM_IMC

  -------         MODULE        COMM_ITC
  C:0000H         SYMBOL        _ICE_DUMMY_
  C:BB5EH         PUBLIC        Comm_txStatusGet
  C:D5D5H         PUBLIC        Comm_txUptimePut
BL51 BANKED LINKER/LOCATER V6.22                                                      05/20/2014  11:03:55  PAGE 58


  C:C21DH         PUBLIC        _Comm_setTxIdleState
  C:D5EDH         PUBLIC        Comm_txStatusPut
  C:CE37H         PUBLIC        _Comm_setTxOutputMode
  C:B797H         PUBLIC        _Comm_txAx25Put
  C:BDB2H         PUBLIC        _Comm_setTxCwCharRate
  C:C8D0H         PUBLIC        _Comm_setTxBitrate
  C:D5BDH         PUBLIC        Comm_txReset
  C:BA8FH         PUBLIC        _Comm_txAx25AndCwGet
  C:BE71H         PUBLIC        Comm_txUptimeGet
  -------         PROC          COMM_TXRESET
  C:D5BDH         LINE#         16
  C:D5BDH         LINE#         17
  C:D5D4H         LINE#         18
  -------         ENDPROC       COMM_TXRESET
  -------         PROC          _COMM_TXAX25PUT
  X:15DDH         SYMBOL        buffer
  X:15E0H         SYMBOL        length
  C:B797H         LINE#         26
  C:B7AAH         LINE#         27
  C:B7BAH         LINE#         28
  C:B7F5H         LINE#         29
  C:B805H         LINE#         30
  -------         ENDPROC       _COMM_TXAX25PUT
  -------         PROC          _COMM_TXAX25ANDCWGET
  X:15E2H         SYMBOL        numel
  -------         DO            
  X:15E5H         SYMBOL        length
  -------         ENDDO         
  C:BA8FH         LINE#         33
  C:BA9AH         LINE#         35
  C:BAA1H         LINE#         36
  C:BAADH         LINE#         37
  C:BABBH         LINE#         38
  C:BADFH         LINE#         39
  C:BAE2H         LINE#         40
  C:BAE2H         LINE#         41
  C:BAE7H         LINE#         42
  C:BAF5H         LINE#         43
  C:BAF7H         LINE#         45
  -------         ENDPROC       _COMM_TXAX25ANDCWGET
  -------         PROC          _COMM_SETTXIDLESTATE
  X:16F3H         SYMBOL        value
  C:C21DH         LINE#         71
  C:C222H         LINE#         72
  C:C232H         LINE#         73
  C:C24CH         LINE#         74
  C:C253H         LINE#         75
  C:C25BH         LINE#         76
  C:C26AH         LINE#         78
  C:C278H         LINE#         79
  -------         ENDPROC       _COMM_SETTXIDLESTATE
  -------         PROC          _COMM_SETTXOUTPUTMODE
  X:16F4H         SYMBOL        value
  C:CE37H         LINE#         89
  C:CE3CH         LINE#         90
  C:CE4CH         LINE#         91
  C:CE66H         LINE#         92
BL51 BANKED LINKER/LOCATER V6.22                                                      05/20/2014  11:03:55  PAGE 59


  C:CE6DH         LINE#         93
  -------         ENDPROC       _COMM_SETTXOUTPUTMODE
  -------         PROC          _COMM_SETTXBITRATE
  X:16F5H         SYMBOL        value
  C:C8D0H         LINE#         103
  C:C8D5H         LINE#         104
  C:C8E5H         LINE#         105
  C:C90BH         LINE#         106
  C:C912H         LINE#         107
  -------         ENDPROC       _COMM_SETTXBITRATE
  -------         PROC          _COMM_SETTXCWCHARRATE
  X:16CBH         SYMBOL        value
  C:BDB2H         LINE#         116
  C:BDBAH         LINE#         117
  C:BDCAH         LINE#         118
  C:BDE7H         LINE#         119
  C:BE0AH         LINE#         120
  C:BE11H         LINE#         121
  -------         ENDPROC       _COMM_SETTXCWCHARRATE
  -------         PROC          COMM_TXUPTIMEPUT
  C:D5D5H         LINE#         126
  C:D5D5H         LINE#         128
  C:D5ECH         LINE#         129
  -------         ENDPROC       COMM_TXUPTIMEPUT
  -------         PROC          COMM_TXUPTIMEGET
  -------         DO            
  X:16CDH         SYMBOL        length
  -------         ENDDO         
  C:BE71H         LINE#         131
  C:BE71H         LINE#         134
  C:BE78H         LINE#         135
  C:BE84H         LINE#         136
  C:BE92H         LINE#         137
  C:BEBCH         LINE#         138
  C:BEBFH         LINE#         139
  C:BEBFH         LINE#         140
  C:BECDH         LINE#         141
  C:BECFH         LINE#         142
  -------         ENDPROC       COMM_TXUPTIMEGET
  -------         PROC          COMM_TXSTATUSPUT
  C:D5EDH         LINE#         147
  C:D5EDH         LINE#         149
  C:D604H         LINE#         150
  -------         ENDPROC       COMM_TXSTATUSPUT
  -------         PROC          COMM_TXSTATUSGET
  -------         DO            
  X:16CFH         SYMBOL        length
  -------         ENDDO         
  C:BB5EH         LINE#         152
  C:BB5EH         LINE#         155
  C:BB65H         LINE#         157
  C:BB71H         LINE#         158
  C:BB9BH         LINE#         159
  C:BBAFH         LINE#         160
  C:BBB2H         LINE#         161
  C:BBB2H         LINE#         162
  C:BBC0H         LINE#         163
BL51 BANKED LINKER/LOCATER V6.22                                                      05/20/2014  11:03:55  PAGE 60


  C:BBC2H         LINE#         164
  -------         ENDPROC       COMM_TXSTATUSGET
  -------         ENDMOD        COMM_ITC

  -------         MODULE        COMM_ITC_CW
  C:0000H         SYMBOL        _ICE_DUMMY_
  C:B806H         PUBLIC        _Comm_txCwPut
  -------         PROC          _COMM_TXCWPUT
  X:15E7H         SYMBOL        buffer
  X:15EAH         SYMBOL        length
  C:B806H         LINE#         15
  C:B819H         LINE#         16
  C:B829H         LINE#         17
  C:B864H         LINE#         18
  C:B874H         LINE#         19
  -------         ENDPROC       _COMM_TXCWPUT
  -------         ENDMOD        COMM_ITC_CW

  -------         MODULE        HASH_BLOB
  C:0000H         SYMBOL        _ICE_DUMMY_
  C:A1D1H         PUBLIC        _Hash_getBlob
  C:90E4H         PUBLIC        _Hash_putBlob
  C:5396H         PUBLIC        _Hash_addressBlob
  C:D6E0H         PUBLIC        local_blobOffset
  -------         PROC          _HASH_ADDRESSBLOB
  X:142CH         SYMBOL        index
  X:142EH         SYMBOL        type
  X:142FH         SYMBOL        count
  -------         DO            
  X:1431H         SYMBOL        address
  -------         ENDDO         
  C:5396H         LINE#         36
  C:53ABH         LINE#         38
  C:53CFH         LINE#         39
  C:5408H         LINE#         40
  C:5444H         LINE#         41
  C:5451H         LINE#         42
  C:549FH         LINE#         43
  C:54BDH         LINE#         44
  C:5509H         LINE#         45
  C:552CH         LINE#         46
  C:555AH         LINE#         47
  C:5569H         LINE#         48
  C:5569H         LINE#         49
  C:5569H         LINE#         50
  C:5571H         LINE#         51
  -------         ENDPROC       _HASH_ADDRESSBLOB
  -------         PROC          _HASH_PUTBLOB
  X:127EH         SYMBOL        buffer
  X:1281H         SYMBOL        length
  -------         DO            
  X:1283H         SYMBOL        index
  X:1285H         SYMBOL        type
  X:1286H         SYMBOL        count
  X:1288H         SYMBOL        address
  -------         ENDDO         
  C:90E4H         LINE#         54
BL51 BANKED LINKER/LOCATER V6.22                                                      05/20/2014  11:03:55  PAGE 61


  C:90F7H         LINE#         59
  C:910DH         LINE#         60
  C:9120H         LINE#         61
  C:9136H         LINE#         62
  C:9154H         LINE#         63
  C:9170H         LINE#         64
  C:91B7H         LINE#         65
  C:91B9H         LINE#         66
  -------         ENDPROC       _HASH_PUTBLOB
  -------         PROC          _HASH_GETBLOB
  X:1252H         SYMBOL        index
  X:1254H         SYMBOL        type
  X:1255H         SYMBOL        count
  X:1257H         SYMBOL        buffer
  X:125AH         SYMBOL        length
  -------         DO            
  X:125CH         SYMBOL        address
  X:1260H         SYMBOL        success
  -------         ENDDO         
  C:A1D1H         LINE#         69
  C:A1E6H         LINE#         72
  C:A204H         LINE#         73
  C:A22BH         LINE#         74
  C:A233H         LINE#         75
  C:A27EH         LINE#         76
  C:A283H         LINE#         77
  -------         ENDPROC       _HASH_GETBLOB
  -------         ENDMOD        HASH_BLOB

  -------         MODULE        HASH_FRAME
  C:0000H         SYMBOL        _ICE_DUMMY_
  C:B9BCH         PUBLIC        _Hash_getFrame
  C:C534H         PUBLIC        _Hash_putFrame
  C:94F9H         PUBLIC        _Hash_getAddress
  -------         PROC          _HASH_GETADDRESS
  X:14D4H         SYMBOL        frameIndex
  -------         DO            
  X:14D7H         SYMBOL        page
  -------         ENDDO         
  C:94F9H         LINE#         13
  C:9504H         LINE#         14
  C:9518H         LINE#         15
  C:9545H         LINE#         16
  C:95C5H         LINE#         17
  -------         ENDPROC       _HASH_GETADDRESS
  -------         PROC          _HASH_GETFRAME
  X:1479H         SYMBOL        frameIndex
  X:147CH         SYMBOL        buffer
  X:147FH         SYMBOL        length
  C:B9BCH         LINE#         19
  C:B9C7H         LINE#         20
  C:B9DFH         LINE#         21
  C:BA25H         LINE#         22
  -------         ENDPROC       _HASH_GETFRAME
  -------         PROC          _HASH_PUTFRAME
  X:1481H         SYMBOL        frameIndex
  X:1484H         SYMBOL        buffer
BL51 BANKED LINKER/LOCATER V6.22                                                      05/20/2014  11:03:55  PAGE 62


  X:1487H         SYMBOL        length
  C:C534H         LINE#         24
  C:C53FH         LINE#         25
  C:C585H         LINE#         26
  -------         ENDPROC       _HASH_PUTFRAME
  -------         ENDMOD        HASH_FRAME

  -------         MODULE        HASH_MANIFEST
  C:0000H         SYMBOL        _ICE_DUMMY_
  C:22B2H         PUBLIC        Hash_readManifest
  C:2C20H         PUBLIC        Hash_writeManifest
  X:16F6H         PUBLIC        manifest_reset_incr
  -------         PROC          HASH_READMANIFEST
  -------         DO            
  X:1650H         SYMBOL        success
  X:1651H         SYMBOL        capture
  X:1652H         SYMBOL        size
  -------         ENDDO         
  C:22B2H         LINE#         38
  C:22B2H         LINE#         41
  C:22BAH         LINE#         42
  C:22C4H         LINE#         45
  C:2303H         LINE#         46
  C:2316H         LINE#         47
  C:2321H         LINE#         48
  C:2360H         LINE#         49
  C:239FH         LINE#         50
  C:23DEH         LINE#         51
  C:241DH         LINE#         52
  C:245CH         LINE#         54
  C:249BH         LINE#         55
  C:24DAH         LINE#         56
  C:2519H         LINE#         57
  C:2558H         LINE#         58
  C:2597H         LINE#         60
  C:25D6H         LINE#         61
  C:2615H         LINE#         62
  C:2654H         LINE#         63
  C:2693H         LINE#         64
  C:26D2H         LINE#         66
  C:2711H         LINE#         69
  C:2719H         LINE#         70
  C:2745H         LINE#         71
  C:2773H         LINE#         72
  C:2773H         LINE#         73
  C:2778H         LINE#         74
  C:279CH         LINE#         75
  C:279CH         LINE#         77
  C:279CH         LINE#         78
  -------         ENDPROC       HASH_READMANIFEST
  -------         PROC          HASH_WRITEMANIFEST
  -------         DO            
  X:1654H         SYMBOL        length
  X:1656H         SYMBOL        size
  -------         ENDDO         
  C:2C20H         LINE#         87
  C:2C20H         LINE#         89
BL51 BANKED LINKER/LOCATER V6.22                                                      05/20/2014  11:03:55  PAGE 63


  C:2C28H         LINE#         91
  C:2C67H         LINE#         92
  C:2CA6H         LINE#         93
  C:2CE5H         LINE#         94
  C:2D24H         LINE#         95
  C:2D63H         LINE#         97
  C:2DA2H         LINE#         98
  C:2DE1H         LINE#         99
  C:2E20H         LINE#         100
  C:2E5FH         LINE#         101
  C:2E9EH         LINE#         103
  C:2EDDH         LINE#         104
  C:2F1CH         LINE#         105
  C:2F5BH         LINE#         106
  C:2F9AH         LINE#         107
  C:2FD9H         LINE#         109
  C:3018H         LINE#         112
  C:3035H         LINE#         113
  C:3076H         LINE#         114
  -------         ENDPROC       HASH_WRITEMANIFEST
  -------         ENDMOD        HASH_MANIFEST

  -------         MODULE        MCCIF_ACTIVE
  C:0000H         SYMBOL        _ICE_DUMMY_
  C:62D2H         PUBLIC        _Mccif_formatSet
  C:65DFH         PUBLIC        _Mccif_formatRequest
  -------         PROC          _MCCIF_FORMATSET
  X:12A7H         SYMBOL        system
  X:12A8H         SYMBOL        offset
  X:12AAH         SYMBOL        length
  X:12ACH         SYMBOL        value
  X:12AFH         SYMBOL        message
  -------         DO            
  X:12B2H         SYMBOL        check
  -------         ENDDO         
  C:62D2H         LINE#         12
  C:62E7H         LINE#         14
  C:6311H         LINE#         15
  C:6327H         LINE#         16
  C:6341H         LINE#         17
  C:6364H         LINE#         18
  C:6381H         LINE#         19
  C:639EH         LINE#         20
  C:63D9H         LINE#         21
  C:640AH         LINE#         22
  C:644AH         LINE#         23
  C:645AH         LINE#         24
  -------         ENDPROC       _MCCIF_FORMATSET
  -------         PROC          _MCCIF_FORMATREQUEST
  X:13C9H         SYMBOL        system
  X:13CAH         SYMBOL        offset
  X:13CCH         SYMBOL        length
  X:13CEH         SYMBOL        message
  -------         DO            
  X:13D1H         SYMBOL        check
  -------         ENDDO         
  C:65DFH         LINE#         28
BL51 BANKED LINKER/LOCATER V6.22                                                      05/20/2014  11:03:55  PAGE 64


  C:65F4H         LINE#         30
  C:661EH         LINE#         31
  C:6634H         LINE#         32
  C:664EH         LINE#         33
  C:6663H         LINE#         34
  C:6678H         LINE#         35
  C:668EH         LINE#         36
  C:66A8H         LINE#         37
  C:66CBH         LINE#         38
  C:66E8H         LINE#         39
  C:6705H         LINE#         40
  C:672AH         LINE#         41
  C:675CH         LINE#         42
  C:6760H         LINE#         43
  -------         ENDPROC       _MCCIF_FORMATREQUEST
  -------         ENDMOD        MCCIF_ACTIVE

  -------         MODULE        MCCIF_BUFFER
  C:0000H         SYMBOL        _ICE_DUMMY_
  X:13D3H         PUBLIC        mccif_buffer_maxlength
  C:B2CCH         PUBLIC        _Mccif_appendChars
  C:AD99H         PUBLIC        _Mccif_appendChar
  X:13D5H         PUBLIC        mccif_buffer_index
  X:13D6H         PUBLIC        mccif_buffer
  X:13D9H         PUBLIC        mccif_buffer_flush
  C:B875H         PUBLIC        Mccif_flush
  X:13DBH         PUBLIC        mccif_buffer_count
  C:BCEFH         PUBLIC        _Mccif_setBuffer
  -------         PROC          _MCCIF_SETBUFFER
  X:15ECH         SYMBOL        buffer
  X:15EFH         SYMBOL        maxlength
  C:BCEFH         LINE#         12
  C:BD02H         LINE#         13
  C:BD18H         LINE#         14
  C:BD1DH         LINE#         15
  C:BD25H         LINE#         16
  C:BD35H         LINE#         17
  C:BD3DH         LINE#         18
  C:BD50H         LINE#         19
  -------         ENDPROC       _MCCIF_SETBUFFER
  -------         PROC          MCCIF_FLUSH
  C:B875H         LINE#         21
  C:B875H         LINE#         22
  C:B891H         LINE#         23
  C:B8CCH         LINE#         24
  C:B8D4H         LINE#         25
  C:B8E2H         LINE#         26
  C:B8E2H         LINE#         27
  -------         ENDPROC       MCCIF_FLUSH
  -------         PROC          _MCCIF_APPENDCHAR
  X:16D1H         SYMBOL        index
  X:16D2H         SYMBOL        value
  C:AD99H         LINE#         29
  C:ADA3H         LINE#         30
  C:ADB3H         LINE#         31
  C:ADCDH         LINE#         32
  C:ADD0H         LINE#         34
BL51 BANKED LINKER/LOCATER V6.22                                                      05/20/2014  11:03:55  PAGE 65


  C:ADDAH         LINE#         35
  C:ADFAH         LINE#         36
  C:AE08H         LINE#         37
  C:AE20H         LINE#         38
  C:AE23H         LINE#         39
  C:AE23H         LINE#         40
  -------         ENDPROC       _MCCIF_APPENDCHAR
  -------         PROC          _MCCIF_APPENDCHARS
  X:1334H         SYMBOL        index
  X:1335H         SYMBOL        ptr
  X:1338H         SYMBOL        len
  -------         DO            
  X:133AH         SYMBOL        c0
  X:133CH         SYMBOL        msg
  -------         ENDDO         
  C:B2CCH         LINE#         42
  C:B2DCH         LINE#         44
  C:B2F2H         LINE#         45
  C:B317H         LINE#         46
  C:B34AH         LINE#         47
  -------         ENDPROC       _MCCIF_APPENDCHARS
  -------         ENDMOD        MCCIF_BUFFER

  -------         MODULE        MCCIF_LOCAL
  C:0000H         SYMBOL        _ICE_DUMMY_
  X:16D5H         PUBLIC        mccif_port
  C:BBC3H         PUBLIC        _Mccif_localSend
  C:D466H         PUBLIC        _Mccif_localInit
  C:5FB5H         PUBLIC        Mccif_localPoll
  X:16D6H         PUBLIC        mccif_localSystem
  -------         PROC          _MCCIF_LOCALINIT
  X:16D3H         SYMBOL        port
  X:16D4H         SYMBOL        system
  C:D466H         LINE#         17
  C:D470H         LINE#         18
  C:D47AH         LINE#         19
  C:D484H         LINE#         20
  -------         ENDPROC       _MCCIF_LOCALINIT
  -------         PROC          _MCCIF_LOCALSEND
  X:1435H         SYMBOL        offset
  X:1437H         SYMBOL        length
  X:1439H         SYMBOL        buffer
  -------         DO            
  X:143CH         SYMBOL        total
  -------         ENDDO         
  C:BBC3H         LINE#         23
  C:BBDEH         LINE#         25
  C:BC04H         LINE#         26
  C:BC27H         LINE#         27
  -------         ENDPROC       _MCCIF_LOCALSEND
  -------         PROC          MCCIF_LOCALPOLL
  -------         DO            
  X:013EH         SYMBOL        message
  X:0153H         SYMBOL        length
  X:0155H         SYMBOL        updated
  X:0156H         SYMBOL        success
  X:0157H         SYMBOL        ptr
BL51 BANKED LINKER/LOCATER V6.22                                                      05/20/2014  11:03:55  PAGE 66


  -------         ENDDO         
  C:5FB5H         LINE#         30
  C:5FB5H         LINE#         33
  C:5FBAH         LINE#         35
  C:5FC2H         LINE#         36
  C:5FDFH         LINE#         37
  C:6012H         LINE#         38
  C:6038H         LINE#         40
  C:6047H         LINE#         41
  C:6082H         LINE#         42
  C:608DH         LINE#         43
  C:60B9H         LINE#         44
  C:60E5H         LINE#         45
  C:60FDH         LINE#         46
  C:6105H         LINE#         47
  C:6121H         LINE#         48
  C:6123H         LINE#         49
  C:6123H         LINE#         50
  C:6125H         LINE#         51
  C:6127H         LINE#         52
  C:6127H         LINE#         53
  C:6132H         LINE#         54
  C:613EH         LINE#         55
  C:6141H         LINE#         56
  C:6146H         LINE#         57
  -------         ENDPROC       MCCIF_LOCALPOLL
  -------         ENDMOD        MCCIF_LOCAL

  -------         MODULE        MCCIF_SPY
  C:0000H         SYMBOL        _ICE_DUMMY_
  C:CC74H         PUBLIC        _Mccif_getBlobIndex
  C:CC3BH         PUBLIC        _Mccif_getArgLength
  C:CCADH         PUBLIC        _Mccif_getBlobCount
  C:CE6EH         PUBLIC        _Mccif_getBlobType
  C:D3A1H         PUBLIC        _Mccif_getFrameLength
  C:7BCBH         PUBLIC        _Mccif_isValidContent
  -------         PROC          _MCCIF_GETARGLENGTH
  X:1564H         SYMBOL        buffer
  -------         DO            
  X:1567H         SYMBOL        message
  -------         ENDDO         
  C:CC3BH         LINE#         10
  C:CC46H         LINE#         11
  C:CC5CH         LINE#         12
  C:CC73H         LINE#         13
  -------         ENDPROC       _MCCIF_GETARGLENGTH
  -------         PROC          _MCCIF_GETFRAMELENGTH
  X:1681H         SYMBOL        buffer
  C:D3A1H         LINE#         15
  C:D3ACH         LINE#         16
  C:D3C2H         LINE#         17
  -------         ENDPROC       _MCCIF_GETFRAMELENGTH
  -------         PROC          _MCCIF_GETBLOBINDEX
  X:156AH         SYMBOL        buffer
  -------         DO            
  X:156DH         SYMBOL        message
  -------         ENDDO         
BL51 BANKED LINKER/LOCATER V6.22                                                      05/20/2014  11:03:55  PAGE 67


  C:CC74H         LINE#         19
  C:CC7FH         LINE#         20
  C:CC95H         LINE#         21
  C:CCACH         LINE#         22
  -------         ENDPROC       _MCCIF_GETBLOBINDEX
  -------         PROC          _MCCIF_GETBLOBTYPE
  X:1570H         SYMBOL        buffer
  -------         DO            
  X:1573H         SYMBOL        message
  -------         ENDDO         
  C:CE6EH         LINE#         24
  C:CE79H         LINE#         25
  C:CE8FH         LINE#         26
  C:CEA4H         LINE#         27
  -------         ENDPROC       _MCCIF_GETBLOBTYPE
  -------         PROC          _MCCIF_GETBLOBCOUNT
  X:1576H         SYMBOL        buffer
  -------         DO            
  X:1579H         SYMBOL        message
  -------         ENDDO         
  C:CCADH         LINE#         29
  C:CCB8H         LINE#         30
  C:CCCEH         LINE#         31
  C:CCE5H         LINE#         32
  -------         ENDPROC       _MCCIF_GETBLOBCOUNT
  -------         PROC          _MCCIF_ISVALIDCONTENT
  X:133FH         SYMBOL        buffer
  X:1342H         SYMBOL        max_length
  -------         DO            
  X:1344H         SYMBOL        success
  X:1345H         SYMBOL        message
  X:1348H         SYMBOL        length
  -------         ENDDO         
  C:7BCBH         LINE#         36
  C:7BDEH         LINE#         37
  C:7BE3H         LINE#         38
  C:7BF9H         LINE#         40
  C:7C12H         LINE#         41
  C:7C4AH         LINE#         42
  C:7C69H         LINE#         43
  C:7CB6H         LINE#         44
  C:7CE7H         LINE#         45
  C:7CE7H         LINE#         46
  C:7CECH         LINE#         47
  -------         ENDPROC       _MCCIF_ISVALIDCONTENT
  -------         ENDMOD        MCCIF_SPY

  -------         MODULE        MCCIF_STREAM
  C:0000H         SYMBOL        _ICE_DUMMY_
  C:6BC0H         PUBLIC        _Mccif_downlinkStream
  -------         PROC          _MCCIF_DOWNLINKSTREAM
  X:11CCH         SYMBOL        index
  X:11CEH         SYMBOL        count
  X:11D0H         SYMBOL        length
  X:11D2H         SYMBOL        msg
  -------         DO            
  X:11D5H         SYMBOL        content
BL51 BANKED LINKER/LOCATER V6.22                                                      05/20/2014  11:03:55  PAGE 68


  X:11DFH         SYMBOL        buffer
  X:11E2H         SYMBOL        l_us_crc
  -------         ENDDO         
  C:6BC0H         LINE#         11
  C:6BD8H         LINE#         13
  C:6BEEH         LINE#         14
  C:6BF6H         LINE#         15
  C:6BFCH         LINE#         16
  C:6C02H         LINE#         17
  C:6C08H         LINE#         18
  C:6C0EH         LINE#         19
  C:6C21H         LINE#         20
  C:6C2EH         LINE#         21
  C:6C41H         LINE#         22
  C:6C4EH         LINE#         23
  C:6C61H         LINE#         24
  C:6C6EH         LINE#         26
  C:6C93H         LINE#         27
  C:6CAAH         LINE#         29
  C:6CD8H         LINE#         30
  C:6CFBH         LINE#         32
  C:6D0EH         LINE#         33
  C:6D25H         LINE#         34
  -------         ENDPROC       _MCCIF_DOWNLINKSTREAM
  -------         ENDMOD        MCCIF_STREAM

  -------         MODULE        MCCIF_XDATA
  C:0000H         SYMBOL        _ICE_DUMMY_
  C:0036H         PUBLIC        mccif_xdatMarker
  C:5572H         PUBLIC        _Mccif_localSet
  B:00A8H.7       PUBLIC        EA
  C:5C72H         PUBLIC        _Mccif_formatContent
  -------         PROC          _MCCIF_FORMATCONTENT
  X:134AH         SYMBOL        offset
  X:134CH         SYMBOL        length
  X:134EH         SYMBOL        message
  -------         DO            
  X:1351H         SYMBOL        ptr
  X:1353H         SYMBOL        check
  -------         ENDDO         
  C:5C72H         LINE#         19
  C:5C8DH         LINE#         20
  C:5C95H         LINE#         22
  C:5CBFH         LINE#         23
  C:5CD4H         LINE#         24
  C:5CEEH         LINE#         25
  C:5D11H         LINE#         26
  C:5D2EH         LINE#         27
  C:5D4BH         LINE#         28
  C:5D97H         LINE#         29
  C:5DC8H         LINE#         30
  C:5E08H         LINE#         31
  C:5E18H         LINE#         32
  -------         ENDPROC       _MCCIF_FORMATCONTENT
  -------         PROC          _MCCIF_LOCALSET
  X:13DDH         SYMBOL        message
  -------         DO            
BL51 BANKED LINKER/LOCATER V6.22                                                      05/20/2014  11:03:55  PAGE 69


  X:13E0H         SYMBOL        success
  X:13E1H         SYMBOL        offset
  X:13E3H         SYMBOL        length
  X:13E5H         SYMBOL        ptr
  -------         ENDDO         
  C:5572H         LINE#         36
  C:557DH         LINE#         39
  C:5585H         LINE#         40
  C:55BDH         LINE#         41
  C:55E9H         LINE#         42
  C:561AH         LINE#         43
  C:5639H         LINE#         44
  C:5658H         LINE#         45
  C:569FH         LINE#         46
  C:56AAH         LINE#         47
  C:56DBH         LINE#         48
  C:56E3H         LINE#         49
  C:56E5H         LINE#         50
  C:56E7H         LINE#         51
  C:5733H         LINE#         52
  C:5735H         LINE#         53
  C:5740H         LINE#         54
  C:5740H         LINE#         55
  C:5740H         LINE#         56
  C:5745H         LINE#         57
  -------         ENDPROC       _MCCIF_LOCALSET
  -------         ENDMOD        MCCIF_XDATA

  -------         MODULE        OBDH_AUTH
  C:0000H         SYMBOL        _ICE_DUMMY_
  C:7247H         PUBLIC        Auth_localNotify_Override
  C:D713H         PUBLIC        Auth_init
  C:8043H         PUBLIC        _Auth_isPermitted_Override
  -------         PROC          AUTH_INIT
  C:D713H         LINE#         20
  C:D713H         LINE#         21
  C:D722H         LINE#         22
  -------         ENDPROC       AUTH_INIT
  -------         PROC          _AUTH_ISPERMITTED_OVERRIDE
  X:143EH         SYMBOL        buffer
  -------         DO            
  X:1441H         SYMBOL        message
  X:1444H         SYMBOL        success
  X:1445H         SYMBOL        offset
  -------         ENDDO         
  C:8043H         LINE#         24
  C:804EH         LINE#         25
  C:8064H         LINE#         28
  C:806DH         LINE#         29
  C:8070H         LINE#         30
  C:8076H         LINE#         31
  C:80A7H         LINE#         32
  C:80C6H         LINE#         33
  C:80D4H         LINE#         34
  C:810FH         LINE#         35
  C:8158H         LINE#         36
  C:815DH         LINE#         37
BL51 BANKED LINKER/LOCATER V6.22                                                      05/20/2014  11:03:55  PAGE 70


  -------         ENDPROC       _AUTH_ISPERMITTED_OVERRIDE
  -------         PROC          AUTH_LOCALNOTIFY_OVERRIDE
  C:7247H         LINE#         39
  C:7247H         LINE#         40
  C:7260H         LINE#         41
  C:7260H         LINE#         42
  C:7269H         LINE#         43
  C:726AH         LINE#         44
  C:726AH         LINE#         45
  C:728FH         LINE#         46
  C:72B3H         LINE#         47
  C:72D5H         LINE#         48
  C:72F7H         LINE#         49
  C:731BH         LINE#         50
  C:7321H         LINE#         51
  C:7322H         LINE#         52
  C:7322H         LINE#         53
  C:7344H         LINE#         54
  C:734CH         LINE#         55
  C:7360H         LINE#         56
  C:736EH         LINE#         57
  C:7373H         LINE#         58
  C:7373H         LINE#         59
  C:7374H         LINE#         60
  C:7374H         LINE#         61
  C:737DH         LINE#         62
  C:7387H         LINE#         63
  C:7387H         LINE#         64
  C:7387H         LINE#         65
  -------         ENDPROC       AUTH_LOCALNOTIFY_OVERRIDE
  -------         ENDMOD        OBDH_AUTH

  -------         MODULE        OBDH_CONSTANT
  C:0000H         SYMBOL        _ICE_DUMMY_
  X:0000H         PUBLIC        xdatSeg
  C:0FD5H         PUBLIC        Constant_init
  -------         PROC          CONSTANT_INIT
  -------         DO            
  X:16F7H         SYMBOL        count
  -------         ENDDO         
  C:0FD5H         LINE#         37
  C:0FD5H         LINE#         38
  C:0FDAH         LINE#         39
  C:104AH         LINE#         40
  C:10BAH         LINE#         41
  C:112AH         LINE#         42
  C:119AH         LINE#         43
  C:120AH         LINE#         45
  C:127AH         LINE#         46
  C:12EAH         LINE#         47
  C:135AH         LINE#         48
  C:13C9H         LINE#         49
  C:1439H         LINE#         51
  C:14A9H         LINE#         52
  C:1519H         LINE#         53
  C:1588H         LINE#         54
  C:15F8H         LINE#         55
BL51 BANKED LINKER/LOCATER V6.22                                                      05/20/2014  11:03:55  PAGE 71


  C:1668H         LINE#         57
  C:16D8H         LINE#         58
  C:1748H         LINE#         59
  C:17B8H         LINE#         60
  C:1828H         LINE#         61
  C:1898H         LINE#         63
  C:1908H         LINE#         64
  C:1978H         LINE#         65
  C:19E8H         LINE#         66
  C:1A58H         LINE#         72
  C:1A67H         LINE#         74
  C:1A71H         LINE#         75
  C:1A7BH         LINE#         76
  C:1A81H         LINE#         77
  C:1A87H         LINE#         79
  C:1A92H         LINE#         80
  C:1A97H         LINE#         81
  C:1AA1H         LINE#         82
  C:1AA7H         LINE#         83
  C:1AB1H         LINE#         85
  C:1ABBH         LINE#         86
  C:1AC0H         LINE#         87
  C:1ACAH         LINE#         88
  C:1AF2H         LINE#         89
  C:1AF8H         LINE#         90
  C:1B00H         LINE#         92
  C:1B0AH         LINE#         93
  C:1B10H         LINE#         94
  C:1B1AH         LINE#         96
  C:1B23H         LINE#         97
  C:1B2BH         LINE#         98
  C:1B33H         LINE#         99
  C:1B38H         LINE#         101
  C:1B42H         LINE#         102
  C:1B4BH         LINE#         103
  C:1B51H         LINE#         104
  C:1B56H         LINE#         106
  C:1B5BH         LINE#         107
  C:1B65H         LINE#         109
  C:1B6FH         LINE#         110
  C:1B75H         LINE#         112
  C:1B7AH         LINE#         113
  C:1B80H         LINE#         114
  C:1B88H         LINE#         115
  C:1B90H         LINE#         116
  C:1B9FH         LINE#         117
  C:1BAEH         LINE#         119
  C:1BBDH         LINE#         121
  C:1BC5H         LINE#         122
  C:1BCBH         LINE#         124
  C:1BDAH         LINE#         125
  C:1BE5H         LINE#         126
  C:1BEFH         LINE#         128
  C:1BF5H         LINE#         129
  C:1BFEH         LINE#         131
  C:1C09H         LINE#         133
  C:1C14H         LINE#         135
BL51 BANKED LINKER/LOCATER V6.22                                                      05/20/2014  11:03:55  PAGE 72


  C:1C1AH         LINE#         137
  C:1C22H         LINE#         139
  C:1C27H         LINE#         140
  C:1C2CH         LINE#         141
  -------         ENDPROC       CONSTANT_INIT
  -------         ENDMOD        OBDH_CONSTANT

  -------         MODULE        OBDH_CQT
  C:0000H         SYMBOL        _ICE_DUMMY_
  C:CFE1H         PUBLIC        Cqt_startUp
  C:BC28H         PUBLIC        Cqt_clearRxBuffer
  C:CC01H         PUBLIC        Cqt_init
  B:00A8H.4       PUBLIC        ES0
  C:5E19H         PUBLIC        Cqt_handler
  C:D0CCH         PUBLIC        _Cqt_sendCommand
  C:A336H         PUBLIC        Cqt_processFrame
  -------         PROC          CQT_INIT
  C:CC01H         LINE#         31
  C:CC01H         LINE#         32
  C:CC10H         LINE#         33
  C:CC1AH         LINE#         34
  C:CC23H         LINE#         35
  C:CC29H         LINE#         36
  C:CC2FH         LINE#         37
  C:CC34H         LINE#         38
  C:CC3AH         LINE#         39
  -------         ENDPROC       CQT_INIT
  -------         PROC          CQT_CLEARRXBUFFER
  -------         DO            
  X:16D7H         SYMBOL        count
  X:16D8H         SYMBOL        value
  -------         ENDDO         
  C:BC28H         LINE#         42
  C:BC28H         LINE#         45
  C:BC38H         LINE#         46
  C:BC4FH         LINE#         47
  C:BC58H         LINE#         48
  C:BC80H         LINE#         49
  C:BC82H         LINE#         50
  C:BC8BH         LINE#         51
  -------         ENDPROC       CQT_CLEARRXBUFFER
  -------         PROC          CQT_STARTUP
  C:CFE1H         LINE#         53
  C:CFE1H         LINE#         54
  C:CFEFH         LINE#         55
  C:CFF7H         LINE#         57
  C:D001H         LINE#         58
  C:D009H         LINE#         59
  C:D012H         LINE#         60
  -------         ENDPROC       CQT_STARTUP
  -------         PROC          _CQT_SENDCOMMAND
  X:16F8H         SYMBOL        valid
  C:D0CCH         LINE#         64
  C:D0D1H         LINE#         65
  C:D0E5H         LINE#         66
  C:D0F9H         LINE#         67
  -------         ENDPROC       _CQT_SENDCOMMAND
BL51 BANKED LINKER/LOCATER V6.22                                                      05/20/2014  11:03:55  PAGE 73


  -------         PROC          CQT_PROCESSFRAME
  -------         DO            
  X:1684H         SYMBOL        valid
  X:1685H         SYMBOL        length
  -------         ENDDO         
  C:A336H         LINE#         73
  C:A336H         LINE#         76
  C:A33FH         LINE#         77
  C:A363H         LINE#         78
  C:A366H         LINE#         80
  C:A378H         LINE#         81
  C:A380H         LINE#         82
  C:A399H         LINE#         83
  C:A39BH         LINE#         84
  C:A3ACH         LINE#         85
  C:A3AEH         LINE#         86
  C:A3BFH         LINE#         87
  C:A3CDH         LINE#         88
  C:A3CFH         LINE#         89
  C:A3DDH         LINE#         90
  C:A3E2H         LINE#         91
  -------         ENDPROC       CQT_PROCESSFRAME
  -------         PROC          CQT_HANDLER
  C:5E19H         LINE#         96
  C:5E19H         LINE#         97
  C:5E3EH         LINE#         98
  C:5E3EH         LINE#         99
  C:5E3FH         LINE#         100
  C:5E3FH         LINE#         101
  C:5E45H         LINE#         103
  C:5E46H         LINE#         104
  C:5E46H         LINE#         105
  C:5E4BH         LINE#         106
  C:5E58H         LINE#         107
  C:5E5EH         LINE#         108
  C:5E5FH         LINE#         109
  C:5E5FH         LINE#         110
  C:5E6EH         LINE#         111
  C:5E7AH         LINE#         112
  C:5E7DH         LINE#         113
  C:5E80H         LINE#         114
  C:5E86H         LINE#         115
  C:5E87H         LINE#         116
  C:5E8DH         LINE#         117
  C:5E8EH         LINE#         118
  C:5E8EH         LINE#         119
  C:5EA5H         LINE#         120
  C:5EBCH         LINE#         121
  C:5EC4H         LINE#         122
  C:5EC4H         LINE#         123
  C:5ED6H         LINE#         124
  C:5EDCH         LINE#         125
  C:5EDCH         LINE#         126
  C:5F38H         LINE#         130
  C:5F3EH         LINE#         131
  C:5F3FH         LINE#         132
  C:5F3FH         LINE#         133
BL51 BANKED LINKER/LOCATER V6.22                                                      05/20/2014  11:03:55  PAGE 74


  C:5F4BH         LINE#         134
  C:5F62H         LINE#         135
  C:5F6AH         LINE#         136
  C:5F6AH         LINE#         137
  C:5F6DH         LINE#         138
  C:5F7BH         LINE#         139
  C:5F80H         LINE#         140
  C:5F80H         LINE#         141
  C:5F86H         LINE#         142
  C:5F86H         LINE#         143
  C:5F87H         LINE#         144
  C:5F87H         LINE#         145
  C:5F8DH         LINE#         147
  C:5F8EH         LINE#         148
  C:5F8EH         LINE#         149
  C:5F9AH         LINE#         150
  C:5FA1H         LINE#         151
  C:5FA1H         LINE#         152
  C:5FA6H         LINE#         153
  C:5FA9H         LINE#         154
  C:5FAEH         LINE#         155
  C:5FAEH         LINE#         156
  C:5FAFH         LINE#         157
  C:5FAFH         LINE#         158
  C:5FB4H         LINE#         159
  C:5FB4H         LINE#         160
  C:5FB4H         LINE#         161
  -------         ENDPROC       CQT_HANDLER
  -------         ENDMOD        OBDH_CQT

  -------         MODULE        OBDH_DEBUG
  C:0000H         SYMBOL        _ICE_DUMMY_
  C:D229H         PUBLIC        Debug_init
  X:04BEH         PUBLIC        debug_index
  X:04BFH         PUBLIC        debug_container
  C:8C87H         PUBLIC        Debug_loopDownlink
  -------         PROC          DEBUG_INIT
  C:D229H         LINE#         31
  C:D229H         LINE#         32
  C:D230H         LINE#         33
  C:D23DH         LINE#         34
  C:D24AH         LINE#         35
  C:D250H         LINE#         36
  -------         ENDPROC       DEBUG_INIT
  -------         PROC          DEBUG_LOOPDOWNLINK
  -------         DO            
  X:16F9H         SYMBOL        index
  -------         ENDDO         
  C:8C87H         LINE#         38
  C:8C87H         LINE#         40
  C:8C96H         LINE#         41
  C:8C9FH         LINE#         42
  C:8CB4H         LINE#         43
  C:8CBAH         LINE#         44
  C:8CCDH         LINE#         45
  C:8CD5H         LINE#         46
  C:8CE6H         LINE#         47
BL51 BANKED LINKER/LOCATER V6.22                                                      05/20/2014  11:03:55  PAGE 75


  C:8D0CH         LINE#         48
  C:8D66H         LINE#         49
  C:8D67H         LINE#         50
  C:8D67H         LINE#         51
  C:8D70H         LINE#         52
  -------         ENDPROC       DEBUG_LOOPDOWNLINK
  -------         ENDMOD        OBDH_DEBUG

  -------         MODULE        OBDH_EVENTS
  C:0000H         SYMBOL        _ICE_DUMMY_
  C:D182H         PUBLIC        _State_timeout_Override
  C:D740H         PUBLIC        Uptime_storeVitals_Override
  C:D74DH         PUBLIC        _Mccif_setCompleted_Override
  -------         PROC          _MCCIF_SETCOMPLETED_OVERRIDE
  X:16D9H         SYMBOL        offset
  C:D74DH         LINE#         19
  C:D755H         LINE#         20
  C:D755H         LINE#         21
  C:D758H         LINE#         22
  -------         ENDPROC       _MCCIF_SETCOMPLETED_OVERRIDE
  -------         PROC          _STATE_TIMEOUT_OVERRIDE
  X:157CH         SYMBOL        state
  -------         DO            
  X:157FH         SYMBOL        dummy
  -------         ENDDO         
  C:D182H         LINE#         24
  C:D18DH         LINE#         25
  C:D1A3H         LINE#         27
  C:D1ACH         LINE#         28
  -------         ENDPROC       _STATE_TIMEOUT_OVERRIDE
  -------         PROC          UPTIME_STOREVITALS_OVERRIDE
  C:D740H         LINE#         31
  C:D740H         LINE#         32
  C:D743H         LINE#         33
  C:D74CH         LINE#         34
  -------         ENDPROC       UPTIME_STOREVITALS_OVERRIDE
  -------         ENDMOD        OBDH_EVENTS

  -------         MODULE        OBDH_GLOBALVARIABLES
  C:0000H         SYMBOL        _ICE_DUMMY_
  X:06AEH         PUBLIC        g_pinFrame
  X:0620H         PUBLIC        g_imc
  X:04FAH         PUBLIC        g_statetask_wireUp
  X:04EEH         PUBLIC        g_statetask_trxuvHk
  X:06A4H         PUBLIC        screen
  X:0708H         PUBLIC        g_sendAck
  X:04E2H         PUBLIC        g_statetask_pwrsHk
  X:0633H         PUBLIC        g_itc
  X:05D6H         PUBLIC        g_getBlob
  X:0638H         PUBLIC        g_putFrame
  X:053FH         PUBLIC        g_trxuv
  X:051EH         PUBLIC        g_statetask_ferryXBee
  X:072FH         PUBLIC        isRadioUp
  X:06D6H         PUBLIC        g_c_adcsIsReadyIn
  X:0578H         PUBLIC        uptime
  X:0066H         PUBLIC        g_c_BinaryType
  X:06E5H         PUBLIC        g_cqtInfo
BL51 BANKED LINKER/LOCATER V6.22                                                      05/20/2014  11:03:55  PAGE 76


  X:06B7H         PUBLIC        g_manifest
  X:0672H         PUBLIC        g_scheduleAdd
  X:05F2H         PUBLIC        sd_card_store_failures
  X:0536H         PUBLIC        mainState
  X:06BFH         PUBLIC        g_intercom
  X:06C6H         PUBLIC        g_obdh_mccifSignal
  X:0586H         PUBLIC        chip_meta
  X:0064H         PUBLIC        g_s_BinaryId
  X:05B8H         PUBLIC        g_sdcard
  X:0518H         PUBLIC        g_statetask_ferryCam
  X:06FDH         PUBLIC        g_c_byPassPowerCheckOnComm
  X:05F4H         PUBLIC        g_slow_gndPass
  X:06D5H         PUBLIC        g_c_sendAck_flag
  X:05F7H         PUBLIC        g_gndCommand
  X:050CH         PUBLIC        g_statetask_scheduler
  X:0730H         PUBLIC        i2c_rxbuffer
  X:081EH         PUBLIC        i2c_txbuffer
  X:015EH         PUBLIC        schedule
  X:04E8H         PUBLIC        g_statetask_adcsHk
  X:0069H         PUBLIC        g_c_BinaryContent
  X:0524H         PUBLIC        g_statetask_ferryGps
  X:0500H         PUBLIC        g_statetask_radioUp
  X:013CH         PUBLIC        g_us_BinaryCheck
  X:05FBH         PUBLIC        g_slow_beacon
  X:05C7H         PUBLIC        g_hashFrame
  X:0530H         PUBLIC        g_statetask_powerCqt
  X:090CH         PUBLIC        xdata_txbuffer
  X:0555H         PUBLIC        g_task_mccif
  X:0612H         PUBLIC        g_rtHk
  X:0067H         PUBLIC        g_us_BinaryFrame
  X:052AH         PUBLIC        g_statetask_rtcSync
  X:061FH         PUBLIC        g_c_gearbox_switch
  X:0512H         PUBLIC        g_statetask_downlink
  X:05D1H         PUBLIC        g_hashBlob
  X:09FAH         PUBLIC        readbackcopy
  X:05FEH         PUBLIC        g_c_beacon
  X:05F0H         PUBLIC        g_us_obdh_channel_status
  X:0645H         PUBLIC        g_getFrame
  X:04F4H         PUBLIC        g_statetask_xdatSegGet
  X:06D7H         PUBLIC        g_timekeeper
  X:06FEH         PUBLIC        g_sdConfig
  X:0506H         PUBLIC        g_statetask_cmdHandler
  X:0726H         PUBLIC        g_auth
  X:0AE8H         PUBLIC        txframeRelay
  -------         ENDMOD        OBDH_GLOBALVARIABLES

  -------         MODULE        OBDH_GRACE
  C:0000H         SYMBOL        _ICE_DUMMY_
  X:16DBH         PUBLIC        gndPass_absoluteTime
  C:3B30H         PUBLIC        Grace_eachSecond
  -------         PROC          GRACE_EACHSECOND
  C:3B30H         LINE#         44
  C:3B30H         LINE#         46
  C:3B36H         LINE#         47
  C:3B3CH         LINE#         48
  C:3B63H         LINE#         49
  C:3B69H         LINE#         50
BL51 BANKED LINKER/LOCATER V6.22                                                      05/20/2014  11:03:55  PAGE 77


  C:3B7AH         LINE#         51
  C:3B84H         LINE#         52
  C:3B96H         LINE#         53
  C:3B9CH         LINE#         57
  C:3BA2H         LINE#         64
  C:3BD9H         LINE#         65
  C:3BE1H         LINE#         66
  C:3BE9H         LINE#         67
  C:3BECH         LINE#         68
  C:3BECH         LINE#         70
  C:3C2FH         LINE#         71
  C:3C3AH         LINE#         73
  C:3C53H         LINE#         75
  C:3C81H         LINE#         77
  C:3C8DH         LINE#         78
  C:3CB1H         LINE#         80
  C:3CCAH         LINE#         81
  C:3CD3H         LINE#         84
  C:3CDCH         LINE#         85
  C:3CEAH         LINE#         86
  C:3CF3H         LINE#         87
  C:3D04H         LINE#         88
  C:3D0DH         LINE#         89
  C:3D0DH         LINE#         91
  C:3D15H         LINE#         92
  C:3D1EH         LINE#         93
  C:3D26H         LINE#         94
  C:3D26H         LINE#         96
  C:3D32H         LINE#         97
  C:3D4EH         LINE#         98
  C:3D62H         LINE#         100
  C:3D6AH         LINE#         101
  C:3D73H         LINE#         102
  C:3D7CH         LINE#         103
  C:3D90H         LINE#         104
  C:3D95H         LINE#         105
  C:3D95H         LINE#         107
  C:3DA5H         LINE#         108
  C:3E06H         LINE#         110
  C:3E09H         LINE#         111
  -------         ENDPROC       GRACE_EACHSECOND
  -------         ENDMOD        OBDH_GRACE

  -------         MODULE        OBDH_MAIN
  C:0000H         SYMBOL        _ICE_DUMMY_
  B:00A8H.7       PUBLIC        EA
  X:0BD6H         PUBLIC        UART0_rx_buffer
  X:0CD0H         PUBLIC        UART1_rx_buffer
  X:0D50H         PUBLIC        UART0_tx_buffer
  X:0D70H         PUBLIC        UART1_tx_buffer
  C:1C2DH         PUBLIC        main
  X:0F50H         PUBLIC        sfrStack
  -------         PROC          MAIN
  -------         DO            
  X:16FAH         SYMBOL        osc_gear
  -------         ENDDO         
  C:1C2DH         LINE#         42
BL51 BANKED LINKER/LOCATER V6.22                                                      05/20/2014  11:03:55  PAGE 78


  C:1C2DH         LINE#         44
  C:1C33H         LINE#         45
  C:1C36H         LINE#         46
  C:1C3EH         LINE#         47
  C:1C4BH         LINE#         48
  C:1C4EH         LINE#         49
  C:1C51H         LINE#         52
  C:1C8BH         LINE#         53
  C:1CA9H         LINE#         54
  C:1CE1H         LINE#         55
  C:1CF2H         LINE#         56
  C:1D1DH         LINE#         57
  C:1D56H         LINE#         58
  C:1D8AH         LINE#         59
  C:1DA5H         LINE#         60
  C:1DB2H         LINE#         61
  C:1DCBH         LINE#         62
  C:1DDCH         LINE#         65
  C:1DE3H         LINE#         66
  C:1DECH         LINE#         67
  C:1DEEH         LINE#         69
  C:1DF1H         LINE#         70
  C:1DF4H         LINE#         71
  C:1DF7H         LINE#         72
  C:1E1DH         LINE#         74
  C:1E43H         LINE#         75
  C:1E62H         LINE#         76
  C:1E65H         LINE#         77
  C:1E68H         LINE#         79
  C:1E97H         LINE#         80
  C:1EA4H         LINE#         81
  C:1EB1H         LINE#         82
  C:1EBEH         LINE#         83
  C:1ECBH         LINE#         84
  C:1ED8H         LINE#         85
  C:1EE5H         LINE#         86
  C:1EF2H         LINE#         87
  C:1EFFH         LINE#         88
  C:1F0CH         LINE#         89
  C:1F19H         LINE#         90
  C:1F26H         LINE#         91
  C:1F33H         LINE#         92
  C:1F40H         LINE#         93
  C:1F4DH         LINE#         95
  C:1F52H         LINE#         97
  C:1F55H         LINE#         98
  C:1F58H         LINE#         100
  C:1F5BH         LINE#         101
  C:1F81H         LINE#         103
  C:1F8EH         LINE#         107
  C:1F91H         LINE#         108
  C:1F91H         LINE#         110
  C:1F97H         LINE#         112
  C:1F9DH         LINE#         113
  C:1FA0H         LINE#         114
  C:1FA3H         LINE#         115
  C:1FA3H         LINE#         117
BL51 BANKED LINKER/LOCATER V6.22                                                      05/20/2014  11:03:55  PAGE 79


  C:1FA6H         LINE#         119
  C:1FDDH         LINE#         120
  C:2014H         LINE#         121
  C:204BH         LINE#         122
  C:2082H         LINE#         123
  C:20B9H         LINE#         124
  C:20F0H         LINE#         125
  C:2127H         LINE#         126
  C:215EH         LINE#         127
  C:2195H         LINE#         128
  C:21CCH         LINE#         129
  C:2203H         LINE#         130
  C:223AH         LINE#         131
  C:2271H         LINE#         132
  C:22A8H         LINE#         134
  C:22ABH         LINE#         136
  C:22AEH         LINE#         137
  C:22AEH         LINE#         138
  C:22B1H         LINE#         139
  -------         ENDPROC       MAIN
  -------         ENDMOD        OBDH_MAIN

  -------         MODULE        OBDH_PORT
  C:0000H         SYMBOL        _ICE_DUMMY_
  D:0080H         PUBLIC        P0
  D:0090H         PUBLIC        P1
  D:00C8H         PUBLIC        P4
  D:00A4H         PUBLIC        P0MDOUT
  D:00A5H         PUBLIC        P1MDOUT
  D:009CH         PUBLIC        P4MDOUT
  D:009DH         PUBLIC        P5MDOUT
  D:009EH         PUBLIC        P6MDOUT
  D:009FH         PUBLIC        P7MDOUT
  B:00C8H.1       PUBLIC        ON_SD
  D:00E1H         PUBLIC        XBR0
  D:00E3H         PUBLIC        XBR2
  B:00F8H.2       PUBLIC        NSSMD0
  C:CCE6H         PUBLIC        Port_init
  B:00C8H.4       PUBLIC        OE_USB
  -------         PROC          PORT_INIT
  C:CCE6H         LINE#         16
  C:CCE6H         LINE#         91
  C:CCEBH         LINE#         111
  C:CCEEH         LINE#         113
  C:CCF1H         LINE#         117
  C:CCF4H         LINE#         119
  C:CCF7H         LINE#         121
  C:CCFAH         LINE#         123
  C:CCFDH         LINE#         125
  C:CD00H         LINE#         127
  C:CD03H         LINE#         131
  C:CD06H         LINE#         132
  C:CD08H         LINE#         135
  C:CD0BH         LINE#         136
  C:CD0EH         LINE#         137
  C:CD11H         LINE#         138
  C:CD14H         LINE#         140
BL51 BANKED LINKER/LOCATER V6.22                                                      05/20/2014  11:03:55  PAGE 80


  C:CD16H         LINE#         141
  C:CD18H         LINE#         143
  C:CD1BH         LINE#         145
  C:CD1EH         LINE#         146
  -------         ENDPROC       PORT_INIT
  -------         ENDMOD        OBDH_PORT

  -------         MODULE        OBDH_RECON
  C:0000H         SYMBOL        _ICE_DUMMY_
  C:BED0H         PUBLIC        _Subsystem_isAvailable
  C:A53AH         PUBLIC        Recon_ChannelStatusUpdated_Event
  C:D78DH         PUBLIC        SDCard_isAvailable
  C:D793H         PUBLIC        Recon_isDebugPrintEnabled
  C:CB8AH         PUBLIC        _Recon_debugPrint
  -------         PROC          _SUBSYSTEM_ISAVAILABLE
  X:16FBH         SYMBOL        address
  C:BED0H         LINE#         20
  C:BED5H         LINE#         21
  C:BEEBH         LINE#         22
  C:BEEBH         LINE#         23
  C:BEEEH         LINE#         24
  C:BEEEH         LINE#         25
  C:BF11H         LINE#         26
  C:BF11H         LINE#         27
  C:BF2CH         LINE#         28
  C:BF2CH         LINE#         29
  C:BF2EH         LINE#         30
  -------         ENDPROC       _SUBSYSTEM_ISAVAILABLE
  -------         PROC          SDCARD_ISAVAILABLE
  C:D78DH         LINE#         32
  C:D78DH         LINE#         33
  C:D792H         LINE#         34
  -------         ENDPROC       SDCARD_ISAVAILABLE
  -------         PROC          RECON_CHANNELSTATUSUPDATED_EVENT
  -------         DO            
  X:16DDH         SYMBOL        mask
  -------         ENDDO         
  C:A53AH         LINE#         39
  C:A53AH         LINE#         41
  C:A546H         LINE#         42
  C:A54CH         LINE#         44
  C:A555H         LINE#         45
  C:A57BH         LINE#         46
  C:A58EH         LINE#         48
  C:A597H         LINE#         50
  C:A5A0H         LINE#         51
  C:A5C6H         LINE#         52
  C:A5D8H         LINE#         54
  C:A5E1H         LINE#         56
  -------         ENDPROC       RECON_CHANNELSTATUSUPDATED_EVENT
  -------         PROC          RECON_ISDEBUGPRINTENABLED
  C:D793H         LINE#         60
  C:D793H         LINE#         61
  C:D798H         LINE#         62
  -------         ENDPROC       RECON_ISDEBUGPRINTENABLED
  -------         PROC          _RECON_DEBUGPRINT
  X:15F1H         SYMBOL        buffer
BL51 BANKED LINKER/LOCATER V6.22                                                      05/20/2014  11:03:55  PAGE 81


  X:15F4H         SYMBOL        length
  C:CB8AH         LINE#         64
  C:CB9DH         LINE#         65
  C:CBA5H         LINE#         66
  C:CBC5H         LINE#         67
  -------         ENDPROC       _RECON_DEBUGPRINT
  -------         ENDMOD        OBDH_RECON

  -------         MODULE        OBDH_SCHEDULE
  C:0000H         SYMBOL        _ICE_DUMMY_
  C:9EF2H         PUBLIC        Schedule_handleAdd
  C:838EH         PUBLIC        _Schedule_remove
  C:A9A1H         PUBLIC        Schedule_bubbleSort
  C:D35BH         PUBLIC        Schedule_holdsEntry
  C:D485H         PUBLIC        Schedule_init
  C:99B1H         PUBLIC        _Schedule_swap
  C:C5D8H         PUBLIC        Schedule_size
  C:003EH         PUBLIC        Schedule_hasNext
  -------         PROC          SCHEDULE_INIT
  C:D485H         LINE#         13
  C:D485H         LINE#         14
  C:D494H         LINE#         15
  C:D4A3H         LINE#         16
  -------         ENDPROC       SCHEDULE_INIT
  -------         PROC          SCHEDULE_SIZE
  -------         DO            
  X:16FCH         SYMBOL        size
  -------         ENDDO         
  C:C5D8H         LINE#         18
  C:C5D8H         LINE#         20
  C:C5E8H         LINE#         21
  C:C615H         LINE#         22
  C:C623H         LINE#         23
  C:C628H         LINE#         24
  -------         ENDPROC       SCHEDULE_SIZE
  -------         PROC          SCHEDULE_HOLDSENTRY
  C:D35BH         LINE#         26
  C:D35BH         LINE#         27
  C:D37DH         LINE#         28
  -------         ENDPROC       SCHEDULE_HOLDSENTRY
  -------         PROC          _SCHEDULE_SWAP
  X:11FBH         SYMBOL        i1
  X:11FCH         SYMBOL        i2
  -------         DO            
  X:11FDH         SYMBOL        temp
  -------         ENDDO         
  C:99B1H         LINE#         30
  C:99BBH         LINE#         32
  C:99F2H         LINE#         33
  C:9A3BH         LINE#         34
  C:9A72H         LINE#         35
  -------         ENDPROC       _SCHEDULE_SWAP
  -------         PROC          SCHEDULE_BUBBLESORT
  -------         DO            
  X:1687H         SYMBOL        isSwapped
  X:1688H         SYMBOL        size
  X:1689H         SYMBOL        index
BL51 BANKED LINKER/LOCATER V6.22                                                      05/20/2014  11:03:55  PAGE 82


  -------         ENDDO         
  C:A9A1H         LINE#         37
  C:A9A1H         LINE#         41
  C:A9AAH         LINE#         42
  C:A9AAH         LINE#         43
  C:A9AFH         LINE#         44
  C:A9B7H         LINE#         45
  C:A9CCH         LINE#         46
  C:AA10H         LINE#         47
  C:AA20H         LINE#         48
  C:AA26H         LINE#         49
  C:AA2EH         LINE#         50
  C:AA39H         LINE#         51
  -------         ENDPROC       SCHEDULE_BUBBLESORT
  -------         PROC          _SCHEDULE_REMOVE
  X:15F6H         SYMBOL        beg
  X:15F7H         SYMBOL        end
  -------         DO            
  X:15F8H         SYMBOL        index
  X:15F9H         SYMBOL        num
  X:15FAH         SYMBOL        size
  -------         ENDDO         
  C:838EH         LINE#         53
  C:8398H         LINE#         56
  C:83A0H         LINE#         57
  C:83C4H         LINE#         58
  C:83D7H         LINE#         59
  C:83F0H         LINE#         60
  C:844FH         LINE#         61
  C:8471H         LINE#         62
  C:84A2H         LINE#         63
  C:84A2H         LINE#         64
  -------         ENDPROC       _SCHEDULE_REMOVE
  -------         PROC          SCHEDULE_HANDLEADD
  -------         DO            
  X:16DFH         SYMBOL        size
  X:16E0H         SYMBOL        success
  -------         ENDDO         
  C:9EF2H         LINE#         66
  C:9EF2H         LINE#         68
  C:9EF7H         LINE#         69
  C:9F1EH         LINE#         70
  C:9F23H         LINE#         71
  C:9F2BH         LINE#         72
  C:9F69H         LINE#         73
  C:9F71H         LINE#         74
  C:9FA8H         LINE#         76
  C:9FA8H         LINE#         77
  C:9FADH         LINE#         78
  -------         ENDPROC       SCHEDULE_HANDLEADD
  -------         PROC          SCHEDULE_HASNEXT
  C:003EH         LINE#         80
  C:003EH         LINE#         81
  C:0044H         LINE#         82
  C:0047H         LINE#         83
  C:0070H         LINE#         84
  C:0070H         LINE#         85
BL51 BANKED LINKER/LOCATER V6.22                                                      05/20/2014  11:03:55  PAGE 83


  C:0072H         LINE#         86
  -------         ENDPROC       SCHEDULE_HASNEXT
  -------         ENDMOD        OBDH_SCHEDULE

  -------         MODULE        OBDH_SYSTEMCONFIG
  C:0000H         SYMBOL        _ICE_DUMMY_
  C:D64CH         PUBLIC        _System_getCKCON
  C:D635H         PUBLIC        _System_getT1Prescaler
  C:D690H         PUBLIC        _putchar
  -------         PROC          _SYSTEM_GETT1PRESCALER
  X:16FDH         SYMBOL        osc_gear
  C:D635H         LINE#         8
  C:D63AH         LINE#         9
  C:D64BH         LINE#         10
  -------         ENDPROC       _SYSTEM_GETT1PRESCALER
  -------         PROC          _SYSTEM_GETCKCON
  X:16FEH         SYMBOL        osc_gear
  C:D64CH         LINE#         12
  C:D651H         LINE#         13
  C:D662H         LINE#         14
  -------         ENDPROC       _SYSTEM_GETCKCON
  -------         PROC          _PUTCHAR
  X:16FFH         SYMBOL        value
  C:D690H         LINE#         17
  C:D695H         LINE#         18
  C:D69FH         LINE#         19
  C:D6A4H         LINE#         20
  -------         ENDPROC       _PUTCHAR
  -------         ENDMOD        OBDH_SYSTEMCONFIG

  -------         MODULE        OBDH_SYSTEMINIT
  C:0000H         SYMBOL        _ICE_DUMMY_
  B:00A8H.7       PUBLIC        EA
  C:7AA3H         PUBLIC        _SystemInit_chip
  -------         PROC          _SYSTEMINIT_CHIP
  X:1700H         SYMBOL        oscGear
  C:7AA3H         LINE#         27
  C:7AA8H         LINE#         28
  C:7AAAH         LINE#         29
  C:7AACH         LINE#         31
  C:7AB4H         LINE#         32
  C:7AB7H         LINE#         35
  C:7AF1H         LINE#         36
  C:7B0FH         LINE#         37
  C:7B47H         LINE#         38
  C:7B58H         LINE#         39
  C:7B83H         LINE#         40
  C:7B9EH         LINE#         41
  C:7BB7H         LINE#         42
  C:7BC8H         LINE#         44
  C:7BCAH         LINE#         45
  -------         ENDPROC       _SYSTEMINIT_CHIP
  -------         ENDMOD        OBDH_SYSTEMINIT

  -------         MODULE        OBDH_TIMER
  C:0000H         SYMBOL        _ICE_DUMMY_
  C:CB11H         PUBLIC        Timer2_ISR
BL51 BANKED LINKER/LOCATER V6.22                                                      05/20/2014  11:03:55  PAGE 84


  D:0084H         PUBLIC        SFRPAGE
  D:00CCH         PUBLIC        TMR2
  D:00C9H         PUBLIC        TMR2CF
  D:0089H         PUBLIC        TMOD
  D:00C8H         PUBLIC        TMR2CN
  B:00A8H.1       PUBLIC        ET0
  C:9E35H         PUBLIC        _Timer0_init
  B:00A8H.5       PUBLIC        ET2
  B:00C8H.7       PUBLIC        TF2
  D:008CH         PUBLIC        TH0
  C:C586H         PUBLIC        _Timer2_init
  D:008AH         PUBLIC        TL0
  B:0088H.4       PUBLIC        TR0
  B:00C8H.2       PUBLIC        TR2
  D:00CAH         PUBLIC        RCAP2
  D:008EH         PUBLIC        CKCON
  -------         PROC          _TIMER0_INIT
  X:14DBH         SYMBOL        sys_clk
  X:14DFH         SYMBOL        p_c_CKCON
  -------         DO            
  X:14E0H         SYMBOL        SFRPAGE_SAVE
  X:14E1H         SYMBOL        timer0_reload
  -------         ENDDO         
  C:9E35H         LINE#         22
  C:9E3BH         LINE#         23
  C:9E41H         LINE#         26
  C:9E44H         LINE#         28
  C:9EC5H         LINE#         30
  C:9ECFH         LINE#         31
  C:9ED9H         LINE#         68
  C:9EDCH         LINE#         69
  C:9EDFH         LINE#         90
  C:9EE6H         LINE#         91
  C:9EE8H         LINE#         92
  C:9EEAH         LINE#         93
  C:9EF1H         LINE#         94
  -------         ENDPROC       _TIMER0_INIT
  -------         PROC          _TIMER2_INIT
  X:15FBH         SYMBOL        sys_clk
  -------         DO            
  X:15FFH         SYMBOL        SFRPAGE_SAVE
  -------         ENDDO         
  C:C586H         LINE#         102
  C:C58CH         LINE#         103
  C:C592H         LINE#         104
  C:C595H         LINE#         105
  C:C598H         LINE#         111
  C:C59BH         LINE#         123
  C:C5C6H         LINE#         124
  C:C5CCH         LINE#         125
  C:C5CEH         LINE#         126
  C:C5D0H         LINE#         127
  C:C5D7H         LINE#         128
  -------         ENDPROC       _TIMER2_INIT
  -------         PROC          TIMER2_ISR
  C:CB11H         LINE#         130
  C:CB2EH         LINE#         131
BL51 BANKED LINKER/LOCATER V6.22                                                      05/20/2014  11:03:55  PAGE 85


  C:CB30H         LINE#         132
  C:CB33H         LINE#         133
  -------         ENDPROC       TIMER2_ISR
  -------         ENDMOD        OBDH_TIMER

  -------         MODULE        OBDH_TIMEKEEPER
  C:0000H         SYMBOL        _ICE_DUMMY_
  C:D67AH         PUBLIC        Timekeeper_init
  C:D76DH         PUBLIC        Timekeeper_handler
  -------         PROC          TIMEKEEPER_INIT
  C:D67AH         LINE#         14
  C:D67AH         LINE#         15
  C:D689H         LINE#         16
  C:D68FH         LINE#         17
  -------         ENDPROC       TIMEKEEPER_INIT
  -------         PROC          TIMEKEEPER_HANDLER
  C:D76DH         LINE#         20
  C:D76DH         LINE#         21
  C:D774H         LINE#         22
  C:D774H         LINE#         23
  C:D774H         LINE#         24
  C:D774H         LINE#         25
  -------         ENDPROC       TIMEKEEPER_HANDLER
  -------         ENDMOD        OBDH_TIMEKEEPER

  -------         MODULE        OBDH_TRXUV
  C:0000H         SYMBOL        _ICE_DUMMY_
  C:D2C8H         PUBLIC        Trxuv_getTxRateFactor
  C:C32EH         PUBLIC        Trxuv_init
  C:D763H         PUBLIC        Trxuv_isIdleActive
  C:BC8CH         PUBLIC        Trxuv_isAvailable
  -------         PROC          TRXUV_INIT
  C:C32EH         LINE#         16
  C:C32EH         LINE#         18
  C:C338H         LINE#         19
  C:C342H         LINE#         20
  C:C34CH         LINE#         21
  C:C356H         LINE#         22
  C:C35FH         LINE#         23
  C:C365H         LINE#         24
  C:C36AH         LINE#         25
  C:C373H         LINE#         27
  C:C37DH         LINE#         28
  C:C386H         LINE#         29
  -------         ENDPROC       TRXUV_INIT
  -------         PROC          TRXUV_ISAVAILABLE
  C:BC8CH         LINE#         31
  C:BC8CH         LINE#         32
  C:BCEEH         LINE#         33
  -------         ENDPROC       TRXUV_ISAVAILABLE
  -------         PROC          TRXUV_ISIDLEACTIVE
  C:D763H         LINE#         35
  C:D763H         LINE#         36
  C:D76CH         LINE#         37
  -------         ENDPROC       TRXUV_ISIDLEACTIVE
  -------         PROC          TRXUV_GETTXRATEFACTOR
  -------         DO            
BL51 BANKED LINKER/LOCATER V6.22                                                      05/20/2014  11:03:55  PAGE 86


  X:1701H         SYMBOL        mask
  -------         ENDDO         
  C:D2C8H         LINE#         40
  C:D2C8H         LINE#         42
  C:D2D6H         LINE#         43
  C:D2E6H         LINE#         44
  C:D2EEH         LINE#         45
  -------         ENDPROC       TRXUV_GETTXRATEFACTOR
  -------         ENDMOD        OBDH_TRXUV

  -------         MODULE        RTC_GENERIC
  C:0000H         SYMBOL        _ICE_DUMMY_
  X:1588H         PUBLIC        rtc_rxbuffer
  X:158BH         PUBLIC        rtc_txbuffer
  C:B6AEH         PUBLIC        _Rtc_setRawTime
  C:439BH         PUBLIC        _Rtc_isConsistent
  C:A48FH         PUBLIC        _Rtc_obtainStampGet
  C:CD57H         PUBLIC        _Rtc_init
  C:D4FAH         PUBLIC        Rtc_obtainStampPut
  -------         PROC          _RTC_INIT
  X:1582H         SYMBOL        i2c_txbuffer
  X:1585H         SYMBOL        i2c_rxbuffer
  C:CD57H         LINE#         23
  C:CD62H         LINE#         24
  C:CD78H         LINE#         25
  C:CD8EH         LINE#         26
  -------         ENDPROC       _RTC_INIT
  -------         PROC          _RTC_SETRAWTIME
  X:168AH         SYMBOL        rtcStamp
  C:B6AEH         LINE#         29
  C:B6B9H         LINE#         30
  C:B6CDH         LINE#         31
  C:B704H         LINE#         33
  C:B716H         LINE#         34
  C:B71DH         LINE#         35
  C:B724H         LINE#         36
  -------         ENDPROC       _RTC_SETRAWTIME
  -------         PROC          RTC_OBTAINSTAMPPUT
  C:D4FAH         LINE#         39
  C:D4FAH         LINE#         40
  C:D50CH         LINE#         41
  C:D513H         LINE#         42
  -------         ENDPROC       RTC_OBTAINSTAMPPUT
  -------         PROC          _RTC_ISCONSISTENT
  X:1600H         SYMBOL        rtcStamp
  -------         DO            
  X:1603H         SYMBOL        success
  X:1604H         SYMBOL        value
  -------         ENDDO         
  C:439BH         LINE#         44
  C:43A6H         LINE#         47
  C:43ACH         LINE#         48
  C:43D4H         LINE#         49
  C:4438H         LINE#         50
  C:449CH         LINE#         51
  C:4500H         LINE#         53
  C:4541H         LINE#         54
BL51 BANKED LINKER/LOCATER V6.22                                                      05/20/2014  11:03:55  PAGE 87


  C:4569H         LINE#         55
  C:45AAH         LINE#         56
  C:45D2H         LINE#         57
  C:4636H         LINE#         58
  C:463BH         LINE#         59
  -------         ENDPROC       _RTC_ISCONSISTENT
  -------         PROC          _RTC_OBTAINSTAMPGET
  X:1605H         SYMBOL        rtcStamp
  -------         DO            
  X:1608H         SYMBOL        length
  -------         ENDDO         
  C:A48FH         LINE#         63
  C:A49AH         LINE#         65
  C:A4A9H         LINE#         66
  C:A4BAH         LINE#         67
  C:A4E9H         LINE#         68
  C:A528H         LINE#         69
  C:A537H         LINE#         70
  C:A537H         LINE#         71
  C:A539H         LINE#         72
  -------         ENDPROC       _RTC_OBTAINSTAMPGET
  -------         ENDMOD        RTC_GENERIC

  -------         MODULE        SDCARD_GENERIC
  C:0000H         SYMBOL        _ICE_DUMMY_
  C:AEAEH         PUBLIC        _SD_readBlockData
  C:D0FAH         PUBLIC        SD_initConfig
  C:B636H         PUBLIC        _SD_writeBlockData
  C:9FAEH         PUBLIC        SD_init
  B:00F8H.2       PUBLIC        NSSMD0
  C:D251H         PUBLIC        _SD_crc7Publish
  C:C3E0H         PUBLIC        _SD_getUntil
  C:ABF4H         PUBLIC        _SD_crc7Update
  C:D514H         PUBLIC        SD_spiReadByte
  C:B0C7H         PUBLIC        _SD_crc7Rotate
  X:1705H         PUBLIC        sd_crc7_ply
  C:A5E2H         PUBLIC        _SD_sendCommand
  C:AE24H         PUBLIC        _SD_commandUntil
  C:D605H         PUBLIC        _SD_spiWriteByte
  C:A7CCH         PUBLIC        _SD_readSingleBlock
  C:900AH         PUBLIC        _SD_writeSingleBlock
  C:A72FH         PUBLIC        _SD_getUntilNot
  -------         PROC          SD_INITCONFIG
  C:D0FAH         LINE#         36
  C:D0FAH         LINE#         37
  C:D103H         LINE#         38
  C:D10CH         LINE#         39
  C:D115H         LINE#         40
  C:D11BH         LINE#         41
  C:D121H         LINE#         42
  C:D127H         LINE#         43
  -------         ENDPROC       SD_INITCONFIG
  -------         PROC          _SD_SPIWRITEBYTE
  X:1702H         SYMBOL        value
  C:D605H         LINE#         45
  C:D60AH         LINE#         46
  C:D617H         LINE#         47
BL51 BANKED LINKER/LOCATER V6.22                                                      05/20/2014  11:03:55  PAGE 88


  C:D61CH         LINE#         48
  -------         ENDPROC       _SD_SPIWRITEBYTE
  -------         PROC          SD_SPIREADBYTE
  -------         DO            
  X:1703H         SYMBOL        l_uc_spi_received_buffer
  -------         ENDDO         
  C:D514H         LINE#         50
  C:D514H         LINE#         51
  C:D51AH         LINE#         52
  C:D527H         LINE#         53
  C:D52CH         LINE#         54
  -------         ENDPROC       SD_SPIREADBYTE
  -------         PROC          _SD_CRC7ROTATE
  X:1658H         SYMBOL        crc
  X:1659H         SYMBOL        nxt_byte
  -------         DO            
  X:165AH         SYMBOL        i
  X:165BH         SYMBOL        highest_bit
  -------         ENDDO         
  C:B0C7H         LINE#         60
  C:B0D1H         LINE#         62
  C:B0E1H         LINE#         63
  C:B0F3H         LINE#         64
  C:B122H         LINE#         65
  C:B12AH         LINE#         66
  C:B13CH         LINE#         67
  C:B144H         LINE#         68
  C:B149H         LINE#         69
  -------         ENDPROC       _SD_CRC7ROTATE
  -------         PROC          _SD_CRC7UPDATE
  X:1355H         SYMBOL        msg
  X:1358H         SYMBOL        length
  X:135AH         SYMBOL        crc
  -------         DO            
  X:135BH         SYMBOL        i
  X:135DH         SYMBOL        message
  -------         ENDDO         
  C:ABF4H         LINE#         71
  C:AC07H         LINE#         72
  C:AC0FH         LINE#         73
  C:AC25H         LINE#         74
  C:AC44H         LINE#         75
  C:AC7CH         LINE#         76
  C:AC81H         LINE#         77
  -------         ENDPROC       _SD_CRC7UPDATE
  -------         PROC          _SD_CRC7PUBLISH
  X:1704H         SYMBOL        crc
  C:D251H         LINE#         79
  C:D256H         LINE#         80
  C:D265H         LINE#         81
  C:D273H         LINE#         82
  C:D278H         LINE#         83
  -------         ENDPROC       _SD_CRC7PUBLISH
  -------         PROC          _SD_GETUNTIL
  X:165CH         SYMBOL        response
  X:165DH         SYMBOL        flag
  -------         DO            
BL51 BANKED LINKER/LOCATER V6.22                                                      05/20/2014  11:03:55  PAGE 89


  X:165EH         SYMBOL        value
  X:165FH         SYMBOL        retry
  -------         ENDDO         
  C:C3E0H         LINE#         85
  C:C3EAH         LINE#         87
  C:C3EFH         LINE#         88
  C:C403H         LINE#         89
  C:C40BH         LINE#         90
  C:C421H         LINE#         91
  C:C424H         LINE#         92
  C:C42BH         LINE#         93
  C:C433H         LINE#         94
  C:C435H         LINE#         95
  -------         ENDPROC       _SD_GETUNTIL
  -------         PROC          _SD_GETUNTILNOT
  X:1360H         SYMBOL        response
  X:1361H         SYMBOL        flag
  X:1362H         SYMBOL        delay_10us
  X:1364H         SYMBOL        retry_limit
  X:1365H         SYMBOL        value_p
  -------         DO            
  X:1368H         SYMBOL        retry
  X:1369H         SYMBOL        i
  -------         ENDDO         
  C:A72FH         LINE#         99
  C:A741H         LINE#         102
  C:A755H         LINE#         103
  C:A767H         LINE#         104
  C:A787H         LINE#         105
  C:A78AH         LINE#         106
  C:A7A9H         LINE#         107
  C:A7C0H         LINE#         108
  C:A7C9H         LINE#         109
  C:A7CBH         LINE#         110
  -------         ENDPROC       _SD_GETUNTILNOT
  -------         PROC          _SD_SENDCOMMAND
  X:120FH         SYMBOL        command
  X:1210H         SYMBOL        arg
  X:1214H         SYMBOL        value_p
  X:1217H         SYMBOL        delay_10us
  -------         DO            
  X:1219H         SYMBOL        success
  X:121AH         SYMBOL        array
  -------         ENDDO         
  C:A5E2H         LINE#         114
  C:A5E7H         LINE#         117
  C:A5F5H         LINE#         118
  C:A61AH         LINE#         119
  C:A634H         LINE#         120
  C:A636H         LINE#         121
  C:A643H         LINE#         122
  C:A67FH         LINE#         123
  C:A682H         LINE#         124
  C:A684H         LINE#         126
  C:A689H         LINE#         127
  -------         ENDPROC       _SD_SENDCOMMAND
  -------         PROC          _SD_COMMANDUNTIL
BL51 BANKED LINKER/LOCATER V6.22                                                      05/20/2014  11:03:55  PAGE 90


  X:136BH         SYMBOL        cmd
  X:136CH         SYMBOL        arg
  X:1370H         SYMBOL        response
  X:1371H         SYMBOL        delay_10us
  -------         DO            
  X:1373H         SYMBOL        success
  X:1374H         SYMBOL        value
  X:1375H         SYMBOL        retry
  -------         ENDDO         
  C:AE24H         LINE#         129
  C:AE29H         LINE#         133
  C:AE3DH         LINE#         134
  C:AE83H         LINE#         135
  C:AE99H         LINE#         136
  C:AE9CH         LINE#         137
  C:AEA3H         LINE#         138
  C:AEABH         LINE#         139
  C:AEADH         LINE#         140
  -------         ENDPROC       _SD_COMMANDUNTIL
  -------         PROC          _SD_WRITEBLOCKDATA
  X:14E2H         SYMBOL        buffer
  X:14E5H         SYMBOL        length
  -------         DO            
  X:14E7H         SYMBOL        count
  -------         ENDDO         
  C:B636H         LINE#         142
  C:B649H         LINE#         144
  C:B64EH         LINE#         145
  C:B66EH         LINE#         146
  C:B68EH         LINE#         147
  C:B6A3H         LINE#         148
  C:B6A8H         LINE#         149
  C:B6ADH         LINE#         150
  -------         ENDPROC       _SD_WRITEBLOCKDATA
  -------         PROC          _SD_READBLOCKDATA
  X:14E9H         SYMBOL        buffer
  X:14ECH         SYMBOL        length
  -------         DO            
  X:14EEH         SYMBOL        count
  -------         ENDDO         
  C:AEAEH         LINE#         152
  C:AEC1H         LINE#         154
  C:AED9H         LINE#         155
  C:AEF9H         LINE#         156
  C:AF19H         LINE#         157
  C:AF2CH         LINE#         158
  C:AF2FH         LINE#         159
  C:AF32H         LINE#         160
  C:AF35H         LINE#         161
  -------         ENDPROC       _SD_READBLOCKDATA
  -------         PROC          SD_INIT
  -------         DO            
  X:12D9H         SYMBOL        success
  X:12DAH         SYMBOL        dummy_value
  X:12DBH         SYMBOL        array
  -------         ENDDO         
  C:9FAEH         LINE#         171
BL51 BANKED LINKER/LOCATER V6.22                                                      05/20/2014  11:03:55  PAGE 91


  C:9FAEH         LINE#         172
  C:9FB4H         LINE#         175
  C:9FC3H         LINE#         176
  C:9FEFH         LINE#         177
  C:9FFCH         LINE#         178
  C:A026H         LINE#         179
  C:A02EH         LINE#         180
  C:A031H         LINE#         181
  C:A03EH         LINE#         182
  C:A060H         LINE#         183
  C:A060H         LINE#         184
  C:A065H         LINE#         185
  -------         ENDPROC       SD_INIT
  -------         PROC          _SD_WRITESINGLEBLOCK
  X:1376H         SYMBOL        block
  X:137AH         SYMBOL        buffer
  X:137DH         SYMBOL        length
  -------         DO            
  X:137FH         SYMBOL        value
  X:1380H         SYMBOL        success
  -------         ENDDO         
  C:900AH         LINE#         191
  C:901BH         LINE#         194
  C:9037H         LINE#         195
  C:903AH         LINE#         196
  C:9072H         LINE#         197
  C:907AH         LINE#         198
  C:907DH         LINE#         199
  C:907FH         LINE#         200
  C:9095H         LINE#         201
  C:909FH         LINE#         202
  C:90A2H         LINE#         203
  C:90D7H         LINE#         204
  C:90DAH         LINE#         205
  C:90DFH         LINE#         206
  C:90E1H         LINE#         207
  C:90E3H         LINE#         208
  -------         ENDPROC       _SD_WRITESINGLEBLOCK
  -------         PROC          _SD_READSINGLEBLOCK
  X:13E7H         SYMBOL        block
  X:13EBH         SYMBOL        buffer
  X:13EEH         SYMBOL        length
  -------         DO            
  X:13F0H         SYMBOL        success
  -------         ENDDO         
  C:A7CCH         LINE#         213
  C:A7DDH         LINE#         215
  C:A7F9H         LINE#         216
  C:A7FCH         LINE#         217
  C:A834H         LINE#         218
  C:A83CH         LINE#         219
  C:A83FH         LINE#         220
  C:A841H         LINE#         221
  C:A84BH         LINE#         222
  C:A84EH         LINE#         223
  C:A864H         LINE#         224
  C:A866H         LINE#         225
BL51 BANKED LINKER/LOCATER V6.22                                                      05/20/2014  11:03:55  PAGE 92


  C:A868H         LINE#         226
  -------         ENDPROC       _SD_READSINGLEBLOCK
  -------         ENDMOD        SDCARD_GENERIC

  -------         MODULE        SDCARD_REDUNDANT
  C:0000H         SYMBOL        _ICE_DUMMY_
  X:1594H         PUBLIC        _SDred_check_func
  C:5906H         PUBLIC        _SDred_read
  C:4F9FH         PUBLIC        _SDred_write
  X:1597H         PUBLIC        SDred_readback
  C:CD8FH         PUBLIC        _SDred_init
  -------         PROC          _SDRED_INIT
  X:158EH         SYMBOL        check_func
  X:1591H         SYMBOL        buffer
  C:CD8FH         LINE#         11
  C:CD9AH         LINE#         12
  C:CDB0H         LINE#         13
  C:CDC6H         LINE#         14
  -------         ENDPROC       _SDRED_INIT
  -------         PROC          _SDRED_READ
  X:12E5H         SYMBOL        start_block
  X:12E9H         SYMBOL        buffer
  X:12ECH         SYMBOL        length
  X:12EEH         SYMBOL        copies
  -------         DO            
  X:12EFH         SYMBOL        index
  X:12F0H         SYMBOL        success
  -------         ENDDO         
  C:5906H         LINE#         18
  C:5917H         LINE#         21
  C:5934H         LINE#         22
  C:598DH         LINE#         23
  C:599BH         LINE#         24
  C:59D7H         LINE#         25
  C:59DDH         LINE#         26
  C:59DDH         LINE#         27
  C:59E3H         LINE#         28
  C:5A0FH         LINE#         30
  C:5A68H         LINE#         31
  C:5A76H         LINE#         32
  C:5AB2H         LINE#         33
  C:5AB5H         LINE#         34
  C:5AB5H         LINE#         35
  C:5ABEH         LINE#         36
  C:5AC0H         LINE#         37
  -------         ENDPROC       _SDRED_READ
  -------         PROC          _SDRED_WRITE
  X:12B4H         SYMBOL        start_block
  X:12B8H         SYMBOL        buffer
  X:12BBH         SYMBOL        length
  X:12BDH         SYMBOL        copies
  -------         DO            
  X:12BEH         SYMBOL        index
  X:12BFH         SYMBOL        success
  X:12C0H         SYMBOL        numel
  -------         ENDDO         
  C:4F9FH         LINE#         39
BL51 BANKED LINKER/LOCATER V6.22                                                      05/20/2014  11:03:55  PAGE 93


  C:4FB0H         LINE#         42
  C:4FB5H         LINE#         43
  C:4FD2H         LINE#         44
  C:502BH         LINE#         45
  C:5039H         LINE#         46
  C:5044H         LINE#         47
  C:504AH         LINE#         49
  C:50AEH         LINE#         50
  C:50B4H         LINE#         51
  C:50E0H         LINE#         52
  C:5139H         LINE#         53
  C:5144H         LINE#         54
  C:5144H         LINE#         55
  C:5144H         LINE#         57
  C:514CH         LINE#         58
  C:5152H         LINE#         59
  C:517EH         LINE#         60
  C:517EH         LINE#         61
  C:5187H         LINE#         62
  C:518FH         LINE#         63
  C:519DH         LINE#         64
  C:51A2H         LINE#         65
  -------         ENDPROC       _SDRED_WRITE
  -------         ENDMOD        SDCARD_REDUNDANT

  -------         MODULE        STATE_ADCSHK
  C:0000H         SYMBOL        _ICE_DUMMY_
  C:463CH         PUBLIC        _State_adcsHk
  -------         PROC          _STATE_ADCSHK
  X:1261H         SYMBOL        subtask
  -------         DO            
  X:1264H         SYMBOL        release
  X:1265H         SYMBOL        length
  X:1267H         SYMBOL        adcs_taitime
  X:126BH         SYMBOL        absdiff
  X:126FH         SYMBOL        update
  -------         ENDDO         
  C:463CH         LINE#         21
  C:4647H         LINE#         22
  C:464CH         LINE#         27
  C:466FH         LINE#         28
  C:466FH         LINE#         29
  C:467AH         LINE#         30
  C:4682H         LINE#         31
  C:468FH         LINE#         32
  C:469FH         LINE#         33
  C:46A2H         LINE#         34
  C:46A8H         LINE#         35
  C:46ABH         LINE#         36
  C:46ABH         LINE#         37
  C:46D9H         LINE#         38
  C:46FEH         LINE#         40
  C:4704H         LINE#         41
  C:4711H         LINE#         42
  C:4721H         LINE#         43
  C:4724H         LINE#         44
  C:472AH         LINE#         45
BL51 BANKED LINKER/LOCATER V6.22                                                      05/20/2014  11:03:55  PAGE 94


  C:472AH         LINE#         46
  C:472DH         LINE#         47
  C:472DH         LINE#         48
  C:475BH         LINE#         49
  C:4780H         LINE#         50
  C:47A7H         LINE#         51
  C:47B2H         LINE#         52
  C:47F1H         LINE#         53
  C:480DH         LINE#         54
  C:4824H         LINE#         55
  C:4867H         LINE#         56
  C:4867H         LINE#         58
  C:486FH         LINE#         59
  C:488DH         LINE#         60
  C:489DH         LINE#         61
  C:489FH         LINE#         62
  C:48A5H         LINE#         63
  C:48A5H         LINE#         64
  C:48A7H         LINE#         65
  C:48A7H         LINE#         66
  C:48D1H         LINE#         67
  C:48D7H         LINE#         68
  C:48D7H         LINE#         69
  C:48D7H         LINE#         70
  C:48DCH         LINE#         71
  -------         ENDPROC       _STATE_ADCSHK
  -------         ENDMOD        STATE_ADCSHK

  -------         MODULE        STATE_CMDHANDLER
  C:0000H         SYMBOL        _ICE_DUMMY_
  B:00A8H.7       PUBLIC        EA
  D:0084H         PUBLIC        SFRPAGE
  C:6A53H         PUBLIC        _State_cmdHandler
  D:00EFH         PUBLIC        RSTSRC
  -------         PROC          _STATE_CMDHANDLER
  X:055AH         SYMBOL        subtask
  -------         DO            
  X:055DH         SYMBOL        dummy_buffer
  -------         ENDDO         
  C:6A53H         LINE#         31
  C:6A5EH         LINE#         33
  C:6AB0H         LINE#         34
  C:6AB0H         LINE#         35
  C:6AB3H         LINE#         36
  C:6AB3H         LINE#         37
  C:6AB6H         LINE#         38
  C:6AB9H         LINE#         39
  C:6AB9H         LINE#         40
  C:6ABCH         LINE#         41
  C:6ABFH         LINE#         43
  C:6ABFH         LINE#         44
  C:6ABFH         LINE#         45
  C:6ABFH         LINE#         46
  C:6ABFH         LINE#         47
  C:6ACEH         LINE#         48
  C:6AD1H         LINE#         49
  C:6AD1H         LINE#         51
BL51 BANKED LINKER/LOCATER V6.22                                                      05/20/2014  11:03:55  PAGE 95


  C:6AD6H         LINE#         52
  C:6AD9H         LINE#         53
  C:6AD9H         LINE#         54
  C:6AE4H         LINE#         55
  C:6AE7H         LINE#         57
  C:6AE7H         LINE#         58
  C:6B0AH         LINE#         59
  C:6B10H         LINE#         60
  C:6B1EH         LINE#         61
  C:6B20H         LINE#         62
  C:6B20H         LINE#         63
  C:6B43H         LINE#         64
  C:6B49H         LINE#         65
  C:6B57H         LINE#         66
  C:6B59H         LINE#         67
  C:6B59H         LINE#         68
  C:6B5CH         LINE#         69
  C:6B5EH         LINE#         70
  C:6B5EH         LINE#         71
  C:6B61H         LINE#         72
  C:6B63H         LINE#         73
  C:6B63H         LINE#         74
  C:6B69H         LINE#         75
  C:6B6BH         LINE#         76
  C:6B6BH         LINE#         77
  C:6B71H         LINE#         78
  C:6B73H         LINE#         79
  C:6B73H         LINE#         80
  C:6B75H         LINE#         81
  C:6B78H         LINE#         82
  C:6B7AH         LINE#         84
  C:6B7AH         LINE#         85
  C:6B7AH         LINE#         86
  C:6B82H         LINE#         89
  C:6B9FH         LINE#         90
  C:6BA7H         LINE#         91
  C:6BADH         LINE#         92
  C:6BADH         LINE#         94
  C:6BBDH         LINE#         95
  C:6BBFH         LINE#         96
  -------         ENDPROC       _STATE_CMDHANDLER
  -------         ENDMOD        STATE_CMDHANDLER

  -------         MODULE        STATE_DOWNLINK
  C:0000H         SYMBOL        _ICE_DUMMY_
  C:A68AH         PUBLIC        private_downlinkNextGetFrame
  C:975EH         PUBLIC        private_downlinkNextPinFrame
  C:B540H         PUBLIC        private_downlinkBeacon
  C:AFBCH         PUBLIC        private_advanceGetFrameIndex
  C:B725H         PUBLIC        _private_downlink
  C:C279H         PUBLIC        _private_downlinkBlob
  C:3077H         PUBLIC        _State_downlink
  X:1706H         PUBLIC        downlink_issued
  -------         PROC          _PRIVATE_DOWNLINK
  X:160AH         SYMBOL        buffer
  -------         DO            
  X:160DH         SYMBOL        length
BL51 BANKED LINKER/LOCATER V6.22                                                      05/20/2014  11:03:55  PAGE 96


  -------         ENDDO         
  C:B725H         LINE#         50
  C:B730H         LINE#         52
  C:B746H         LINE#         53
  C:B74CH         LINE#         54
  C:B772H         LINE#         58
  C:B780H         LINE#         59
  C:B796H         LINE#         60
  -------         ENDPROC       _PRIVATE_DOWNLINK
  -------         PROC          PRIVATE_ADVANCEGETFRAMEINDEX
  C:AFBCH         LINE#         62
  C:AFBCH         LINE#         63
  C:AFC2H         LINE#         64
  C:AFD5H         LINE#         65
  C:AFDDH         LINE#         66
  C:B006H         LINE#         67
  C:B033H         LINE#         68
  C:B041H         LINE#         69
  C:B041H         LINE#         70
  -------         ENDPROC       PRIVATE_ADVANCEGETFRAMEINDEX
  -------         PROC          PRIVATE_DOWNLINKNEXTGETFRAME
  -------         DO            
  X:16E1H         SYMBOL        index
  X:16E2H         SYMBOL        status
  -------         ENDDO         
  C:A68AH         LINE#         72
  C:A68AH         LINE#         75
  C:A69FH         LINE#         76
  C:A6D9H         LINE#         77
  C:A70DH         LINE#         78
  C:A716H         LINE#         80
  C:A716H         LINE#         81
  C:A719H         LINE#         82
  C:A725H         LINE#         83
  C:A725H         LINE#         84
  C:A72EH         LINE#         85
  -------         ENDPROC       PRIVATE_DOWNLINKNEXTGETFRAME
  -------         PROC          PRIVATE_DOWNLINKNEXTPINFRAME
  -------         DO            
  X:16E3H         SYMBOL        index
  X:16E4H         SYMBOL        status
  -------         ENDDO         
  C:975EH         LINE#         87
  C:975EH         LINE#         90
  C:9773H         LINE#         91
  C:97ADH         LINE#         92
  C:97E1H         LINE#         93
  C:97EAH         LINE#         94
  C:97F2H         LINE#         95
  C:97FDH         LINE#         97
  C:9806H         LINE#         98
  C:980CH         LINE#         99
  C:980CH         LINE#         100
  C:9812H         LINE#         101
  C:981CH         LINE#         102
  C:981CH         LINE#         103
  C:9825H         LINE#         104
BL51 BANKED LINKER/LOCATER V6.22                                                      05/20/2014  11:03:55  PAGE 97


  -------         ENDPROC       PRIVATE_DOWNLINKNEXTPINFRAME
  -------         PROC          _PRIVATE_DOWNLINKBLOB
  X:168DH         SYMBOL        count
  -------         DO            
  X:168FH         SYMBOL        success
  -------         ENDDO         
  C:C279H         LINE#         106
  C:C281H         LINE#         108
  C:C2C2H         LINE#         109
  C:C2CAH         LINE#         110
  C:C2D3H         LINE#         111
  -------         ENDPROC       _PRIVATE_DOWNLINKBLOB
  -------         PROC          PRIVATE_DOWNLINKBEACON
  C:B540H         LINE#         114
  C:B540H         LINE#         115
  C:B546H         LINE#         116
  C:B54CH         LINE#         117
  C:B552H         LINE#         118
  C:B558H         LINE#         119
  C:B55EH         LINE#         120
  C:B564H         LINE#         121
  C:B56AH         LINE#         122
  C:B570H         LINE#         123
  C:B595H         LINE#         124
  C:B5A0H         LINE#         125
  C:B5ADH         LINE#         126
  C:B5ADH         LINE#         127
  C:B5BBH         LINE#         128
  -------         ENDPROC       PRIVATE_DOWNLINKBEACON
  -------         PROC          _STATE_DOWNLINK
  X:159AH         SYMBOL        subtask
  -------         DO            
  X:159DH         SYMBOL        release
  X:159EH         SYMBOL        index
  X:159FH         SYMBOL        length
  -------         ENDDO         
  C:3077H         LINE#         138
  C:3082H         LINE#         139
  C:3087H         LINE#         142
  C:3096H         LINE#         143
  C:309FH         LINE#         145
  C:30AEH         LINE#         146
  C:30CBH         LINE#         147
  C:30CBH         LINE#         148
  C:30D0H         LINE#         150
  C:30D8H         LINE#         151
  C:30E0H         LINE#         152
  C:30E8H         LINE#         153
  C:30FEH         LINE#         154
  C:3107H         LINE#         155
  C:3107H         LINE#         156
  C:310CH         LINE#         157
  C:310CH         LINE#         159
  C:3114H         LINE#         160
  C:3126H         LINE#         161
  C:3141H         LINE#         162
  C:315CH         LINE#         163
BL51 BANKED LINKER/LOCATER V6.22                                                      05/20/2014  11:03:55  PAGE 98


  C:3173H         LINE#         164
  C:3175H         LINE#         165
  C:317DH         LINE#         167
  C:3188H         LINE#         168
  C:319AH         LINE#         169
  C:31C4H         LINE#         170
  C:31E7H         LINE#         171
  C:3209H         LINE#         172
  C:320BH         LINE#         173
  C:3214H         LINE#         175
  C:321CH         LINE#         176
  C:3233H         LINE#         177
  C:323EH         LINE#         178
  C:324CH         LINE#         179
  C:324CH         LINE#         181
  C:3254H         LINE#         182
  C:3285H         LINE#         183
  C:3288H         LINE#         185
  C:3290H         LINE#         186
  C:32B9H         LINE#         187
  C:32BCH         LINE#         189
  C:32CDH         LINE#         190
  C:32D6H         LINE#         192
  C:32DEH         LINE#         193
  C:32E6H         LINE#         194
  C:32EBH         LINE#         195
  C:32F4H         LINE#         196
  C:32F4H         LINE#         198
  C:3318H         LINE#         199
  C:3320H         LINE#         200
  C:332BH         LINE#         201
  C:3337H         LINE#         202
  C:333AH         LINE#         203
  C:333AH         LINE#         205
  C:3342H         LINE#         206
  C:334FH         LINE#         207
  C:335FH         LINE#         208
  C:3362H         LINE#         209
  C:3383H         LINE#         211
  C:338FH         LINE#         212
  C:3394H         LINE#         213
  C:339AH         LINE#         214
  C:339AH         LINE#         215
  C:339DH         LINE#         216
  C:339DH         LINE#         217
  C:33ACH         LINE#         218
  C:33B5H         LINE#         219
  C:33C4H         LINE#         220
  C:33E1H         LINE#         221
  C:3417H         LINE#         222
  C:3417H         LINE#         223
  C:3433H         LINE#         224
  C:3446H         LINE#         225
  C:3446H         LINE#         226
  C:3446H         LINE#         227
  C:344FH         LINE#         228
  C:345DH         LINE#         229
BL51 BANKED LINKER/LOCATER V6.22                                                      05/20/2014  11:03:55  PAGE 99


  C:3462H         LINE#         230
  C:3462H         LINE#         231
  C:3468H         LINE#         232
  C:3468H         LINE#         233
  C:3468H         LINE#         234
  C:3468H         LINE#         235
  C:3468H         LINE#         236
  C:346DH         LINE#         237
  -------         ENDPROC       _STATE_DOWNLINK
  -------         ENDMOD        STATE_DOWNLINK

  -------         MODULE        STATE_FERRYCCT
  C:0000H         SYMBOL        _ICE_DUMMY_
  C:6761H         PUBLIC        _State_ferryCct
  -------         PROC          _STATE_FERRYCCT
  X:14F0H         SYMBOL        subtask
  -------         DO            
  X:14F3H         SYMBOL        release
  X:14F4H         SYMBOL        value
  X:14F5H         SYMBOL        length
  -------         ENDDO         
  C:6761H         LINE#         17
  C:676CH         LINE#         18
  C:6771H         LINE#         21
  C:6794H         LINE#         22
  C:6794H         LINE#         23
  C:679AH         LINE#         24
  C:67A7H         LINE#         25
  C:67B7H         LINE#         26
  C:67BAH         LINE#         27
  C:67C0H         LINE#         28
  C:67C3H         LINE#         29
  C:67C3H         LINE#         30
  C:67F1H         LINE#         31
  C:67F9H         LINE#         32
  C:6806H         LINE#         33
  C:6816H         LINE#         34
  C:6819H         LINE#         35
  C:681FH         LINE#         36
  C:681FH         LINE#         37
  C:6822H         LINE#         38
  C:6822H         LINE#         39
  C:6850H         LINE#         40
  C:6861H         LINE#         41
  C:6872H         LINE#         42
  C:6877H         LINE#         43
  C:6895H         LINE#         44
  C:68A5H         LINE#         45
  C:68A5H         LINE#         46
  C:68A7H         LINE#         47
  C:68A7H         LINE#         48
  C:68D1H         LINE#         49
  C:68D7H         LINE#         50
  C:68D7H         LINE#         51
  C:68D7H         LINE#         52
  C:68DCH         LINE#         53
  -------         ENDPROC       _STATE_FERRYCCT
BL51 BANKED LINKER/LOCATER V6.22                                                      05/20/2014  11:03:55  PAGE 100


  -------         ENDMOD        STATE_FERRYCCT

  -------         MODULE        STATE_FERRYGPS
  C:0000H         SYMBOL        _ICE_DUMMY_
  C:645BH         PUBLIC        _State_ferryGps
  -------         PROC          _STATE_FERRYGPS
  X:14F7H         SYMBOL        subtask
  -------         DO            
  X:14FAH         SYMBOL        release
  X:14FBH         SYMBOL        length
  X:14FDH         SYMBOL        value
  -------         ENDDO         
  C:645BH         LINE#         16
  C:6466H         LINE#         17
  C:646BH         LINE#         20
  C:648EH         LINE#         21
  C:648EH         LINE#         22
  C:649CH         LINE#         23
  C:64A9H         LINE#         24
  C:64B9H         LINE#         25
  C:64BCH         LINE#         26
  C:64C2H         LINE#         27
  C:64C5H         LINE#         28
  C:64C5H         LINE#         29
  C:64F3H         LINE#         30
  C:64FBH         LINE#         31
  C:6508H         LINE#         32
  C:6518H         LINE#         33
  C:651BH         LINE#         34
  C:6521H         LINE#         35
  C:6521H         LINE#         36
  C:6524H         LINE#         37
  C:6524H         LINE#         38
  C:6552H         LINE#         39
  C:6563H         LINE#         40
  C:6574H         LINE#         41
  C:6579H         LINE#         42
  C:6597H         LINE#         43
  C:65A7H         LINE#         44
  C:65A7H         LINE#         45
  C:65A9H         LINE#         46
  C:65A9H         LINE#         47
  C:65D3H         LINE#         48
  C:65D9H         LINE#         49
  C:65D9H         LINE#         50
  C:65D9H         LINE#         51
  C:65DEH         LINE#         52
  -------         ENDPROC       _STATE_FERRYGPS
  -------         ENDMOD        STATE_FERRYGPS

  -------         MODULE        STATE_FERRYXBEE
  C:0000H         SYMBOL        _ICE_DUMMY_
  C:68DDH         PUBLIC        _State_ferryXBee
  -------         PROC          _STATE_FERRYXBEE
  X:14FEH         SYMBOL        subtask
  -------         DO            
  X:1501H         SYMBOL        release
BL51 BANKED LINKER/LOCATER V6.22                                                      05/20/2014  11:03:55  PAGE 101


  X:1502H         SYMBOL        length
  X:1504H         SYMBOL        value
  -------         ENDDO         
  C:68DDH         LINE#         17
  C:68E8H         LINE#         18
  C:68EDH         LINE#         21
  C:6910H         LINE#         22
  C:6910H         LINE#         23
  C:691DH         LINE#         24
  C:692DH         LINE#         25
  C:6930H         LINE#         26
  C:6930H         LINE#         27
  C:695EH         LINE#         28
  C:6966H         LINE#         30
  C:6973H         LINE#         31
  C:6983H         LINE#         32
  C:6986H         LINE#         33
  C:698CH         LINE#         34
  C:698CH         LINE#         35
  C:698FH         LINE#         36
  C:698FH         LINE#         37
  C:69BDH         LINE#         38
  C:69CEH         LINE#         39
  C:69DFH         LINE#         40
  C:69E8H         LINE#         41
  C:69EDH         LINE#         42
  C:6A0BH         LINE#         43
  C:6A1BH         LINE#         44
  C:6A1BH         LINE#         45
  C:6A1DH         LINE#         46
  C:6A1DH         LINE#         47
  C:6A47H         LINE#         48
  C:6A4DH         LINE#         49
  C:6A4DH         LINE#         50
  C:6A4DH         LINE#         51
  C:6A52H         LINE#         52
  -------         ENDPROC       _STATE_FERRYXBEE
  -------         ENDMOD        STATE_FERRYXBEE

  -------         MODULE        STATE_POWERCQT
  C:0000H         SYMBOL        _ICE_DUMMY_
  C:86B7H         PUBLIC        _State_powerCqt
  B:00A8H.4       PUBLIC        ES0
  -------         PROC          _STATE_POWERCQT
  X:1489H         SYMBOL        subtask
  -------         DO            
  X:148CH         SYMBOL        release
  X:148DH         SYMBOL        length
  X:148FH         SYMBOL        channel
  -------         ENDDO         
  C:86B7H         LINE#         13
  C:86C2H         LINE#         14
  C:86C7H         LINE#         17
  C:86E4H         LINE#         18
  C:86E4H         LINE#         19
  C:86EDH         LINE#         20
  C:86F6H         LINE#         21
BL51 BANKED LINKER/LOCATER V6.22                                                      05/20/2014  11:03:55  PAGE 102


  C:8714H         LINE#         22
  C:8724H         LINE#         23
  C:8730H         LINE#         24
  C:8732H         LINE#         25
  C:873BH         LINE#         26
  C:8759H         LINE#         27
  C:8769H         LINE#         28
  C:876BH         LINE#         29
  C:8771H         LINE#         30
  C:8773H         LINE#         31
  C:8773H         LINE#         32
  C:879DH         LINE#         33
  C:87ACH         LINE#         34
  C:87B2H         LINE#         35
  C:87B8H         LINE#         36
  C:87B8H         LINE#         37
  C:87B8H         LINE#         38
  C:87B8H         LINE#         39
  C:87BDH         LINE#         40
  -------         ENDPROC       _STATE_POWERCQT
  -------         ENDMOD        STATE_POWERCQT

  -------         MODULE        STATE_PWRSHK
  C:0000H         SYMBOL        _ICE_DUMMY_
  C:40D9H         PUBLIC        _State_pwrsHk
  -------         PROC          _STATE_PWRSHK
  X:13F1H         SYMBOL        subtask
  -------         DO            
  X:13F4H         SYMBOL        release
  X:13F5H         SYMBOL        length
  X:13F7H         SYMBOL        pwrs_time
  -------         ENDDO         
  C:40D9H         LINE#         32
  C:40E4H         LINE#         33
  C:40E9H         LINE#         36
  C:4112H         LINE#         37
  C:4112H         LINE#         38
  C:411DH         LINE#         39
  C:4125H         LINE#         41
  C:4132H         LINE#         42
  C:4142H         LINE#         43
  C:4145H         LINE#         44
  C:414BH         LINE#         45
  C:414EH         LINE#         46
  C:414EH         LINE#         47
  C:417CH         LINE#         48
  C:418CH         LINE#         49
  C:418FH         LINE#         51
  C:419CH         LINE#         52
  C:41ACH         LINE#         53
  C:41ACH         LINE#         54
  C:41AFH         LINE#         55
  C:41AFH         LINE#         56
  C:41DDH         LINE#         57
  C:4202H         LINE#         59
  C:420FH         LINE#         60
  C:421FH         LINE#         61
BL51 BANKED LINKER/LOCATER V6.22                                                      05/20/2014  11:03:55  PAGE 103


  C:421FH         LINE#         62
  C:4222H         LINE#         63
  C:4222H         LINE#         64
  C:4250H         LINE#         65
  C:4275H         LINE#         66
  C:427BH         LINE#         67
  C:4287H         LINE#         68
  C:4290H         LINE#         69
  C:42AEH         LINE#         70
  C:42BEH         LINE#         71
  C:42C1H         LINE#         72
  C:42C7H         LINE#         73
  C:42CAH         LINE#         74
  C:42D7H         LINE#         75
  C:42E7H         LINE#         76
  C:42E7H         LINE#         77
  C:42E7H         LINE#         78
  C:42EAH         LINE#         79
  C:42EAH         LINE#         80
  C:4318H         LINE#         81
  C:4321H         LINE#         82
  C:4327H         LINE#         83
  C:4327H         LINE#         84
  C:4329H         LINE#         86
  C:4329H         LINE#         87
  C:4353H         LINE#         88
  C:4367H         LINE#         89
  C:437BH         LINE#         90
  C:438FH         LINE#         91
  C:4395H         LINE#         92
  C:4395H         LINE#         93
  C:4395H         LINE#         94
  C:4395H         LINE#         95
  C:439AH         LINE#         96
  -------         ENDPROC       _STATE_PWRSHK
  -------         ENDMOD        STATE_PWRSHK

  -------         MODULE        STATE_RADIOUP
  C:0000H         SYMBOL        _ICE_DUMMY_
  C:51A3H         PUBLIC        _State_radioUp
  C:85AEH         PUBLIC        _Mccif_localHandle_Override
  C:0003H         PUBLIC        StateUplink_releaseAck
  C:BF2FH         PUBLIC        _StateUplink_prepareAck
  -------         PROC          _STATEUPLINK_PREPAREACK
  X:1690H         SYMBOL        message
  C:BF2FH         LINE#         20
  C:BF3AH         LINE#         22
  C:BF49H         LINE#         23
  C:BF8DH         LINE#         24
  -------         ENDPROC       _STATEUPLINK_PREPAREACK
  -------         PROC          STATEUPLINK_RELEASEACK
  C:0003H         LINE#         27
  C:0003H         LINE#         28
  C:0011H         LINE#         29
  C:001CH         LINE#         30
  C:0022H         LINE#         31
  -------         ENDPROC       STATEUPLINK_RELEASEACK
BL51 BANKED LINKER/LOCATER V6.22                                                      05/20/2014  11:03:55  PAGE 104


  -------         PROC          _MCCIF_LOCALHANDLE_OVERRIDE
  X:160FH         SYMBOL        message
  -------         DO            
  X:1612H         SYMBOL        updated
  X:1613H         SYMBOL        system
  -------         ENDDO         
  C:85AEH         LINE#         37
  C:85B9H         LINE#         38
  C:85BEH         LINE#         40
  C:85DBH         LINE#         41
  C:85F5H         LINE#         42
  C:8603H         LINE#         43
  C:8616H         LINE#         44
  C:8621H         LINE#         45
  C:862FH         LINE#         46
  C:8632H         LINE#         47
  C:8632H         LINE#         48
  C:863FH         LINE#         49
  C:864DH         LINE#         52
  C:86ABH         LINE#         54
  C:86B1H         LINE#         55
  C:86B1H         LINE#         56
  C:86B1H         LINE#         57
  C:86B6H         LINE#         58
  -------         ENDPROC       _MCCIF_LOCALHANDLE_OVERRIDE
  -------         PROC          _STATE_RADIOUP
  X:1491H         SYMBOL        subtask
  -------         DO            
  X:1494H         SYMBOL        release
  X:1495H         SYMBOL        upNumel
  X:1496H         SYMBOL        hasFrame
  X:1497H         SYMBOL        length
  -------         ENDDO         
  C:51A3H         LINE#         67
  C:51AEH         LINE#         68
  C:51B3H         LINE#         72
  C:51BCH         LINE#         73
  C:51DFH         LINE#         74
  C:51DFH         LINE#         75
  C:51E2H         LINE#         76
  C:51EFH         LINE#         77
  C:51FFH         LINE#         78
  C:5202H         LINE#         79
  C:5202H         LINE#         80
  C:5211H         LINE#         81
  C:521DH         LINE#         82
  C:5225H         LINE#         83
  C:522BH         LINE#         84
  C:522EH         LINE#         85
  C:523BH         LINE#         86
  C:524BH         LINE#         87
  C:524EH         LINE#         88
  C:5254H         LINE#         89
  C:5257H         LINE#         91
  C:525DH         LINE#         92
  C:5260H         LINE#         93
  C:5260H         LINE#         94
BL51 BANKED LINKER/LOCATER V6.22                                                      05/20/2014  11:03:55  PAGE 105


  C:526FH         LINE#         95
  C:527EH         LINE#         96
  C:52A9H         LINE#         97
  C:52ACH         LINE#         98
  C:52B7H         LINE#         99
  C:52DCH         LINE#         100
  C:52E2H         LINE#         101
  C:52EEH         LINE#         102
  C:52F7H         LINE#         103
  C:5305H         LINE#         104
  C:530DH         LINE#         105
  C:531BH         LINE#         106
  C:531EH         LINE#         107
  C:5324H         LINE#         108
  C:5326H         LINE#         109
  C:5338H         LINE#         111
  C:533EH         LINE#         112
  C:5340H         LINE#         113
  C:5346H         LINE#         115
  C:5348H         LINE#         116
  C:534EH         LINE#         117
  C:534EH         LINE#         118
  C:5350H         LINE#         119
  C:5350H         LINE#         120
  C:537AH         LINE#         121
  C:537DH         LINE#         122
  C:5380H         LINE#         123
  C:5386H         LINE#         124
  C:5386H         LINE#         125
  C:5388H         LINE#         126
  C:5388H         LINE#         127
  C:538AH         LINE#         128
  C:5390H         LINE#         129
  C:5395H         LINE#         130
  -------         ENDPROC       _STATE_RADIOUP
  -------         ENDMOD        STATE_RADIOUP

  -------         MODULE        STATE_RTCSYNC
  C:0000H         SYMBOL        _ICE_DUMMY_
  C:5AC1H         PUBLIC        _State_rtcSync
  -------         PROC          _STATE_RTCSYNC
  X:1499H         SYMBOL        subtask
  -------         DO            
  X:149CH         SYMBOL        release
  X:149DH         SYMBOL        absdiff
  -------         ENDDO         
  C:5AC1H         LINE#         16
  C:5ACCH         LINE#         17
  C:5AD1H         LINE#         19
  C:5AE7H         LINE#         20
  C:5AE7H         LINE#         21
  C:5AEDH         LINE#         22
  C:5B04H         LINE#         23
  C:5B0DH         LINE#         24
  C:5B13H         LINE#         25
  C:5B13H         LINE#         26
  C:5B19H         LINE#         27
BL51 BANKED LINKER/LOCATER V6.22                                                      05/20/2014  11:03:55  PAGE 106


  C:5B1CH         LINE#         28
  C:5B1CH         LINE#         29
  C:5B1CH         LINE#         30
  C:5B39H         LINE#         31
  C:5B39H         LINE#         32
  C:5B3CH         LINE#         33
  C:5B49H         LINE#         34
  C:5B59H         LINE#         35
  C:5B5CH         LINE#         36
  C:5B5CH         LINE#         37
  C:5B6BH         LINE#         38
  C:5B7AH         LINE#         39
  C:5B89H         LINE#         41
  C:5B96H         LINE#         42
  C:5BD5H         LINE#         43
  C:5BF1H         LINE#         44
  C:5C08H         LINE#         47
  C:5C40H         LINE#         48
  C:5C54H         LINE#         49
  C:5C54H         LINE#         50
  C:5C56H         LINE#         51
  C:5C5CH         LINE#         52
  C:5C62H         LINE#         53
  C:5C62H         LINE#         54
  C:5C64H         LINE#         55
  C:5C64H         LINE#         56
  C:5C66H         LINE#         57
  C:5C66H         LINE#         58
  C:5C6CH         LINE#         59
  C:5C6CH         LINE#         60
  C:5C6CH         LINE#         61
  C:5C71H         LINE#         62
  -------         ENDPROC       _STATE_RTCSYNC
  -------         ENDMOD        STATE_RTCSYNC

  -------         MODULE        STATE_SCHEDULER
  C:0000H         SYMBOL        _ICE_DUMMY_
  C:6FC0H         PUBLIC        _State_scheduler
  -------         PROC          _STATE_SCHEDULER
  X:0651H         SYMBOL        subtask
  -------         DO            
  X:0654H         SYMBOL        release
  X:0655H         SYMBOL        length
  X:0657H         SYMBOL        buffer
  -------         ENDDO         
  C:6FC0H         LINE#         17
  C:6FCBH         LINE#         18
  C:6FD0H         LINE#         21
  C:6FEDH         LINE#         22
  C:6FEDH         LINE#         24
  C:6FF6H         LINE#         25
  C:7004H         LINE#         26
  C:7047H         LINE#         32
  C:7050H         LINE#         33
  C:7057H         LINE#         34
  C:705DH         LINE#         35
  C:7060H         LINE#         36
BL51 BANKED LINKER/LOCATER V6.22                                                      05/20/2014  11:03:55  PAGE 107


  C:706BH         LINE#         37
  C:709DH         LINE#         41
  C:70A6H         LINE#         42
  C:70B6H         LINE#         43
  C:70B8H         LINE#         44
  C:70BEH         LINE#         45
  C:70BEH         LINE#         46
  C:70C0H         LINE#         47
  C:70C6H         LINE#         48
  C:70C8H         LINE#         49
  C:70C8H         LINE#         50
  C:70F2H         LINE#         51
  C:70F9H         LINE#         52
  C:70FFH         LINE#         53
  C:70FFH         LINE#         54
  C:70FFH         LINE#         55
  C:70FFH         LINE#         56
  C:7104H         LINE#         57
  -------         ENDPROC       _STATE_SCHEDULER
  -------         ENDMOD        STATE_SCHEDULER

  -------         MODULE        STATE_TRXUVHK
  C:0000H         SYMBOL        _ICE_DUMMY_
  C:8B9CH         PUBLIC        _State_trxuvHk
  X:1707H         PUBLIC        trxuvHk_cycle
  -------         PROC          _STATE_TRXUVHK
  X:1660H         SYMBOL        subtask
  -------         DO            
  X:1663H         SYMBOL        release
  -------         ENDDO         
  C:8B9CH         LINE#         17
  C:8BA7H         LINE#         18
  C:8BACH         LINE#         19
  C:8BB5H         LINE#         20
  C:8BD2H         LINE#         21
  C:8BD2H         LINE#         22
  C:8BEBH         LINE#         23
  C:8BEBH         LINE#         24
  C:8BEEH         LINE#         25
  C:8BF0H         LINE#         26
  C:8BF0H         LINE#         27
  C:8BF3H         LINE#         28
  C:8BF5H         LINE#         29
  C:8BF5H         LINE#         30
  C:8BF8H         LINE#         31
  C:8BFAH         LINE#         32
  C:8BFAH         LINE#         33
  C:8BFDH         LINE#         34
  C:8BFDH         LINE#         35
  C:8BFDH         LINE#         36
  C:8C0AH         LINE#         37
  C:8C1AH         LINE#         38
  C:8C1CH         LINE#         39
  C:8C1CH         LINE#         40
  C:8C28H         LINE#         41
  C:8C41H         LINE#         42
  C:8C41H         LINE#         43
BL51 BANKED LINKER/LOCATER V6.22                                                      05/20/2014  11:03:55  PAGE 108


  C:8C44H         LINE#         44
  C:8C46H         LINE#         45
  C:8C46H         LINE#         46
  C:8C49H         LINE#         47
  C:8C4BH         LINE#         48
  C:8C4BH         LINE#         49
  C:8C4EH         LINE#         50
  C:8C50H         LINE#         51
  C:8C50H         LINE#         52
  C:8C53H         LINE#         53
  C:8C53H         LINE#         54
  C:8C53H         LINE#         55
  C:8C59H         LINE#         56
  C:8C67H         LINE#         57
  C:8C6DH         LINE#         58
  C:8C6DH         LINE#         59
  C:8C6FH         LINE#         60
  C:8C6FH         LINE#         61
  C:8C71H         LINE#         62
  C:8C76H         LINE#         63
  C:8C7BH         LINE#         64
  C:8C81H         LINE#         65
  C:8C81H         LINE#         66
  C:8C86H         LINE#         67
  -------         ENDPROC       _STATE_TRXUVHK
  -------         ENDMOD        STATE_TRXUVHK

  -------         MODULE        STATE_UTIL
  C:0000H         SYMBOL        _ICE_DUMMY_
  X:1220H         PUBLIC        g_stateTask
  X:1225H         PUBLIC        stateutil_readMax
  X:1227H         PUBLIC        stateLastout
  C:9A73H         PUBLIC        _StateUtil_pokeRequestXdata
  C:815EH         PUBLIC        _StateUtil_peek
  C:C7FDH         PUBLIC        _StateUtil_init
  C:9D76H         PUBLIC        _StateUtil_pokeSetXdata
  X:122BH         PUBLIC        stateutil_read
  X:122EH         PUBLIC        stateutil_write
  -------         PROC          _STATEUTIL_INIT
  X:14A1H         SYMBOL        i2c_write
  X:14A4H         SYMBOL        i2c_read
  X:14A7H         SYMBOL        i2c_readMax
  C:C7FDH         LINE#         24
  C:C808H         LINE#         25
  C:C81EH         LINE#         26
  C:C834H         LINE#         27
  C:C844H         LINE#         28
  -------         ENDPROC       _STATEUTIL_INIT
  -------         PROC          _STATEUTIL_POKEREQUESTXDATA
  X:1505H         SYMBOL        system
  X:1506H         SYMBOL        offset
  X:1508H         SYMBOL        length
  -------         DO            
  X:150AH         SYMBOL        size
  -------         ENDDO         
  C:9A73H         LINE#         30
  C:9A88H         LINE#         32
BL51 BANKED LINKER/LOCATER V6.22                                                      05/20/2014  11:03:55  PAGE 109


  C:9AC6H         LINE#         33
  C:9ADCH         LINE#         34
  C:9AF2H         LINE#         35
  C:9AFCH         LINE#         36
  C:9B06H         LINE#         37
  C:9B16H         LINE#         38
  C:9B23H         LINE#         39
  C:9B34H         LINE#         40
  -------         ENDPROC       _STATEUTIL_POKEREQUESTXDATA
  -------         PROC          _STATEUTIL_POKESETXDATA
  X:13FBH         SYMBOL        system
  X:13FCH         SYMBOL        offset
  X:13FEH         SYMBOL        length
  X:1400H         SYMBOL        value
  -------         DO            
  X:1403H         SYMBOL        size
  -------         ENDDO         
  C:9D76H         LINE#         42
  C:9D8BH         LINE#         44
  C:9DDFH         LINE#         45
  C:9DF5H         LINE#         46
  C:9DFAH         LINE#         47
  C:9E04H         LINE#         48
  C:9E0EH         LINE#         49
  C:9E1EH         LINE#         50
  C:9E23H         LINE#         51
  C:9E34H         LINE#         52
  -------         ENDPROC       _STATEUTIL_POKESETXDATA
  -------         PROC          _STATEUTIL_PEEK
  X:150CH         SYMBOL        length
  X:150FH         SYMBOL        release
  -------         DO            
  X:1512H         SYMBOL        success
  -------         ENDDO         
  C:815EH         LINE#         54
  C:8169H         LINE#         56
  C:817DH         LINE#         57
  C:8198H         LINE#         58
  C:81C3H         LINE#         59
  C:820FH         LINE#         60
  C:8217H         LINE#         61
  C:821CH         LINE#         62
  C:821FH         LINE#         63
  C:821FH         LINE#         64
  C:822DH         LINE#         65
  C:8230H         LINE#         66
  C:823EH         LINE#         67
  C:8243H         LINE#         68
  C:824DH         LINE#         69
  C:825BH         LINE#         70
  C:8272H         LINE#         72
  C:8275H         LINE#         73
  C:8275H         LINE#         74
  C:8277H         LINE#         75
  -------         ENDPROC       _STATEUTIL_PEEK
  -------         ENDMOD        STATE_UTIL

BL51 BANKED LINKER/LOCATER V6.22                                                      05/20/2014  11:03:55  PAGE 110


  -------         MODULE        STATE_WIREUP
  C:0000H         SYMBOL        _ICE_DUMMY_
  C:9826H         PUBLIC        _State_wireUp
  -------         PROC          _STATE_WIREUP
  X:1513H         SYMBOL        subtask
  -------         DO            
  X:1516H         SYMBOL        release
  X:1517H         SYMBOL        updated
  X:1518H         SYMBOL        length
  -------         ENDDO         
  C:9826H         LINE#         14
  C:9831H         LINE#         15
  C:9836H         LINE#         18
  C:9849H         LINE#         19
  C:9866H         LINE#         20
  C:9866H         LINE#         21
  C:986EH         LINE#         22
  C:9876H         LINE#         23
  C:987BH         LINE#         24
  C:9889H         LINE#         25
  C:9891H         LINE#         27
  C:98A1H         LINE#         28
  C:98A3H         LINE#         29
  C:98A9H         LINE#         30
  C:98ABH         LINE#         31
  C:98ABH         LINE#         32
  C:98D5H         LINE#         33
  C:98D8H         LINE#         34
  C:98DEH         LINE#         35
  C:98DEH         LINE#         36
  C:98E0H         LINE#         37
  C:98E0H         LINE#         38
  C:98E2H         LINE#         39
  C:98E8H         LINE#         40
  C:98EDH         LINE#         41
  -------         ENDPROC       _STATE_WIREUP
  -------         ENDMOD        STATE_WIREUP

  -------         MODULE        STATE_XDATSEGGET
  C:0000H         SYMBOL        _ICE_DUMMY_
  X:1708H         PUBLIC        xdatSeg_cycle
  C:7105H         PUBLIC        _private_xdatSegSdStorage
  C:3E0AH         PUBLIC        _State_xdatSegGet
  C:9692H         PUBLIC        _private_xdatSegPropagate
  -------         PROC          _PRIVATE_XDATSEGSDSTORAGE
  X:15A0H         SYMBOL        index
  X:15A1H         SYMBOL        buffer
  X:15A4H         SYMBOL        length
  C:7105H         LINE#         36
  C:7115H         LINE#         37
  C:7126H         LINE#         38
  C:712BH         LINE#         39
  C:7153H         LINE#         40
  C:7180H         LINE#         41
  C:7180H         LINE#         43
  C:718CH         LINE#         44
  C:7194H         LINE#         45
BL51 BANKED LINKER/LOCATER V6.22                                                      05/20/2014  11:03:55  PAGE 111


  C:719AH         LINE#         47
  C:71ABH         LINE#         48
  C:71B1H         LINE#         50
  C:71C7H         LINE#         51
  C:71D1H         LINE#         52
  C:720BH         LINE#         53
  C:7246H         LINE#         54
  C:7246H         LINE#         55
  -------         ENDPROC       _PRIVATE_XDATSEGSDSTORAGE
  -------         PROC          _PRIVATE_XDATSEGPROPAGATE
  X:1405H         SYMBOL        index
  X:1406H         SYMBOL        buffer
  X:1409H         SYMBOL        length
  -------         DO            
  X:140BH         SYMBOL        bitmask
  -------         ENDDO         
  C:9692H         LINE#         58
  C:96A2H         LINE#         60
  C:96ADH         LINE#         61
  C:96C5H         LINE#         62
  C:96FBH         LINE#         63
  C:9729H         LINE#         64
  C:9757H         LINE#         65
  C:975DH         LINE#         66
  C:975DH         LINE#         67
  C:975DH         LINE#         68
  -------         ENDPROC       _PRIVATE_XDATSEGPROPAGATE
  -------         PROC          _STATE_XDATSEGGET
  X:1381H         SYMBOL        subtask
  -------         DO            
  X:1384H         SYMBOL        release
  X:1385H         SYMBOL        address
  X:1386H         SYMBOL        length
  X:1388H         SYMBOL        bitmask
  -------         ENDDO         
  C:3E0AH         LINE#         75
  C:3E15H         LINE#         76
  C:3E1AH         LINE#         80
  C:3E37H         LINE#         81
  C:3E37H         LINE#         82
  C:3E3DH         LINE#         83
  C:3E50H         LINE#         84
  C:3E76H         LINE#         85
  C:3E87H         LINE#         86
  C:3EE9H         LINE#         88
  C:3F07H         LINE#         89
  C:3F25H         LINE#         90
  C:3F36H         LINE#         91
  C:3F3CH         LINE#         92
  C:3F3FH         LINE#         93
  C:3F4DH         LINE#         94
  C:3FBEH         LINE#         98
  C:3FCEH         LINE#         99
  C:3FD1H         LINE#         100
  C:3FE9H         LINE#         101
  C:401FH         LINE#         102
  C:404DH         LINE#         103
BL51 BANKED LINKER/LOCATER V6.22                                                      05/20/2014  11:03:55  PAGE 112


  C:4053H         LINE#         104
  C:4053H         LINE#         105
  C:4053H         LINE#         106
  C:4055H         LINE#         107
  C:4055H         LINE#         108
  C:4080H         LINE#         109
  C:409EH         LINE#         110
  C:40BCH         LINE#         111
  C:40CDH         LINE#         112
  C:40D3H         LINE#         113
  C:40D3H         LINE#         114
  C:40D3H         LINE#         115
  C:40D3H         LINE#         116
  C:40D8H         LINE#         117
  -------         ENDPROC       _STATE_XDATSEGGET
  -------         ENDMOD        STATE_XDATSEGGET

  -------         MODULE        VELOX_BEACON
  C:0000H         SYMBOL        _ICE_DUMMY_
  C:D1ADH         PUBLIC        _Beacon_setUnassigned
  C:D6F2H         PUBLIC        beacon_alphabet
  C:C436H         PUBLIC        _Beacon_identity
  C:6E77H         PUBLIC        _Beacon_linear
  -------         PROC          _BEACON_SETUNASSIGNED
  X:1664H         SYMBOL        buffer
  X:1667H         SYMBOL        length
  C:D1ADH         LINE#         22
  C:D1BDH         LINE#         23
  C:D1D7H         LINE#         24
  -------         ENDPROC       _BEACON_SETUNASSIGNED
  -------         PROC          _BEACON_IDENTITY
  X:1709H         SYMBOL        value
  C:C436H         LINE#         26
  C:C43BH         LINE#         27
  C:C48BH         LINE#         28
  -------         ENDPROC       _BEACON_IDENTITY
  -------         PROC          _BEACON_LINEAR
  X:1242H         SYMBOL        lo
  X:1246H         SYMBOL        value
  X:124AH         SYMBOL        hi
  -------         DO            
  X:124EH         SYMBOL        interp
  -------         ENDDO         
  C:6E77H         LINE#         30
  C:6E7DH         LINE#         32
  C:6EA0H         LINE#         33
  C:6EA7H         LINE#         34
  C:6F09H         LINE#         35
  C:6F8EH         LINE#         36
  C:6FBFH         LINE#         37
  -------         ENDPROC       _BEACON_LINEAR
  -------         ENDMOD        VELOX_BEACON

  -------         MODULE        VELOX_CALENDAR
  C:0000H         SYMBOL        _ICE_DUMMY_
  C:D732H         PUBLIC        calendar_limit_lo
  C:48DDH         PUBLIC        _Calendar_toTai
BL51 BANKED LINKER/LOCATER V6.22                                                      05/20/2014  11:03:55  PAGE 113


  C:5746H         PUBLIC        _Calendar_incrementSeconds
  C:C845H         PUBLIC        _Calendar_isYearWith365Days
  C:CF13H         PUBLIC        _Calendar_initToTai0
  C:784EH         PUBLIC        _Calendar_fromTai
  C:87BEH         PUBLIC        _Calendar_daysSinceTaiUntil
  C:91BAH         PUBLIC        _Calendar_incrementDay
  C:C387H         PUBLIC        _Calendar_daysOfMonth
  C:D739H         PUBLIC        calendar_limit_hi
  C:74C2H         PUBLIC        _Calendar_setFromDays
  -------         PROC          _CALENDAR_INITTOTAI0
  X:1693H         SYMBOL        calendar
  C:CF13H         LINE#         20
  C:CF1EH         LINE#         21
  C:CF48H         LINE#         22
  -------         ENDPROC       _CALENDAR_INITTOTAI0
  -------         PROC          _CALENDAR_ISYEARWITH365DAYS
  X:16E5H         SYMBOL        year
  C:C845H         LINE#         27
  C:C84DH         LINE#         28
  C:C88BH         LINE#         29
  -------         ENDPROC       _CALENDAR_ISYEARWITH365DAYS
  -------         PROC          _CALENDAR_DAYSOFMONTH
  X:1696H         SYMBOL        year
  X:1698H         SYMBOL        month
  C:C387H         LINE#         31
  C:C394H         LINE#         32
  C:C39DH         LINE#         33
  C:C3B2H         LINE#         36
  C:C3DFH         LINE#         37
  -------         ENDPROC       _CALENDAR_DAYSOFMONTH
  -------         PROC          _CALENDAR_DAYSSINCETAIUNTIL
  X:138CH         SYMBOL        year
  X:138EH         SYMBOL        month
  X:138FH         SYMBOL        day
  -------         DO            
  X:1390H         SYMBOL        days
  X:1392H         SYMBOL        yearCount
  X:1394H         SYMBOL        monthCount
  X:1395H         SYMBOL        yearStart
  -------         ENDDO         
  C:87BEH         LINE#         42
  C:87D0H         LINE#         47
  C:87E1H         LINE#         48
  C:87EBH         LINE#         49
  C:87F5H         LINE#         50
  C:87F7H         LINE#         51
  C:8801H         LINE#         52
  C:8809H         LINE#         53
  C:8809H         LINE#         54
  C:8830H         LINE#         55
  C:8864H         LINE#         56
  C:8879H         LINE#         57
  C:889FH         LINE#         58
  C:88BAH         LINE#         59
  C:88C2H         LINE#         60
  -------         ENDPROC       _CALENDAR_DAYSSINCETAIUNTIL
  -------         PROC          _CALENDAR_INCREMENTDAY
BL51 BANKED LINKER/LOCATER V6.22                                                      05/20/2014  11:03:55  PAGE 114


  X:1699H         SYMBOL        calendar
  C:91BAH         LINE#         62
  C:91C5H         LINE#         63
  C:91DBH         LINE#         64
  C:921EH         LINE#         65
  C:9234H         LINE#         66
  C:924AH         LINE#         67
  C:9265H         LINE#         68
  C:927BH         LINE#         69
  C:928DH         LINE#         70
  C:928DH         LINE#         71
  C:928DH         LINE#         72
  -------         ENDPROC       _CALENDAR_INCREMENTDAY
  -------         PROC          _CALENDAR_INCREMENTSECONDS
  X:1447H         SYMBOL        calendar
  X:144AH         SYMBOL        seconds
  -------         DO            
  X:144EH         SYMBOL        hours
  X:144FH         SYMBOL        minutes
  -------         ENDDO         
  C:5746H         LINE#         76
  C:5757H         LINE#         79
  C:5775H         LINE#         80
  C:579CH         LINE#         81
  C:57BAH         LINE#         82
  C:57E1H         LINE#         83
  C:57FBH         LINE#         84
  C:5815H         LINE#         85
  C:5838H         LINE#         86
  C:5853H         LINE#         87
  C:5869H         LINE#         88
  C:587FH         LINE#         89
  C:587FH         LINE#         90
  C:589AH         LINE#         91
  C:58B0H         LINE#         92
  C:58C6H         LINE#         93
  C:58C6H         LINE#         94
  C:58E1H         LINE#         95
  C:58F7H         LINE#         96
  C:5905H         LINE#         97
  C:5905H         LINE#         98
  -------         ENDPROC       _CALENDAR_INCREMENTSECONDS
  -------         PROC          _CALENDAR_SETFROMDAYS
  X:151AH         SYMBOL        calendar
  X:151DH         SYMBOL        days
  -------         DO            
  X:151FH         SYMBOL        limit
  -------         ENDDO         
  C:74C2H         LINE#         100
  C:74D5H         LINE#         102
  C:74D5H         LINE#         103
  C:74FEH         LINE#         104
  C:7515H         LINE#         105
  C:7534H         LINE#         106
  C:7546H         LINE#         107
  C:7548H         LINE#         108
  C:754AH         LINE#         109
BL51 BANKED LINKER/LOCATER V6.22                                                      05/20/2014  11:03:55  PAGE 115


  C:754CH         LINE#         110
  C:754CH         LINE#         111
  C:757FH         LINE#         112
  C:7596H         LINE#         113
  C:75B5H         LINE#         114
  C:75CBH         LINE#         115
  C:75CEH         LINE#         116
  C:75D0H         LINE#         117
  C:75D3H         LINE#         118
  C:75F0H         LINE#         119
  -------         ENDPROC       _CALENDAR_SETFROMDAYS
  -------         PROC          _CALENDAR_FROMTAI
  X:1521H         SYMBOL        calendar
  X:1524H         SYMBOL        taitime
  C:784EH         LINE#         122
  C:785FH         LINE#         123
  C:786DH         LINE#         124
  C:788CH         LINE#         125
  C:78B1H         LINE#         126
  C:78BFH         LINE#         127
  C:78D4H         LINE#         128
  C:78E9H         LINE#         129
  C:78FEH         LINE#         130
  C:7935H         LINE#         131
  C:795CH         LINE#         132
  C:795CH         LINE#         133
  C:7978H         LINE#         134
  -------         ENDPROC       _CALENDAR_FROMTAI
  -------         PROC          _CALENDAR_TOTAI
  X:1528H         SYMBOL        calendar
  -------         DO            
  X:152BH         SYMBOL        taitime
  -------         ENDDO         
  C:48DDH         LINE#         137
  C:48E8H         LINE#         139
  C:491AH         LINE#         140
  C:4923H         LINE#         141
  C:4955H         LINE#         142
  C:495EH         LINE#         144
  C:4977H         LINE#         145
  C:499AH         LINE#         147
  C:49A4H         LINE#         148
  C:4A30H         LINE#         149
  C:4A86H         LINE#         150
  C:4ADBH         LINE#         151
  C:4B26H         LINE#         152
  C:4B34H         LINE#         153
  -------         ENDPROC       _CALENDAR_TOTAI
  -------         ENDMOD        VELOX_CALENDAR

  -------         MODULE        VELOX_CHECKSUM
  C:0000H         SYMBOL        _ICE_DUMMY_
  C:CBC6H         PUBLIC        _Checksum_publish
  C:A869H         PUBLIC        _Checksum_update
  C:C629H         PUBLIC        _Checksum_rotate
  C:6D26H         PUBLIC        _Checksum_init
  X:0F58H         PUBLIC        checksum_lookup
BL51 BANKED LINKER/LOCATER V6.22                                                      05/20/2014  11:03:55  PAGE 116


  C:CA17H         PUBLIC        _Checksum_isValid
  -------         PROC          _CHECKSUM_INIT
  X:1231H         SYMBOL        ply
  -------         DO            
  X:1233H         SYMBOL        phi
  X:1234H         SYMBOL        ctr
  X:123CH         SYMBOL        c0
  X:123DH         SYMBOL        top
  X:123EH         SYMBOL        crc
  X:1240H         SYMBOL        c1
  -------         ENDDO         
  C:6D26H         LINE#         19
  C:6D2EH         LINE#         21
  C:6D3FH         LINE#         27
  C:6D58H         LINE#         28
  C:6D65H         LINE#         29
  C:6D75H         LINE#         30
  C:6D7EH         LINE#         31
  C:6D98H         LINE#         32
  C:6DAAH         LINE#         33
  C:6DACH         LINE#         34
  C:6DBAH         LINE#         35
  C:6DCBH         LINE#         36
  C:6DD3H         LINE#         37
  C:6DDBH         LINE#         38
  C:6DEBH         LINE#         39
  C:6DFFH         LINE#         40
  C:6E3FH         LINE#         41
  C:6E65H         LINE#         42
  C:6E76H         LINE#         46
  -------         ENDPROC       _CHECKSUM_INIT
  -------         PROC          _CHECKSUM_ROTATE
  X:169CH         SYMBOL        crc
  X:169EH         SYMBOL        value
  C:C629H         LINE#         49
  C:C636H         LINE#         51
  C:C679H         LINE#         64
  -------         ENDPROC       _CHECKSUM_ROTATE
  -------         PROC          _CHECKSUM_UPDATE
  X:12F1H         SYMBOL        msg
  X:12F4H         SYMBOL        length
  X:12F6H         SYMBOL        crc
  -------         DO            
  X:12F8H         SYMBOL        count
  X:12FAH         SYMBOL        message
  -------         ENDDO         
  C:A869H         LINE#         67
  C:A87CH         LINE#         68
  C:A884H         LINE#         69
  C:A89AH         LINE#         70
  C:A8BFH         LINE#         71
  C:A8FDH         LINE#         72
  C:A905H         LINE#         73
  -------         ENDPROC       _CHECKSUM_UPDATE
  -------         PROC          _CHECKSUM_PUBLISH
  X:16E7H         SYMBOL        crc
  C:CBC6H         LINE#         76
BL51 BANKED LINKER/LOCATER V6.22                                                      05/20/2014  11:03:55  PAGE 117


  C:CBCEH         LINE#         77
  C:CBE3H         LINE#         78
  C:CBF8H         LINE#         79
  C:CC00H         LINE#         80
  -------         ENDPROC       _CHECKSUM_PUBLISH
  -------         PROC          _CHECKSUM_ISVALID
  X:1614H         SYMBOL        msg
  X:1617H         SYMBOL        length
  C:CA17H         LINE#         83
  C:CA2AH         LINE#         84
  C:CA55H         LINE#         85
  -------         ENDPROC       _CHECKSUM_ISVALID
  -------         ENDMOD        VELOX_CHECKSUM

  -------         MODULE        VELOX_CLOCK
  C:0000H         SYMBOL        _ICE_DUMMY_
  D:00A8H         PUBLIC        IE
  X:169FH         PUBLIC        clock_interruptMs
  C:D426H         PUBLIC        Clock_hasAdvanced
  C:D61DH         PUBLIC        Clock_interruptCallback
  X:16A1H         PUBLIC        clock_interruptFlag
  C:0076H         PUBLIC        Timertask_getClock_Override
  -------         PROC          TIMERTASK_GETCLOCK_OVERRIDE
  -------         DO            
  X:16E9H         SYMBOL        value
  -------         ENDDO         
  C:0076H         LINE#         13
  C:0076H         LINE#         15
  C:0081H         LINE#         16
  C:0091H         LINE#         17
  C:0099H         LINE#         18
  C:00A1H         LINE#         19
  -------         ENDPROC       TIMERTASK_GETCLOCK_OVERRIDE
  -------         PROC          CLOCK_INTERRUPTCALLBACK
  C:D61DH         LINE#         23
  C:D61DH         LINE#         24
  C:D620H         LINE#         25
  C:D62EH         LINE#         26
  C:D634H         LINE#         27
  -------         ENDPROC       CLOCK_INTERRUPTCALLBACK
  -------         PROC          CLOCK_HASADVANCED
  -------         DO            
  X:170AH         SYMBOL        value
  -------         ENDDO         
  C:D426H         LINE#         30
  C:D426H         LINE#         31
  C:D430H         LINE#         32
  C:D438H         LINE#         33
  C:D43DH         LINE#         34
  C:D440H         LINE#         35
  C:D440H         LINE#         36
  C:D445H         LINE#         37
  -------         ENDPROC       CLOCK_HASADVANCED
  -------         ENDMOD        VELOX_CLOCK

  -------         MODULE        VELOX_DELAY
  C:0000H         SYMBOL        _ICE_DUMMY_
BL51 BANKED LINKER/LOCATER V6.22                                                      05/20/2014  11:03:55  PAGE 118


  C:CDC7H         PUBLIC        _Delay_blockMs
  -------         PROC          _DELAY_BLOCKMS
  X:152FH         SYMBOL        value
  -------         DO            
  X:1531H         SYMBOL        delay_task
  -------         ENDDO         
  C:CDC7H         LINE#         13
  C:CDCFH         LINE#         15
  C:CDE8H         LINE#         16
  C:CDF4H         LINE#         17
  C:CDFBH         LINE#         18
  C:CDFCH         LINE#         19
  C:CDFEH         LINE#         20
  -------         ENDPROC       _DELAY_BLOCKMS
  -------         ENDMOD        VELOX_DELAY

  -------         MODULE        VELOX_META
  C:0000H         SYMBOL        _ICE_DUMMY_
  C:C996H         PUBLIC        Meta_init
  C:B5BCH         PUBLIC        Meta_handler
  D:00EFH         PUBLIC        RSTSRC
  -------         PROC          META_INIT
  C:C996H         LINE#         20
  C:C996H         LINE#         22
  C:C99EH         LINE#         23
  C:C9A7H         LINE#         24
  C:C9ACH         LINE#         25
  C:C9B2H         LINE#         26
  C:C9B5H         LINE#         29
  C:C9BEH         LINE#         30
  C:C9C4H         LINE#         32
  C:C9CEH         LINE#         33
  C:C9D6H         LINE#         34
  -------         ENDPROC       META_INIT
  -------         PROC          META_HANDLER
  C:B5BCH         LINE#         36
  C:B5BCH         LINE#         38
  C:B5C7H         LINE#         39
  C:B5D0H         LINE#         41
  C:B5D9H         LINE#         42
  C:B5E4H         LINE#         43
  C:B5F8H         LINE#         44
  C:B600H         LINE#         45
  C:B62DH         LINE#         46
  C:B635H         LINE#         47
  -------         ENDPROC       META_HANDLER
  -------         ENDMOD        VELOX_META

  -------         MODULE        VELOX_RTC_SUPPORT
  C:0000H         SYMBOL        _ICE_DUMMY_
  C:C9D7H         PUBLIC        _Rtc_toTai
  C:4B35H         PUBLIC        _Rtc_toCalendar
  C:C48CH         PUBLIC        _Rtc_fromTai
  C:4D77H         PUBLIC        _Rtc_fromCalendar
  -------         PROC          _RTC_TOCALENDAR
  X:15A6H         SYMBOL        rtcStamp
  X:15A9H         SYMBOL        calendar
BL51 BANKED LINKER/LOCATER V6.22                                                      05/20/2014  11:03:55  PAGE 119


  C:4B35H         LINE#         12
  C:4B40H         LINE#         13
  C:4B9DH         LINE#         14
  C:4BCFH         LINE#         15
  C:4BE1H         LINE#         16
  C:4C32H         LINE#         17
  C:4C83H         LINE#         18
  C:4CD4H         LINE#         19
  C:4D25H         LINE#         20
  C:4D76H         LINE#         21
  -------         ENDPROC       _RTC_TOCALENDAR
  -------         PROC          _RTC_TOTAI
  X:140FH         SYMBOL        rtcStamp
  -------         DO            
  X:1412H         SYMBOL        calendar
  -------         ENDDO         
  C:C9D7H         LINE#         24
  C:C9E2H         LINE#         26
  C:CA0DH         LINE#         27
  C:CA16H         LINE#         28
  -------         ENDPROC       _RTC_TOTAI
  -------         PROC          _RTC_FROMCALENDAR
  X:1536H         SYMBOL        rtcStamp
  X:1539H         SYMBOL        calendar
  -------         DO            
  X:153CH         SYMBOL        yearMod100
  -------         ENDDO         
  C:4D77H         LINE#         31
  C:4D82H         LINE#         33
  C:4D91H         LINE#         34
  C:4DE5H         LINE#         35
  C:4E39H         LINE#         36
  C:4E8DH         LINE#         37
  C:4EA3H         LINE#         38
  C:4EF7H         LINE#         39
  C:4F4BH         LINE#         40
  C:4F6AH         LINE#         41
  C:4F9EH         LINE#         42
  -------         ENDPROC       _RTC_FROMCALENDAR
  -------         PROC          _RTC_FROMTAI
  X:128CH         SYMBOL        rtcStamp
  X:128FH         SYMBOL        taitime
  -------         DO            
  X:1293H         SYMBOL        calendar
  -------         ENDDO         
  C:C48CH         LINE#         45
  C:C49DH         LINE#         47
  C:C4B4H         LINE#         48
  C:C4DFH         LINE#         49
  -------         ENDPROC       _RTC_FROMTAI
  -------         ENDMOD        VELOX_RTC_SUPPORT

  -------         MODULE        VELOX_RUNTIME
  C:0000H         SYMBOL        _ICE_DUMMY_
  C:D279H         PUBLIC        _Runtime_fromNow
  C:C2D4H         PUBLIC        _Runtime_hasExpired
  -------         PROC          _RUNTIME_FROMNOW
BL51 BANKED LINKER/LOCATER V6.22                                                      05/20/2014  11:03:55  PAGE 120


  X:16A2H         SYMBOL        runtime
  C:D279H         LINE#         6
  C:D284H         LINE#         7
  C:D2A0H         LINE#         8
  -------         ENDPROC       _RUNTIME_FROMNOW
  -------         PROC          _RUNTIME_HASEXPIRED
  X:16A5H         SYMBOL        runtime
  C:C2D4H         LINE#         10
  C:C2DFH         LINE#         11
  C:C32DH         LINE#         12
  -------         ENDPROC       _RUNTIME_HASEXPIRED
  -------         ENDMOD        VELOX_RUNTIME

  -------         MODULE        VELOX_SCREEN
  C:0000H         SYMBOL        _ICE_DUMMY_
  C:B24CH         PUBLIC        Screen_capture
  C:D3C3H         PUBLIC        Screen_summary
  -------         PROC          SCREEN_CAPTURE
  -------         DO            
  X:16EBH         SYMBOL        toc
  -------         ENDDO         
  C:B24CH         LINE#         9
  C:B24CH         LINE#         10
  C:B257H         LINE#         11
  C:B276H         LINE#         12
  C:B2ADH         LINE#         13
  C:B2BDH         LINE#         14
  C:B2CBH         LINE#         15
  -------         ENDPROC       SCREEN_CAPTURE
  -------         PROC          SCREEN_SUMMARY
  C:D3C3H         LINE#         17
  C:D3C3H         LINE#         18
  C:D3CBH         LINE#         20
  C:D3DBH         LINE#         21
  C:D3E3H         LINE#         22
  -------         ENDPROC       SCREEN_SUMMARY
  -------         ENDMOD        VELOX_SCREEN

  -------         MODULE        VELOX_SECONDS
  C:0000H         SYMBOL        _ICE_DUMMY_
  C:D4DEH         PUBLIC        Seconds_haveAdvanced
  -------         PROC          SECONDS_HAVEADVANCED
  -------         DO            
  X:170BH         SYMBOL        value
  -------         ENDDO         
  C:D4DEH         LINE#         6
  C:D4DEH         LINE#         8
  C:D4E1H         LINE#         9
  C:D4E9H         LINE#         10
  C:D4F1H         LINE#         11
  C:D4F4H         LINE#         12
  C:D4F9H         LINE#         13
  -------         ENDPROC       SECONDS_HAVEADVANCED
  -------         ENDMOD        VELOX_SECONDS

  -------         MODULE        VELOX_SLOWTASK
  C:0000H         SYMBOL        _ICE_DUMMY_
BL51 BANKED LINKER/LOCATER V6.22                                                      05/20/2014  11:03:55  PAGE 121


  C:7E0AH         PUBLIC        _Slowtask_isReady
  C:D3E4H         PUBLIC        _Slowtask_setDisabled
  C:D1D8H         PUBLIC        _Slowtask_fromNow
  C:C04AH         PUBLIC        _Slowtask_setRepeated
  C:BFECH         PUBLIC        _Slowtask_setPeriodic
  C:CEA5H         PUBLIC        _Slowtask_sinceLast
  C:BF8EH         PUBLIC        _Slowtask_setExecuteOnce
  -------         PROC          _SLOWTASK_SETDISABLED
  X:16A8H         SYMBOL        task
  C:D3E4H         LINE#         7
  C:D3EFH         LINE#         8
  C:D404H         LINE#         9
  -------         ENDPROC       _SLOWTASK_SETDISABLED
  -------         PROC          _SLOWTASK_SETEXECUTEONCE
  X:1668H         SYMBOL        task
  X:166BH         SYMBOL        delay
  C:BF8EH         LINE#         11
  C:BF9EH         LINE#         12
  C:BFBBH         LINE#         13
  C:BFD5H         LINE#         14
  C:BFEBH         LINE#         15
  -------         ENDPROC       _SLOWTASK_SETEXECUTEONCE
  -------         PROC          _SLOWTASK_SETPERIODIC
  X:166CH         SYMBOL        task
  X:166FH         SYMBOL        delay
  C:BFECH         LINE#         17
  C:BFFCH         LINE#         18
  C:C019H         LINE#         19
  C:C033H         LINE#         20
  C:C049H         LINE#         21
  -------         ENDPROC       _SLOWTASK_SETPERIODIC
  -------         PROC          _SLOWTASK_SETREPEATED
  X:1670H         SYMBOL        task
  X:1673H         SYMBOL        delay
  C:C04AH         LINE#         23
  C:C05AH         LINE#         24
  C:C077H         LINE#         25
  C:C091H         LINE#         26
  C:C0A7H         LINE#         27
  -------         ENDPROC       _SLOWTASK_SETREPEATED
  -------         PROC          _SLOWTASK_FROMNOW
  X:16ABH         SYMBOL        task
  C:D1D8H         LINE#         32
  C:D1E3H         LINE#         33
  C:D200H         LINE#         34
  -------         ENDPROC       _SLOWTASK_FROMNOW
  -------         PROC          _SLOWTASK_SINCELAST
  X:1674H         SYMBOL        task
  -------         DO            
  X:1677H         SYMBOL        slowtask_clock
  -------         ENDDO         
  C:CEA5H         LINE#         37
  C:CEB0H         LINE#         38
  C:CEC3H         LINE#         39
  C:CEDBH         LINE#         40
  -------         ENDPROC       _SLOWTASK_SINCELAST
  -------         PROC          _SLOWTASK_ISREADY
BL51 BANKED LINKER/LOCATER V6.22                                                      05/20/2014  11:03:55  PAGE 122


  X:1619H         SYMBOL        task
  -------         DO            
  X:161CH         SYMBOL        delta
  X:161DH         SYMBOL        slowtask_clock
  -------         ENDDO         
  C:7E0AH         LINE#         42
  C:7E15H         LINE#         44
  C:7E28H         LINE#         45
  C:7E40H         LINE#         46
  C:7E54H         LINE#         47
  C:7E57H         LINE#         48
  C:7E74H         LINE#         49
  C:7E96H         LINE#         50
  C:7EBCH         LINE#         51
  C:7EBCH         LINE#         52
  C:7ED0H         LINE#         53
  C:7EE5H         LINE#         54
  C:7EE7H         LINE#         55
  C:7EE7H         LINE#         56
  C:7F0BH         LINE#         57
  C:7F0DH         LINE#         58
  C:7F0DH         LINE#         59
  C:7F21H         LINE#         60
  C:7F21H         LINE#         61
  C:7F21H         LINE#         62
  C:7F24H         LINE#         63
  C:7F24H         LINE#         64
  C:7F24H         LINE#         65
  C:7F26H         LINE#         66
  -------         ENDPROC       _SLOWTASK_ISREADY
  -------         ENDMOD        VELOX_SLOWTASK

  -------         MODULE        VELOX_SFRSTACK
  C:0000H         SYMBOL        _ICE_DUMMY_
  C:CEDCH         PUBLIC        _SFR_init
  X:15ACH         PUBLIC        SFR_stackSize
  D:0084H         PUBLIC        SFRPAGE
  X:15ADH         PUBLIC        SFR_maxDepth
  C:B14AH         PUBLIC        _SFR_pushPage
  C:CAD3H         PUBLIC        SFR_popPage
  C:D799H         PUBLIC        SFR_getMaxDepth
  X:15AEH         PUBLIC        SFR_stack
  X:15B1H         PUBLIC        SFR_index
  -------         PROC          _SFR_INIT
  X:161EH         SYMBOL        stack
  X:1621H         SYMBOL        stack_size
  C:CEDCH         LINE#         13
  C:CEEFH         LINE#         14
  C:CF05H         LINE#         15
  C:CF12H         LINE#         16
  -------         ENDPROC       _SFR_INIT
  -------         PROC          _SFR_PUSHPAGE
  X:170CH         SYMBOL        page
  C:B14AH         LINE#         18
  C:B14FH         LINE#         19
  C:B16DH         LINE#         20
  C:B185H         LINE#         21
BL51 BANKED LINKER/LOCATER V6.22                                                      05/20/2014  11:03:55  PAGE 123


  C:B18DH         LINE#         23
  C:B19BH         LINE#         24
  C:B1B9H         LINE#         25
  C:B1C3H         LINE#         26
  C:B1CAH         LINE#         27
  -------         ENDPROC       _SFR_PUSHPAGE
  -------         PROC          SFR_POPPAGE
  C:CAD3H         LINE#         29
  C:CAD3H         LINE#         30
  C:CADBH         LINE#         31
  C:CAE3H         LINE#         33
  C:CAF1H         LINE#         34
  C:CB10H         LINE#         35
  -------         ENDPROC       SFR_POPPAGE
  -------         PROC          SFR_GETMAXDEPTH
  C:D799H         LINE#         37
  C:D799H         LINE#         38
  C:D79EH         LINE#         39
  -------         ENDPROC       SFR_GETMAXDEPTH
  -------         ENDMOD        VELOX_SFRSTACK

  -------         MODULE        VELOX_STATE
  C:0000H         SYMBOL        _ICE_DUMMY_
  C:B1CBH         PUBLIC        _State_turing
  C:B34BH         PUBLIC        _State_isActive
  C:75F1H         PUBLIC        _State_isReady
  C:AB63H         PUBLIC        _State_release
  C:CA56H         PUBLIC        _State_initStatetask
  C:AAD2H         PUBLIC        _State_starter
  -------         PROC          _STATE_STARTER
  X:1623H         SYMBOL        state
  X:1626H         SYMBOL        value
  C:AAD2H         LINE#         7
  C:AAE5H         LINE#         8
  C:AAFFH         LINE#         9
  C:AB19H         LINE#         10
  C:AB2EH         LINE#         11
  C:AB4DH         LINE#         12
  C:AB62H         LINE#         13
  -------         ENDPROC       _STATE_STARTER
  -------         PROC          _STATE_RELEASE
  X:16AEH         SYMBOL        state
  C:AB63H         LINE#         15
  C:AB6EH         LINE#         16
  C:AB9BH         LINE#         17
  C:ABB3H         LINE#         18
  C:ABC4H         LINE#         19
  C:ABC4H         LINE#         20
  C:ABDEH         LINE#         21
  C:ABF3H         LINE#         22
  -------         ENDPROC       _STATE_RELEASE
  -------         PROC          _STATE_ISREADY
  X:14A9H         SYMBOL        state
  X:14ACH         SYMBOL        statetask
  -------         DO            
  X:14AFH         SYMBOL        delta
  -------         ENDDO         
BL51 BANKED LINKER/LOCATER V6.22                                                      05/20/2014  11:03:55  PAGE 124


  C:75F1H         LINE#         24
  C:75FCH         LINE#         26
  C:7612H         LINE#         27
  C:763BH         LINE#         28
  C:7661H         LINE#         29
  C:7677H         LINE#         30
  C:7685H         LINE#         31
  C:7693H         LINE#         32
  C:7696H         LINE#         33
  C:7696H         LINE#         34
  C:76CFH         LINE#         35
  C:76CFH         LINE#         37
  C:76EEH         LINE#         38
  C:7708H         LINE#         39
  C:771DH         LINE#         40
  C:771FH         LINE#         41
  -------         ENDPROC       _STATE_ISREADY
  -------         PROC          _STATE_INITSTATETASK
  X:1628H         SYMBOL        statetask
  X:162BH         SYMBOL        delay
  C:CA56H         LINE#         45
  C:CA69H         LINE#         46
  C:CA7FH         LINE#         47
  C:CA94H         LINE#         48
  -------         ENDPROC       _STATE_INITSTATETASK
  -------         PROC          _STATE_ISACTIVE
  X:15B2H         SYMBOL        state
  X:15B5H         SYMBOL        statetask
  C:B34BH         LINE#         50
  C:B356H         LINE#         51
  C:B367H         LINE#         52
  C:B37DH         LINE#         53
  C:B395H         LINE#         54
  C:B3C6H         LINE#         55
  C:B3C8H         LINE#         56
  -------         ENDPROC       _STATE_ISACTIVE
  -------         PROC          _STATE_TURING
  X:1450H         SYMBOL        state
  X:1453H         SYMBOL        statetask
  X:1456H         SYMBOL        state_func
  C:B1CBH         LINE#         58
  C:B1D6H         LINE#         59
  C:B209H         LINE#         60
  C:B23DH         LINE#         61
  C:B24BH         LINE#         62
  -------         ENDPROC       _STATE_TURING
  -------         ENDMOD        VELOX_STATE

  -------         MODULE        VELOX_TIMERTASK
  C:0000H         SYMBOL        _ICE_DUMMY_
  C:D405H         PUBLIC        _Timertask_setDisabled
  C:D446H         PUBLIC        _Timertask_fromNow
  C:C1C0H         PUBLIC        _Timertask_setRepeated
  C:C163H         PUBLIC        _Timertask_setPeriodic
  C:C106H         PUBLIC        _Timertask_setExecuteOnce
  C:7388H         PUBLIC        _Timertask_isReady
  -------         PROC          _TIMERTASK_SETDISABLED
BL51 BANKED LINKER/LOCATER V6.22                                                      05/20/2014  11:03:55  PAGE 125


  X:16B1H         SYMBOL        task
  C:D405H         LINE#         6
  C:D410H         LINE#         7
  C:D425H         LINE#         8
  -------         ENDPROC       _TIMERTASK_SETDISABLED
  -------         PROC          _TIMERTASK_SETEXECUTEONCE
  X:162DH         SYMBOL        task
  X:1630H         SYMBOL        delay
  C:C106H         LINE#         10
  C:C119H         LINE#         11
  C:C12DH         LINE#         12
  C:C14CH         LINE#         13
  C:C162H         LINE#         14
  -------         ENDPROC       _TIMERTASK_SETEXECUTEONCE
  -------         PROC          _TIMERTASK_SETPERIODIC
  X:1632H         SYMBOL        task
  X:1635H         SYMBOL        delay
  C:C163H         LINE#         16
  C:C176H         LINE#         17
  C:C18AH         LINE#         18
  C:C1A9H         LINE#         19
  C:C1BFH         LINE#         20
  -------         ENDPROC       _TIMERTASK_SETPERIODIC
  -------         PROC          _TIMERTASK_SETREPEATED
  X:1637H         SYMBOL        task
  X:163AH         SYMBOL        delay
  C:C1C0H         LINE#         22
  C:C1D3H         LINE#         23
  C:C1E7H         LINE#         24
  C:C206H         LINE#         25
  C:C21CH         LINE#         26
  -------         ENDPROC       _TIMERTASK_SETREPEATED
  -------         PROC          _TIMERTASK_FROMNOW
  X:16B4H         SYMBOL        task
  C:D446H         LINE#         31
  C:D451H         LINE#         32
  C:D465H         LINE#         33
  -------         ENDPROC       _TIMERTASK_FROMNOW
  -------         PROC          _TIMERTASK_ISREADY
  X:153DH         SYMBOL        task
  -------         DO            
  X:1540H         SYMBOL        delta
  X:1542H         SYMBOL        timertask_clock
  -------         ENDDO         
  C:7388H         LINE#         35
  C:7393H         LINE#         37
  C:739EH         LINE#         38
  C:73B6H         LINE#         39
  C:73CFH         LINE#         40
  C:73D2H         LINE#         41
  C:73FAH         LINE#         42
  C:7423H         LINE#         43
  C:7449H         LINE#         44
  C:7449H         LINE#         45
  C:7462H         LINE#         46
  C:7477H         LINE#         47
  C:7479H         LINE#         48
BL51 BANKED LINKER/LOCATER V6.22                                                      05/20/2014  11:03:55  PAGE 126


  C:7479H         LINE#         49
  C:74A1H         LINE#         50
  C:74A3H         LINE#         51
  C:74A3H         LINE#         52
  C:74BCH         LINE#         53
  C:74BCH         LINE#         54
  C:74BCH         LINE#         55
  C:74BFH         LINE#         56
  C:74BFH         LINE#         57
  C:74BFH         LINE#         58
  C:74C1H         LINE#         59
  -------         ENDPROC       _TIMERTASK_ISREADY
  -------         ENDMOD        VELOX_TIMERTASK

  -------         MODULE        VELOX_UART
  C:0000H         SYMBOL        _ICE_DUMMY_
  C:C4E0H         PUBLIC        _Uart_pollChars
  C:C67AH         PUBLIC        _Uart_putChars
  C:CDFFH         PUBLIC        _Uart_advance
  -------         PROC          _UART_POLLCHARS
  X:15B8H         SYMBOL        port
  X:15B9H         SYMBOL        buffer
  X:15BCH         SYMBOL        length
  C:C4E0H         LINE#         6
  C:C4F0H         LINE#         7
  C:C503H         LINE#         8
  C:C503H         LINE#         9
  C:C51AH         LINE#         10
  C:C51AH         LINE#         11
  C:C531H         LINE#         12
  C:C531H         LINE#         13
  C:C533H         LINE#         14
  -------         ENDPROC       _UART_POLLCHARS
  -------         PROC          _UART_ADVANCE
  X:16B7H         SYMBOL        port
  X:16B8H         SYMBOL        length
  C:CDFFH         LINE#         16
  C:CE0CH         LINE#         17
  C:CE1FH         LINE#         18
  C:CE1FH         LINE#         19
  C:CE2AH         LINE#         20
  C:CE2BH         LINE#         21
  C:CE2BH         LINE#         22
  C:CE36H         LINE#         23
  C:CE36H         LINE#         24
  C:CE36H         LINE#         25
  -------         ENDPROC       _UART_ADVANCE
  -------         PROC          _UART_PUTCHARS
  X:15BEH         SYMBOL        port
  X:15BFH         SYMBOL        buffer
  X:15C2H         SYMBOL        length
  C:C67AH         LINE#         27
  C:C68AH         LINE#         28
  C:C69DH         LINE#         29
  C:C69DH         LINE#         30
  C:C6B3H         LINE#         31
  C:C6B4H         LINE#         32
BL51 BANKED LINKER/LOCATER V6.22                                                      05/20/2014  11:03:55  PAGE 127


  C:C6B4H         LINE#         33
  C:C6CAH         LINE#         34
  C:C6CAH         LINE#         35
  C:C6CAH         LINE#         36
  -------         ENDPROC       _UART_PUTCHARS
  -------         ENDMOD        VELOX_UART

  -------         MODULE        VELOX_UPTIME
  C:0000H         SYMBOL        _ICE_DUMMY_
  C:C0A8H         PUBLIC        _Uptime_init
  X:1544H         PUBLIC        uptime_store_count
  C:98EEH         PUBLIC        Uptime_handler
  X:1546H         PUBLIC        uptime_timertask
  C:D37EH         PUBLIC        Uptime_isTaiTimeValid
  -------         PROC          _UPTIME_INIT
  X:1419H         SYMBOL        tai_time
  X:141DH         SYMBOL        uptime_total
  X:1421H         SYMBOL        period
  C:C0A8H         LINE#         15
  C:C0AEH         LINE#         16
  C:C0C2H         LINE#         17
  C:C0D6H         LINE#         18
  C:C0E6H         LINE#         19
  C:C0F0H         LINE#         20
  C:C0FDH         LINE#         21
  C:C105H         LINE#         22
  -------         ENDPROC       _UPTIME_INIT
  -------         PROC          UPTIME_ISTAITIMEVALID
  C:D37EH         LINE#         26
  C:D37EH         LINE#         27
  C:D3A0H         LINE#         28
  -------         ENDPROC       UPTIME_ISTAITIMEVALID
  -------         PROC          UPTIME_HANDLER
  C:98EEH         LINE#         31
  C:98EEH         LINE#         32
  C:98FDH         LINE#         33
  C:9903H         LINE#         34
  C:992BH         LINE#         35
  C:9953H         LINE#         36
  C:997BH         LINE#         37
  C:9989H         LINE#         38
  C:99A0H         LINE#         39
  C:99A8H         LINE#         40
  C:99ABH         LINE#         41
  C:99ABH         LINE#         42
  C:99AEH         LINE#         43
  C:99AEH         LINE#         44
  C:99B0H         LINE#         45
  -------         ENDPROC       UPTIME_HANDLER
  -------         ENDMOD        VELOX_UPTIME

  -------         MODULE        VELOX_WATCHDOG
  C:0000H         SYMBOL        _ICE_DUMMY_
  C:C7B4H         PUBLIC        Watchdog_confirmAlive
  X:154BH         PUBLIC        watchdog_max
  C:D156H         PUBLIC        Watchdog_getMaxCount
  D:00A8H         PUBLIC        IE
BL51 BANKED LINKER/LOCATER V6.22                                                      05/20/2014  11:03:55  PAGE 128


  C:D013H         PUBLIC        Watchdog_interruptCallback
  X:154DH         PUBLIC        watchdog_IE
  X:154EH         PUBLIC        watchdog_limit
  X:1550H         PUBLIC        watchdog_count
  C:D128H         PUBLIC        _Watchdog_advancedInit
  -------         PROC          WATCHDOG_CONFIRMALIVE
  C:C7B4H         LINE#         16
  C:C7B4H         LINE#         17
  C:C7BFH         LINE#         18
  C:C7DCH         LINE#         19
  C:C7ECH         LINE#         20
  C:C7F4H         LINE#         21
  C:C7FCH         LINE#         22
  -------         ENDPROC       WATCHDOG_CONFIRMALIVE
  -------         PROC          _WATCHDOG_ADVANCEDINIT
  X:16BAH         SYMBOL        mask
  X:16BBH         SYMBOL        limit
  C:D128H         LINE#         25
  C:D135H         LINE#         26
  C:D13FH         LINE#         27
  C:D14FH         LINE#         28
  C:D152H         LINE#         29
  C:D155H         LINE#         30
  -------         ENDPROC       _WATCHDOG_ADVANCEDINIT
  -------         PROC          WATCHDOG_INTERRUPTCALLBACK
  C:D013H         LINE#         33
  C:D013H         LINE#         34
  C:D030H         LINE#         35
  C:D033H         LINE#         36
  C:D041H         LINE#         37
  C:D041H         LINE#         38
  -------         ENDPROC       WATCHDOG_INTERRUPTCALLBACK
  -------         PROC          WATCHDOG_GETMAXCOUNT
  -------         DO            
  X:16EDH         SYMBOL        value
  -------         ENDDO         
  C:D156H         LINE#         40
  C:D156H         LINE#         42
  C:D161H         LINE#         43
  C:D171H         LINE#         44
  C:D179H         LINE#         45
  C:D181H         LINE#         46
  -------         ENDPROC       WATCHDOG_GETMAXCOUNT
  -------         ENDMOD        VELOX_WATCHDOG

  -------         MODULE        ?C?FPADD
  C:00ADH         PUBLIC        ?C?FPADD
  C:00A9H         PUBLIC        ?C?FPSUB
  -------         ENDMOD        ?C?FPADD

  -------         MODULE        ?C?FPMUL
  C:019EH         PUBLIC        ?C?FPMUL
  -------         ENDMOD        ?C?FPMUL

  -------         MODULE        ?C?FPDIV
  C:02A7H         PUBLIC        ?C?FPDIV
  -------         ENDMOD        ?C?FPDIV
BL51 BANKED LINKER/LOCATER V6.22                                                      05/20/2014  11:03:55  PAGE 129



  -------         MODULE        ?C?FPCMP
  C:0346H         PUBLIC        ?C?FPCMP
  C:0344H         PUBLIC        ?C?FPCMP3
  -------         ENDMOD        ?C?FPCMP

  -------         MODULE        ?C?FCAST
  C:03C7H         PUBLIC        ?C?FCASTC
  C:03C2H         PUBLIC        ?C?FCASTI
  C:03BDH         PUBLIC        ?C?FCASTL
  -------         ENDMOD        ?C?FCAST

  -------         MODULE        ?C?CASTF
  C:03FBH         PUBLIC        ?C?CASTF
  -------         ENDMOD        ?C?CASTF

  -------         MODULE        PRINTF
  X:1158H         PUBLIC        ?_PRINTF?BYTE
  X:1158H         PUBLIC        ?_SPRINTF?BYTE
  C:2808H         PUBLIC        _PRINTF
  C:2802H         PUBLIC        _SPRINTF
  -------         ENDMOD        PRINTF

  -------         MODULE        CEIL
  C:8AADH         PUBLIC        _ceil
  -------         ENDMOD        CEIL

  -------         MODULE        ?C?FPROUND
  C:047CH         PUBLIC        ?C?FPROUND
  -------         ENDMOD        ?C?FPROUND

  -------         MODULE        ?C?FPCONVERT
  C:04B9H         PUBLIC        ?C?FPCONVERT
  -------         ENDMOD        ?C?FPCONVERT

  -------         MODULE        ?C?FTNPWR
  C:05EEH         PUBLIC        ?C?FTNPWR
  -------         ENDMOD        ?C?FTNPWR

  -------         MODULE        ?C?COPY
  C:06FEH         PUBLIC        ?C?COPY
  -------         ENDMOD        ?C?COPY

  -------         MODULE        ?C?SCDIV
  C:0724H         PUBLIC        ?C?SCDIV
  -------         ENDMOD        ?C?SCDIV

  -------         MODULE        ?C?CLDPTR
  C:0746H         PUBLIC        ?C?CLDPTR
  -------         ENDMOD        ?C?CLDPTR

  -------         MODULE        ?C?CLDOPTR
  C:075FH         PUBLIC        ?C?CLDOPTR
  -------         ENDMOD        ?C?CLDOPTR

  -------         MODULE        ?C?CILDPTR
  C:078CH         PUBLIC        ?C?CILDPTR
BL51 BANKED LINKER/LOCATER V6.22                                                      05/20/2014  11:03:55  PAGE 130


  -------         ENDMOD        ?C?CILDPTR

  -------         MODULE        ?C?CILDOPTR
  C:07AEH         PUBLIC        ?C?CILDOPTR
  -------         ENDMOD        ?C?CILDOPTR

  -------         MODULE        ?C?CSTPTR
  C:07E1H         PUBLIC        ?C?CSTPTR
  -------         ENDMOD        ?C?CSTPTR

  -------         MODULE        ?C?CSTOPTR
  C:07F3H         PUBLIC        ?C?CSTOPTR
  -------         ENDMOD        ?C?CSTOPTR

  -------         MODULE        ?C?IMUL
  C:0815H         PUBLIC        ?C?IMUL
  -------         ENDMOD        ?C?IMUL

  -------         MODULE        ?C?UIDIV
  C:0827H         PUBLIC        ?C?UIDIV
  -------         ENDMOD        ?C?UIDIV

  -------         MODULE        ?C?SIDIV
  C:087CH         PUBLIC        ?C?SIDIV
  -------         ENDMOD        ?C?SIDIV

  -------         MODULE        ?C?IILDX
  C:08B2H         PUBLIC        ?C?IILDX
  -------         ENDMOD        ?C?IILDX

  -------         MODULE        ?C?ILDPTR
  C:08C8H         PUBLIC        ?C?ILDPTR
  -------         ENDMOD        ?C?ILDPTR

  -------         MODULE        ?C?ILDOPTR
  C:08F3H         PUBLIC        ?C?ILDOPTR
  -------         ENDMOD        ?C?ILDOPTR

  -------         MODULE        ?C?IILDPTR
  C:092BH         PUBLIC        ?C?IILDPTR
  -------         ENDMOD        ?C?IILDPTR

  -------         MODULE        ?C?ISTPTR
  C:0963H         PUBLIC        ?C?ISTPTR
  -------         ENDMOD        ?C?ISTPTR

  -------         MODULE        ?C?ISTOPTR
  C:0982H         PUBLIC        ?C?ISTOPTR
  -------         ENDMOD        ?C?ISTOPTR

  -------         MODULE        ?C?LMUL
  C:09AFH         PUBLIC        ?C?LMUL
  -------         ENDMOD        ?C?LMUL

  -------         MODULE        ?C?ULDIV
  C:0A3AH         PUBLIC        ?C?ULDIV
  -------         ENDMOD        ?C?ULDIV
BL51 BANKED LINKER/LOCATER V6.22                                                      05/20/2014  11:03:55  PAGE 131



  -------         MODULE        ?C?SLDIV
  C:C88CH         PUBLIC        ?C?SLDIV
  -------         ENDMOD        ?C?SLDIV

  -------         MODULE        ?C?LNEG
  C:0ACCH         PUBLIC        ?C?LNEG
  -------         ENDMOD        ?C?LNEG

  -------         MODULE        ?C?SLCMP
  C:0ADAH         PUBLIC        ?C?SLCMP
  -------         ENDMOD        ?C?SLCMP

  -------         MODULE        ?C?ULCMP
  C:0AF0H         PUBLIC        ?C?ULCMP
  -------         ENDMOD        ?C?ULCMP

  -------         MODULE        ?C?LSHL
  C:0B01H         PUBLIC        ?C?LSHL
  -------         ENDMOD        ?C?LSHL

  -------         MODULE        ?C?LLDPTR
  C:0B14H         PUBLIC        ?C?LLDPTR
  -------         ENDMOD        ?C?LLDPTR

  -------         MODULE        ?C?LLDOPTR
  C:0B34H         PUBLIC        ?C?LLDOPTR
  -------         ENDMOD        ?C?LLDOPTR

  -------         MODULE        ?C?LSTPTR
  C:0B64H         PUBLIC        ?C?LSTPTR
  -------         ENDMOD        ?C?LSTPTR

  -------         MODULE        ?C?LSTOPTR
  C:0B7EH         PUBLIC        ?C?LSTOPTR
  -------         ENDMOD        ?C?LSTOPTR

  -------         MODULE        ?C?LLDPTR0
  C:0BA2H         PUBLIC        ?C?LLDPTR0
  -------         ENDMOD        ?C?LLDPTR0

  -------         MODULE        ?C?LLDOPTR0
  C:0BC2H         PUBLIC        ?C?LLDOPTR0
  -------         ENDMOD        ?C?LLDOPTR0

  -------         MODULE        ?C?LSTXDATA
  C:0BF2H         PUBLIC        ?C?LSTXDATA
  -------         ENDMOD        ?C?LSTXDATA

  -------         MODULE        ?C?LSTKXDATA
  C:0BFEH         PUBLIC        ?C?LSTKXDATA
  -------         ENDMOD        ?C?LSTKXDATA

  -------         MODULE        ?C?PLDIXDATA
  C:0C2FH         PUBLIC        ?C?PLDIXDATA
  -------         ENDMOD        ?C?PLDIXDATA

BL51 BANKED LINKER/LOCATER V6.22                                                      05/20/2014  11:03:55  PAGE 132


  -------         MODULE        ?C?PSTXDATA
  C:0C46H         PUBLIC        ?C?PSTXDATA
  -------         ENDMOD        ?C?PSTXDATA

  -------         MODULE        ?C?PLDPTR
  C:0C4FH         PUBLIC        ?C?PLDPTR
  -------         ENDMOD        ?C?PLDPTR

  -------         MODULE        ?C?PSTPTR
  C:0C6FH         PUBLIC        ?C?PSTPTR
  -------         ENDMOD        ?C?PSTPTR

  -------         MODULE        ?C?CCASE
  C:0CBEH         PUBLIC        ?C?CCASE
  -------         ENDMOD        ?C?CCASE

  -------         MODULE        ?C?ICASE
  C:0CE4H         PUBLIC        ?C?ICASE
  -------         ENDMOD        ?C?ICASE

  -------         MODULE        ?C?ICALL
  C:0D11H         PUBLIC        ?C?ICALL
  C:0D15H         PUBLIC        ?C?ICALL2
  -------         ENDMOD        ?C?ICALL

  -------         MODULE        ?C?LIMUL
  C:0D17H         PUBLIC        ?C?LIMUL
  -------         ENDMOD        ?C?LIMUL

  -------         MODULE        ?C?MEMCMP
  C:0ECAH         PUBLIC        ?C?MEMCMP
  -------         ENDMOD        ?C?MEMCMP

  -------         MODULE        ?C?MEMSET
  C:0EEEH         PUBLIC        ?C?MEMSET
  -------         ENDMOD        ?C?MEMSET

  -------         MODULE        ?C?LLDIDATA
  C:0F1AH         PUBLIC        ?C?LLDIDATA
  -------         ENDMOD        ?C?LLDIDATA

  -------         MODULE        ?C?LLDXDATA
  C:0F26H         PUBLIC        ?C?LLDXDATA
  -------         ENDMOD        ?C?LLDXDATA

  -------         MODULE        ?C?LLDPDATA
  C:0F32H         PUBLIC        ?C?LLDPDATA
  -------         ENDMOD        ?C?LLDPDATA

  -------         MODULE        ?C?LLDCODE
  C:0F3EH         PUBLIC        ?C?LLDCODE
  -------         ENDMOD        ?C?LLDCODE

  -------         MODULE        ?C?LLDIDATA0
  C:0F4EH         PUBLIC        ?C?LLDIDATA0
  -------         ENDMOD        ?C?LLDIDATA0

BL51 BANKED LINKER/LOCATER V6.22                                                      05/20/2014  11:03:55  PAGE 133


  -------         MODULE        ?C?LLDXDATA0
  C:0F5BH         PUBLIC        ?C?LLDXDATA0
  -------         ENDMOD        ?C?LLDXDATA0

  -------         MODULE        ?C?LLDPDATA0
  C:0F67H         PUBLIC        ?C?LLDPDATA0
  -------         ENDMOD        ?C?LLDPDATA0

  -------         MODULE        ?C?LLDCODE0
  C:0F74H         PUBLIC        ?C?LLDCODE0
  -------         ENDMOD        ?C?LLDCODE0

  -------         MODULE        ?C?LSTIDATA
  C:0F84H         PUBLIC        ?C?LSTIDATA
  -------         ENDMOD        ?C?LSTIDATA

  -------         MODULE        ?C?LSTPDATA
  C:0F90H         PUBLIC        ?C?LSTPDATA
  -------         ENDMOD        ?C?LSTPDATA

  -------         MODULE        ?C?PLDIDATA
  C:0F9CH         PUBLIC        ?C?PLDIDATA
  -------         ENDMOD        ?C?PLDIDATA

  -------         MODULE        ?C?PSTIDATA
  C:0FA5H         PUBLIC        ?C?PSTIDATA
  -------         ENDMOD        ?C?PSTIDATA

  -------         MODULE        ?C?PLDXDATA
  C:0FAEH         PUBLIC        ?C?PLDXDATA
  -------         ENDMOD        ?C?PLDXDATA

  -------         MODULE        ?C?PLDPDATA
  C:0FB7H         PUBLIC        ?C?PLDPDATA
  -------         ENDMOD        ?C?PLDPDATA

  -------         MODULE        ?C?PSTPDATA
  C:0FC0H         PUBLIC        ?C?PSTPDATA
  -------         ENDMOD        ?C?PSTPDATA

  -------         MODULE        ?C?PLDCODE
  C:0FC9H         PUBLIC        ?C?PLDCODE
  -------         ENDMOD        ?C?PLDCODE

*** WARNING L16: UNCALLED SEGMENT, IGNORED FOR OVERLAY PROCESS
    SEGMENT: ?PR?_BEACON_IDENTITY?VELOX_BEACON

Program Size: data=15.6 xdata=5901 code=55195
LINK/LOCATE RUN COMPLETE.  1 WARNING(S),  0 ERROR(S)
