BL51 BANKED LINKER/LOCATER V6.22                                                        12/24/2012  13:21:13  PAGE 1


BL51 BANKED LINKER/LOCATER V6.22, INVOKED BY:
C:\KEIL\C51\BIN\BL51.EXE C8051_adc.obj, C8051_comparator.obj, C8051_extern_int.obj, C8051_oscillator.obj, C8051_SMBus.ob
>> j, C8051_SPI0.obj, C8051_uart0.obj, C8051_uart1.obj, C8051_watchdog.obj, PWRS_battery.obj, PWRS_calibration.obj, PWRS
>> _conversions.obj, PWRS_fault_handling.obj, PWRS_mppt.obj, PWRS_housekeeping.obj, PWRS_thermal.obj, PWRS_load.obj, PWR
>> S_reset.obj, C8051_scratchpad.obj, C8051_eeprom.obj, PWRS_camera.obj, C8051_pca0.obj, Velox_timertask.obj, Velox_uart
>> .obj, Velox_sfrstack.obj, Velox_checksum.obj, PWRS_i2c.obj, PWRS_mux.obj, C8051_delay.obj, system_config.obj, Velox_r
>> aid.obj, PWRS_main.obj, PWRS_port.obj, mccif_xdata.obj, mccif_buffer.obj, mccif_stream.obj, C8051_UART1_string.obj, V
>> elox_string.obj, xbee.obj, xbee_ATcmd.obj, Velox_delay.obj, Velox_watchdog.obj, PWRS_debug.obj, C8051_mcutemp.obj, PW
>> RS_timer.obj TO pwrs RAMSIZE (256) CODE (0X0000-0XFFFF) XDATA (0X0000-0X1FFF)


MEMORY MODEL: LARGE WITH FLOATING POINT ARITHMETIC


INPUT MODULES INCLUDED:
  C8051_adc.obj (C8051_ADC)
  C8051_comparator.obj (C8051_COMPARATOR)
  C8051_extern_int.obj (C8051_EXTERN_INT)
  C8051_oscillator.obj (C8051_OSCILLATOR)
  C8051_SMBus.obj (C8051_SMBUS)
  C8051_SPI0.obj (C8051_SPI0)
  C8051_uart0.obj (C8051_UART0)
  C8051_uart1.obj (C8051_UART1)
  C8051_watchdog.obj (C8051_WATCHDOG)
  PWRS_battery.obj (PWRS_BATTERY)
  PWRS_calibration.obj (PWRS_CALIBRATION)
  PWRS_conversions.obj (PWRS_CONVERSIONS)
  PWRS_fault_handling.obj (PWRS_FAULT_HANDLING)
  PWRS_mppt.obj (PWRS_MPPT)
  PWRS_housekeeping.obj (PWRS_HOUSEKEEPING)
  PWRS_thermal.obj (PWRS_THERMAL)
  PWRS_load.obj (PWRS_LOAD)
  PWRS_reset.obj (PWRS_RESET)
  C8051_scratchpad.obj (C8051_SCRATCHPAD)
  C8051_eeprom.obj (C8051_EEPROM)
  PWRS_camera.obj (PWRS_CAMERA)
  C8051_pca0.obj (C8051_PCA0)
  Velox_timertask.obj (VELOX_TIMERTASK)
  Velox_uart.obj (VELOX_UART)
  Velox_sfrstack.obj (VELOX_SFRSTACK)
  Velox_checksum.obj (VELOX_CHECKSUM)
  PWRS_i2c.obj (PWRS_I2C)
  PWRS_mux.obj (PWRS_MUX)
  C8051_delay.obj (C8051_DELAY)
  system_config.obj (SYSTEM_CONFIG)
  Velox_raid.obj (VELOX_RAID)
  PWRS_main.obj (PWRS_MAIN)
  PWRS_port.obj (PWRS_PORT)
  mccif_xdata.obj (MCCIF_XDATA)
  mccif_buffer.obj (MCCIF_BUFFER)
  mccif_stream.obj (MCCIF_STREAM)
  C8051_UART1_string.obj (C8051_UART1_STRING)
  Velox_string.obj (VELOX_STRING)
  xbee.obj (XBEE)
  xbee_ATcmd.obj (XBEE_ATCMD)
  Velox_delay.obj (VELOX_DELAY)
  Velox_watchdog.obj (VELOX_WATCHDOG)
  PWRS_debug.obj (PWRS_DEBUG)
BL51 BANKED LINKER/LOCATER V6.22                                                      12/24/2012  13:21:13  PAGE 2


  C8051_mcutemp.obj (C8051_MCUTEMP)
  PWRS_timer.obj (PWRS_TIMER)
  C:\KEIL\C51\LIB\C51FPL.LIB (?C?FPADD)
  C:\KEIL\C51\LIB\C51FPL.LIB (?C?FPMUL)
  C:\KEIL\C51\LIB\C51FPL.LIB (?C?FPDIV)
  C:\KEIL\C51\LIB\C51FPL.LIB (?C?FPCMP)
  C:\KEIL\C51\LIB\C51FPL.LIB (?C?FCAST)
  C:\KEIL\C51\LIB\C51FPL.LIB (?C?CASTF)
  C:\KEIL\C51\LIB\C51FPL.LIB (PRINTF)
  C:\KEIL\C51\LIB\C51FPL.LIB (?C?FPGETOPN)
  C:\KEIL\C51\LIB\C51FPL.LIB (?C?FPROUND)
  C:\KEIL\C51\LIB\C51FPL.LIB (?C?FPCONVERT)
  C:\KEIL\C51\LIB\C51FPL.LIB (?C?FTNPWR)
  C:\KEIL\C51\LIB\C51L.LIB (?C_STARTUP)
  C:\KEIL\C51\LIB\C51L.LIB (?C?COPY)
  C:\KEIL\C51\LIB\C51L.LIB (?C?CLDPTR)
  C:\KEIL\C51\LIB\C51L.LIB (?C?CLDOPTR)
  C:\KEIL\C51\LIB\C51L.LIB (?C?CSTPTR)
  C:\KEIL\C51\LIB\C51L.LIB (?C?CSTOPTR)
  C:\KEIL\C51\LIB\C51L.LIB (?C?IMUL)
  C:\KEIL\C51\LIB\C51L.LIB (?C?UIDIV)
  C:\KEIL\C51\LIB\C51L.LIB (?C?SIDIV)
  C:\KEIL\C51\LIB\C51L.LIB (?C?IILDX)
  C:\KEIL\C51\LIB\C51L.LIB (?C?ILDPTR)
  C:\KEIL\C51\LIB\C51L.LIB (?C?ILDOPTR)
  C:\KEIL\C51\LIB\C51L.LIB (?C?IILDPTR)
  C:\KEIL\C51\LIB\C51L.LIB (?C?ISTPTR)
  C:\KEIL\C51\LIB\C51L.LIB (?C?ISTOPTR)
  C:\KEIL\C51\LIB\C51L.LIB (?C?LADD)
  C:\KEIL\C51\LIB\C51L.LIB (?C?LSUB)
  C:\KEIL\C51\LIB\C51L.LIB (?C?LMUL)
  C:\KEIL\C51\LIB\C51L.LIB (?C?ULDIV)
  C:\KEIL\C51\LIB\C51L.LIB (?C?SLDIV)
  C:\KEIL\C51\LIB\C51L.LIB (?C?LNEG)
  C:\KEIL\C51\LIB\C51L.LIB (?C?SLCMP)
  C:\KEIL\C51\LIB\C51L.LIB (?C?ULCMP)
  C:\KEIL\C51\LIB\C51L.LIB (?C?SLSHR)
  C:\KEIL\C51\LIB\C51L.LIB (?C?LSHL)
  C:\KEIL\C51\LIB\C51L.LIB (?C?LSTPTR)
  C:\KEIL\C51\LIB\C51L.LIB (?C?LLDXDATA)
  C:\KEIL\C51\LIB\C51L.LIB (?C?LLDXDATA0)
  C:\KEIL\C51\LIB\C51L.LIB (?C?LSTXDATA)
  C:\KEIL\C51\LIB\C51L.LIB (?C?LSTKXDATA)
  C:\KEIL\C51\LIB\C51L.LIB (?C?LSTKPTR)
  C:\KEIL\C51\LIB\C51L.LIB (?C?OFFXADD)
  C:\KEIL\C51\LIB\C51L.LIB (?C?PLDXDATA)
  C:\KEIL\C51\LIB\C51L.LIB (?C?PLDIXDATA)
  C:\KEIL\C51\LIB\C51L.LIB (?C?PSTXDATA)
  C:\KEIL\C51\LIB\C51L.LIB (?C?CCASE)
  C:\KEIL\C51\LIB\C51L.LIB (?C?ICALL)
  C:\KEIL\C51\LIB\C51L.LIB (?C?STRCMP)
  C:\KEIL\C51\LIB\C51L.LIB (STRLEN)
  C:\KEIL\C51\LIB\C51L.LIB (?C?MEMSET)
  C:\KEIL\C51\LIB\C51L.LIB (?C_INIT)
  C:\KEIL\C51\LIB\C51L.LIB (?C?LSTIDATA)
  C:\KEIL\C51\LIB\C51L.LIB (?C?LSTPDATA)
  C:\KEIL\C51\LIB\C51L.LIB (?C?LSTKIDATA)
BL51 BANKED LINKER/LOCATER V6.22                                                      12/24/2012  13:21:13  PAGE 3


  C:\KEIL\C51\LIB\C51L.LIB (?C?LSTKPDATA)


LINK MAP OF MODULE:  pwrs (C8051_ADC)


            TYPE    BASE      LENGTH    RELOCATION   SEGMENT NAME
            -----------------------------------------------------

            * * * * * * *   D A T A   M E M O R Y   * * * * * * *
            REG     0000H     0008H     ABSOLUTE     "REG BANK 0"
            DATA    0008H     0006H     UNIT         ?DT?C8051_SCRATCHPAD
            DATA    000EH     0005H     UNIT         _DATA_GROUP_
                    0013H     000DH                  *** GAP ***
            BIT     0020H.0   0001H.1   UNIT         _BIT_GROUP_
            BIT     0021H.1   0000H.2   UNIT         ?BI?_FLASH_BYTEWRITE?C8051_SCRATCHPAD
            BIT     0021H.3   0000H.2   UNIT         ?BI?_FLASH_BYTEREAD?C8051_SCRATCHPAD
            BIT     0021H.5   0000H.2   UNIT         ?BI?_FLASH_PAGEERASE?C8051_SCRATCHPAD
            BIT     0021H.7   0000H.1   UNIT         ?BI?_SMBUS_SETRXBUFFER?C8051_SMBUS
            BIT     0022H.0   0000H.1   UNIT         ?BI?UART0_RESETRX?C8051_UART0
            BIT     0022H.1   0000H.1   UNIT         ?BI?UART0_GETRXAVAILABLE?C8051_UART0
            BIT     0022H.2   0000H.1   UNIT         ?BI?_UART0_ADVANCE?C8051_UART0
            BIT     0022H.3   0000H.1   UNIT         ?BI?_UART0_PUTCHAR?C8051_UART0
            BIT     0022H.4   0000H.1   UNIT         ?BI?WATCHDOG_DISABLE?C8051_WATCHDOG
            BIT     0022H.5   0000H.1   UNIT         ?BI?TIMERTASK_GETCLOCK_OVERRIDE?PWRS_MAIN
            BIT     0022H.6   0000H.1   UNIT         ?BI?WATCHDOG_CONFIRMALIVE?VELOX_WATCHDOG
            BIT     0022H.7   0000H.1   UNIT         ?BI?DEBUG_PRINT?PWRS_DEBUG
            IDATA   0023H     0001H     UNIT         ?STACK

            * * * * * * *  X D A T A   M E M O R Y  * * * * * * *
            XDATA   0000H     0018H     UNIT         ?XD?_MCCIF_DOWNLINKSTREAM?MCCIF_STREAM
            XDATA   0018H     0002H     ABSOLUTE     
            XDATA   001AH     0001H     ABSOLUTE     
            XDATA   001BH     0004H     UNIT         ?XD?_ADC0_READSHORT?C8051_ADC
            XDATA   001FH     0004H     ABSOLUTE     
            XDATA   0023H     002CH     UNIT         ?XD?XBEESTART?XBEE
            XDATA   004FH     0001H     ABSOLUTE     
            XDATA   0050H     0001H     ABSOLUTE     
            XDATA   0051H     0005H     ABSOLUTE     
            XDATA   0056H     0005H     ABSOLUTE     
            XDATA   005BH     0005H     ABSOLUTE     
            XDATA   0060H     0005H     ABSOLUTE     
            XDATA   0065H     0005H     ABSOLUTE     
            XDATA   006AH     0101H     UNIT         ?XD?HOUSEKEEPING_GETALL?PWRS_HOUSEKEEPING
            XDATA   016BH     0068H     UNIT         ?XD?PWRS_I2C
            XDATA   01D3H     0019H     UNIT         ?XD?_MCCIF_UPLINKXDATA?MCCIF_XDATA
            XDATA   01ECH     0006H     UNIT         ?XD?_SMBUS_INIT?C8051_SMBUS
            XDATA   01F2H     0002H     ABSOLUTE     
            XDATA   01F4H     0005H     ABSOLUTE     
            XDATA   01F9H     0006H     ABSOLUTE     
            XDATA   01FFH     0006H     ABSOLUTE     
            XDATA   0205H     0004H     ABSOLUTE     
            XDATA   0209H     0002H     ABSOLUTE     
            XDATA   020BH     0001H     UNIT         ?XD?COMPARATOR0_CLOSE?C8051_COMPARATOR
            XDATA   020CH     0002H     ABSOLUTE     
            XDATA   020EH     0002H     ABSOLUTE     
            XDATA   0210H     0002H     ABSOLUTE     
BL51 BANKED LINKER/LOCATER V6.22                                                      12/24/2012  13:21:13  PAGE 4


            XDATA   0212H     0008H     ABSOLUTE     
            XDATA   021AH     0008H     ABSOLUTE     
            XDATA   0222H     0004H     ABSOLUTE     
            XDATA   0226H     0001H     ABSOLUTE     
            XDATA   0227H     0001H     ABSOLUTE     
            XDATA   0228H     0001H     ABSOLUTE     
            XDATA   0229H     0002H     ABSOLUTE     
            XDATA   022BH     0001H     ABSOLUTE     
            XDATA   022CH     0001H     ABSOLUTE     
            XDATA   022DH     0001H     ABSOLUTE     
            XDATA   022EH     0001H     ABSOLUTE     
            XDATA   022FH     0001H     ABSOLUTE     
            XDATA   0230H     0006H     UNIT         ?XD?_FLASH_PAGEERASE?C8051_SCRATCHPAD
            XDATA   0236H     0001H     ABSOLUTE     
            XDATA   0237H     0001H     ABSOLUTE     
            XDATA   0238H     0001H     ABSOLUTE     
            XDATA   0239H     0002H     ABSOLUTE     
            XDATA   023BH     0001H     ABSOLUTE     
            XDATA   023CH     0001H     ABSOLUTE     
            XDATA   023DH     0004H     ABSOLUTE     
            XDATA   0241H     0002H     ABSOLUTE     
            XDATA   0243H     0002H     ABSOLUTE     
            XDATA   0245H     0002H     ABSOLUTE     
            XDATA   0247H     0002H     ABSOLUTE     
            XDATA   0249H     0002H     ABSOLUTE     
            XDATA   024BH     0002H     ABSOLUTE     
            XDATA   024DH     0002H     ABSOLUTE     
            XDATA   024FH     0002H     ABSOLUTE     
            XDATA   0251H     0002H     ABSOLUTE     
            XDATA   0253H     0004H     ABSOLUTE     
            XDATA   0257H     0004H     ABSOLUTE     
            XDATA   025BH     0004H     UNIT         ?XD?OSCILLATOR_ATTEMPTEXTINIT?C8051_OSCILLATOR
            XDATA   025FH     0001H     ABSOLUTE     
            XDATA   0260H     0001H     ABSOLUTE     
            XDATA   0261H     0001H     ABSOLUTE     
            XDATA   0262H     0004H     ABSOLUTE     
            XDATA   0266H     0001H     ABSOLUTE     
            XDATA   0267H     0001H     ABSOLUTE     
            XDATA   0268H     0001H     ABSOLUTE     
            XDATA   0269H     0001H     ABSOLUTE     
            XDATA   026AH     0001H     ABSOLUTE     
            XDATA   026BH     0004H     ABSOLUTE     
            XDATA   026FH     0002H     ABSOLUTE     
            XDATA   0271H     0001H     ABSOLUTE     
            XDATA   0272H     0005H     ABSOLUTE     
            XDATA   0277H     0001H     ABSOLUTE     
            XDATA   0278H     0004H     ABSOLUTE     
            XDATA   027CH     0002H     ABSOLUTE     
            XDATA   027EH     0002H     ABSOLUTE     
            XDATA   0280H     0001H     ABSOLUTE     
            XDATA   0281H     0002H     ABSOLUTE     
            XDATA   0283H     0002H     UNIT         ?XD?C8051_ADC
            XDATA   0285H     0002H     ABSOLUTE     
            XDATA   0287H     0002H     ABSOLUTE     
            XDATA   0289H     0002H     ABSOLUTE     
            XDATA   028BH     0002H     ABSOLUTE     
            XDATA   028DH     0001H     ABSOLUTE     
BL51 BANKED LINKER/LOCATER V6.22                                                      12/24/2012  13:21:13  PAGE 5


            XDATA   028EH     0002H     ABSOLUTE     
            XDATA   0290H     0002H     ABSOLUTE     
            XDATA   0292H     0002H     UNIT         ?XD?OSCILLATOR_RESETCAUSECHECK?C8051_OSCILLATOR
            XDATA   0294H     0002H     ABSOLUTE     
            XDATA   0296H     0002H     ABSOLUTE     
            XDATA   0298H     0001H     ABSOLUTE     
            XDATA   0299H     0004H     ABSOLUTE     
            XDATA   029DH     0004H     ABSOLUTE     
            XDATA   02A1H     0004H     ABSOLUTE     
            XDATA   02A5H     0045H     ABSOLUTE     
            XDATA   02EAH     001EH     ABSOLUTE     
            XDATA   0308H     0002H     ABSOLUTE     
            XDATA   030AH     0200H     UNIT         ?XD?VELOX_CHECKSUM
            XDATA   050AH     008BH     UNIT         ?XD?DEBUG_PRINT?PWRS_DEBUG
            XDATA   0595H     0030H     UNIT         ?XD?XBEE
            XDATA   05C5H     0017H     UNIT         ?XD?C8051_UART0
            XDATA   05DCH     0003H     ABSOLUTE     
            XDATA   05DFH     0006H     UNIT         ?XD?_EEPROM_READ?C8051_EEPROM
            XDATA   05E5H     0003H     ABSOLUTE     
            XDATA   05E8H     0008H     UNIT         ?XD?XBEECOORDHANDLER?XBEE
            XDATA   05F0H     0003H     ABSOLUTE     
            XDATA   05F3H     000FH     ABSOLUTE     
            XDATA   0602H     01ACH     UNIT         ?XD?PWRS_CAMERA
            XDATA   07AEH     0020H     UNIT         ?XD?XBEEREMOTEATCMDRQHANDLER?XBEE_ATCMD
            XDATA   07CEH     0002H     UNIT         ?XD?UART0_GETRXAVAILABLE?C8051_UART0
            XDATA   07D0H     0005H     ABSOLUTE     
            XDATA   07D5H     01D7H     UNIT         ?XD?XBEE_ATCMD
            XDATA   09ACH     0017H     UNIT         ?XD?_RAID_WRITE?VELOX_RAID
            XDATA   09C3H     0001H     UNIT         ?XD?COMPARATOR1_CLOSE?C8051_COMPARATOR
            XDATA   09C4H     0001H     ABSOLUTE     
            XDATA   09C5H     0007H     UNIT         ?XD?_ADC0_INIT?C8051_ADC
            XDATA   09CCH     0001H     UNIT         ?XD?EXT_INTERRUPT_INIT?C8051_EXTERN_INT
            XDATA   09CDH     0002H     ABSOLUTE     
            XDATA   09CFH     0004H     ABSOLUTE     
            XDATA   09D3H     0004H     ABSOLUTE     
            XDATA   09D7H     0002H     ABSOLUTE     
            XDATA   09D9H     0004H     ABSOLUTE     
            XDATA   09DDH     0004H     ABSOLUTE     
            XDATA   09E1H     0004H     ABSOLUTE     
            XDATA   09E5H     0004H     ABSOLUTE     
            XDATA   09E9H     0001H     ABSOLUTE     
            XDATA   09EAH     0001H     ABSOLUTE     
            XDATA   09EBH     0004H     ABSOLUTE     
            XDATA   09EFH     0004H     ABSOLUTE     
            XDATA   09F3H     0004H     ABSOLUTE     
            XDATA   09F7H     0004H     ABSOLUTE     
            XDATA   09FBH     0004H     UNIT         ?XD?_THERMAL_SETTKOUTPUTSCHEDULED?PWRS_THERMAL
            XDATA   09FFH     0001H     ABSOLUTE     
            XDATA   0A00H     0001H     ABSOLUTE     
            XDATA   0A01H     0001H     ABSOLUTE     
            XDATA   0A02H     0007H     UNIT         ?XD?_ADC0_GETAVERAGE_MV?C8051_ADC
            XDATA   0A09H     0001H     UNIT         ?XD?C8051_OSCILLATOR
            XDATA   0A0AH     0001H     ABSOLUTE     
            XDATA   0A0BH     0001H     ABSOLUTE     
            XDATA   0A0CH     0007H     UNIT         ?XD?_SPI0_INIT?C8051_SPI0
            XDATA   0A13H     0001H     UNIT         ?XD?SMBUS_ISR?C8051_SMBUS
            XDATA   0A14H     0001H     ABSOLUTE     
BL51 BANKED LINKER/LOCATER V6.22                                                      12/24/2012  13:21:13  PAGE 6


            XDATA   0A15H     0001H     ABSOLUTE     
            XDATA   0A16H     0001H     ABSOLUTE     
            XDATA   0A17H     0002H     ABSOLUTE     
            XDATA   0A19H     0002H     ABSOLUTE     
            XDATA   0A1BH     0001H     ABSOLUTE     
            XDATA   0A1CH     0002H     ABSOLUTE     
            XDATA   0A1EH     0882H     UNIT         ?XD?PWRS_MAIN
            XDATA   12A0H     0030H     UNIT         _XDATA_GROUP_
            XDATA   12D0H     0027H     UNIT         ?XD?PWRS_CALIBRATION
            XDATA   12F7H     0016H     UNIT         ?XD?C8051_UART1
            XDATA   130DH     0016H     UNIT         ?XD?_MCCIF_DOWNLINKXDATA?MCCIF_XDATA
            XDATA   1323H     0011H     UNIT         ?XD?_CHECKSUM_INIT?VELOX_CHECKSUM
            XDATA   1334H     0010H     UNIT         ?XD?C8051_SMBUS
            XDATA   1344H     0010H     UNIT         ?XD?_LM94022_DECODETEMPERATURE?PWRS_CONVERSIONS
            XDATA   1354H     0010H     UNIT         ?XD?_XBEEREMOTEATCMDREQUEST?XBEE_ATCMD
            XDATA   1364H     000EH     UNIT         ?XD?_MUX_GETALL?PWRS_MUX
            XDATA   1372H     000EH     UNIT         ?XD?_HEXSTRING2ULONG?VELOX_STRING
            XDATA   1380H     000DH     UNIT         ?XD?_UART0_OPEN?C8051_UART0
            XDATA   138DH     000CH     UNIT         ?XD?_UART1_OPEN?C8051_UART1
            XDATA   1399H     000CH     UNIT         ?XD?_CHECKSUM_UPDATE?VELOX_CHECKSUM
            XDATA   13A5H     000CH     UNIT         ?XD?_RAID_READCHARS?VELOX_RAID
            XDATA   13B1H     000CH     UNIT         ?XD?_RAID_WRITECHARS?VELOX_RAID
            XDATA   13BDH     000CH     UNIT         ?XD?_ATCHECKOK?XBEE_ATCMD
            XDATA   13C9H     000BH     UNIT         ?XD?_SPI0_GETPUTCHARS?C8051_SPI0
            XDATA   13D4H     000BH     UNIT         ?XD?_BATTERY_SETPWRSHT?PWRS_BATTERY
            XDATA   13DFH     000BH     UNIT         ?XD?_MCCIF_APPENDCHARS?MCCIF_BUFFER
            XDATA   13EAH     000BH     UNIT         ?XD?_ATCMDWRITE?XBEE_ATCMD
            XDATA   13F5H     000AH     UNIT         ?XD?_UART0_POLLCHARS?C8051_UART0
            XDATA   13FFH     000AH     UNIT         ?XD?_UART0_PUTCHARS?C8051_UART0
            XDATA   1409H     000AH     UNIT         ?XD?_UART1_POLLCHARS?C8051_UART1
            XDATA   1413H     000AH     UNIT         ?XD?_UART1_PUTCHARS?C8051_UART1
            XDATA   141DH     000AH     UNIT         ?XD?_CAMERA_UPLINKMCC?PWRS_CAMERA
            XDATA   1427H     000AH     UNIT         ?XD?MCCIF_BUFFER
            XDATA   1431H     0009H     UNIT         ?XD?_EEPROM_WRITE?C8051_EEPROM
            XDATA   143AH     0009H     UNIT         ?XD?_ATCMDREAD?XBEE_ATCMD
            XDATA   1443H     0009H     UNIT         ?XD?XBEEATACK?XBEE_ATCMD
            XDATA   144CH     0009H     UNIT         ?XD?XBEEATDATATRANSMIT?XBEE_ATCMD
            XDATA   1455H     0007H     UNIT         ?XD?_FLASH_BYTEWRITE?C8051_SCRATCHPAD
            XDATA   145CH     0007H     UNIT         ?XD?_FLASH_BYTEREAD?C8051_SCRATCHPAD
            XDATA   1463H     0007H     UNIT         ?XD?_TIMERTASK_INITPERIOD?VELOX_TIMERTASK
            XDATA   146AH     0007H     UNIT         ?XD?_RAID_READ?VELOX_RAID
            XDATA   1471H     0007H     UNIT         ?XD?MAIN?PWRS_MAIN
            XDATA   1478H     0007H     UNIT         ?XD?_DELAY_BLOCKMS?VELOX_DELAY
            XDATA   147FH     0007H     UNIT         ?XD?_TIMER1_INIT?PWRS_TIMER
            XDATA   1486H     0007H     UNIT         ?XD?_TIMER4_INIT?PWRS_TIMER
            XDATA   148DH     0006H     UNIT         ?XD?_PCA0_INIT?C8051_PCA0
            XDATA   1493H     0006H     UNIT         ?XD?_UART_POLLCHARS?VELOX_UART
            XDATA   1499H     0006H     UNIT         ?XD?_UART_PUTCHARS?VELOX_UART
            XDATA   149FH     0006H     UNIT         ?XD?_UART1GETSTRING?C8051_UART1_STRING
            XDATA   14A5H     0005H     UNIT         ?XD?_SMBUS_SETRXBUFFER?C8051_SMBUS
            XDATA   14AAH     0005H     UNIT         ?XD?_SMBUS_SETTXBUFFER?C8051_SMBUS
            XDATA   14AFH     0005H     UNIT         ?XD?_TIMERTASK_TIMEUNTILEXECUTION?VELOX_TIMERTASK
            XDATA   14B4H     0005H     UNIT         ?XD?_TIMERTASK_ISREADY?VELOX_TIMERTASK
            XDATA   14B9H     0005H     UNIT         ?XD?_SFR_INIT?VELOX_SFRSTACK
            XDATA   14BEH     0005H     UNIT         ?XD?VELOX_SFRSTACK
            XDATA   14C3H     0005H     UNIT         ?XD?_CHECKSUM_ISVALID?VELOX_CHECKSUM
            XDATA   14C8H     0005H     UNIT         ?XD?_MCCIF_SETBUFFER?MCCIF_BUFFER
BL51 BANKED LINKER/LOCATER V6.22                                                      12/24/2012  13:21:13  PAGE 7


            XDATA   14CDH     0005H     UNIT         ?XD?UART1GET?C8051_UART1_STRING
            XDATA   14D2H     0005H     UNIT         ?XD?_TIMER2_INIT?PWRS_TIMER
            XDATA   14D7H     0005H     UNIT         ?XD?_TIMER3_INIT?PWRS_TIMER
            XDATA   14DCH     0004H     UNIT         ?XD?_LOAD_SETSINGLEOUTPUTSCHEDULED?PWRS_LOAD
            XDATA   14E0H     0004H     UNIT         ?XD?EEPROM_SPIF?C8051_EEPROM
            XDATA   14E4H     0004H     UNIT         ?XD?CAMERA_GETFRAMEDATA?PWRS_CAMERA
            XDATA   14E8H     0004H     UNIT         ?XD?_CAMERA_SENDCOMMAND?PWRS_CAMERA
            XDATA   14ECH     0004H     UNIT         ?XD?_I2C_FORMAT4BYTEREPLY?PWRS_I2C
            XDATA   14F0H     0004H     UNIT         ?XD?_XBEESETPACKETDELAY?XBEE
            XDATA   14F4H     0004H     UNIT         ?XD?_XBEESETPACKETTIMEOUT?XBEE
            XDATA   14F8H     0004H     UNIT         ?XD?_XBEESETNETWORKTIMEOUT?XBEE
            XDATA   14FCH     0004H     UNIT         ?XD?ATCMDMODEENTER?XBEE_ATCMD
            XDATA   1500H     0004H     UNIT         ?XD?_XBEEWRITESTRINGPAYLOAD?XBEE_ATCMD
            XDATA   1504H     0004H     UNIT         ?XD?VELOX_WATCHDOG
            XDATA   1508H     0004H     UNIT         ?XD?_MCUTEMP_MVTOCELSIUS?C8051_MCUTEMP
            XDATA   150CH     0003H     UNIT         ?XD?INT_OSCILLATOR_INIT?C8051_OSCILLATOR
            XDATA   150FH     0003H     UNIT         ?XD?_SMBUS_SETTXBUFFERUNCONSTRAINED?C8051_SMBUS
            XDATA   1512H     0003H     UNIT         ?XD?_SPI0_GETPUT?C8051_SPI0
            XDATA   1515H     0003H     UNIT         ?XD?C8051_SPI0
            XDATA   1518H     0003H     UNIT         ?XD?UART1_GETRXAVAILABLE?C8051_UART1
            XDATA   151BH     0003H     UNIT         ?XD?_UART1_ADVANCE?C8051_UART1
            XDATA   151EH     0003H     UNIT         ?XD?_UART1_PUTCHAR?C8051_UART1
            XDATA   1521H     0003H     UNIT         ?XD?_PCA0_SETDUTYCYCLE?C8051_PCA0
            XDATA   1524H     0003H     UNIT         ?XD?_TIMERTASK_FROMNOW?VELOX_TIMERTASK
            XDATA   1527H     0003H     UNIT         ?XD?_UART_ADVANCE?VELOX_UART
            XDATA   152AH     0003H     UNIT         ?XD?_CHECKSUM_ROTATE?VELOX_CHECKSUM
            XDATA   152DH     0003H     UNIT         ?XD?VELOX_RAID
            XDATA   1530H     0003H     UNIT         ?XD?_MCCIF_INIT?MCCIF_XDATA
            XDATA   1533H     0003H     UNIT         ?XD?MCCIF_XDATA
            XDATA   1536H     0003H     UNIT         ?XD?UART1_CHECK_TX?XBEE_ATCMD
            XDATA   1539H     0003H     UNIT         ?XD?XBEEATDATARECEIVE?XBEE_ATCMD
            XDATA   153CH     0002H     UNIT         ?XD?_UART0_ADVANCE?C8051_UART0
            XDATA   153EH     0002H     UNIT         ?XD?_UART0_PUTCHAR?C8051_UART0
            XDATA   1540H     0002H     UNIT         ?XD?_BATTERY_SETSOCLIMIT?PWRS_BATTERY
            XDATA   1542H     0002H     UNIT         ?XD?_MPPT_SETMODE?PWRS_MPPT
            XDATA   1544H     0002H     UNIT         ?XD?_THERMAL_SETTKOUTPUT?PWRS_THERMAL
            XDATA   1546H     0002H     UNIT         ?XD?_LOAD_SETSINGLEOUTPUTNOW?PWRS_LOAD
            XDATA   1548H     0002H     UNIT         ?XD?_LOAD_SETOUTPUTCHANNELS?PWRS_LOAD
            XDATA   154AH     0002H     UNIT         ?XD?_RESET_OBDH_SCHEDULED?PWRS_RESET
            XDATA   154CH     0002H     UNIT         ?XD?_RESET_PWRS_SCHEDULED?PWRS_RESET
            XDATA   154EH     0002H     UNIT         ?XD?_PCA0_SETCPM?C8051_PCA0
            XDATA   1550H     0002H     UNIT         ?XD?VELOX_TIMERTASK
            XDATA   1552H     0002H     UNIT         ?XD?_CHECKSUM_PUBLISH?VELOX_CHECKSUM
            XDATA   1554H     0002H     UNIT         ?XD?I2C_HANDLER?PWRS_I2C
            XDATA   1556H     0002H     UNIT         ?XD?_DELAY_US?C8051_DELAY
            XDATA   1558H     0002H     UNIT         ?XD?TIMERTASK_GETCLOCK_OVERRIDE?PWRS_MAIN
            XDATA   155AH     0002H     UNIT         ?XD?_MCCIF_APPENDCHAR?MCCIF_BUFFER
            XDATA   155CH     0002H     UNIT         ?XD?ATCMDMODEEXIT?XBEE_ATCMD
            XDATA   155EH     0002H     UNIT         ?XD?_WATCHDOG_ADVANCEDINIT?VELOX_WATCHDOG
            XDATA   1560H     0002H     UNIT         ?XD?_TIMER0_INIT?PWRS_TIMER
            XDATA   1562H     0002H     UNIT         ?XD?PWRS_TIMER
            XDATA   1564H     0001H     UNIT         ?XD?TIMER3_ISR?C8051_SMBUS
            XDATA   1565H     0001H     UNIT         ?XD?UART0_CLOSE?C8051_UART0
            XDATA   1566H     0001H     UNIT         ?XD?UART1_CLOSE?C8051_UART1
            XDATA   1567H     0001H     UNIT         ?XD?BATTERY_CHARGINGCONTROL?PWRS_BATTERY
            XDATA   1568H     0001H     UNIT         ?XD?PWRS_BATTERY
            XDATA   1569H     0001H     UNIT         ?XD?_FAULT_SET5VREDUNDANCY?PWRS_FAULT_HANDLING
BL51 BANKED LINKER/LOCATER V6.22                                                      12/24/2012  13:21:13  PAGE 8


            XDATA   156AH     0001H     UNIT         ?XD?_MPPT_TRACKING?PWRS_MPPT
            XDATA   156BH     0001H     UNIT         ?XD?RESET_RAID_COUNTERS?PWRS_RESET
            XDATA   156CH     0001H     UNIT         ?XD?RESET_LOADRAID?PWRS_RESET
            XDATA   156DH     0001H     UNIT         ?XD?EMIF_INIT?C8051_EEPROM
            XDATA   156EH     0001H     UNIT         ?XD?CAMERA_POLL?PWRS_CAMERA
            XDATA   156FH     0001H     UNIT         ?XD?_CAMERA_COMMANDHANDLER?PWRS_CAMERA
            XDATA   1570H     0001H     UNIT         ?XD?_SFR_PUSHPAGE?VELOX_SFRSTACK
            XDATA   1571H     0001H     UNIT         ?XD?_RAID_INIT?VELOX_RAID
            XDATA   1572H     0001H     UNIT         ?XD?_RAID_SETSIMULATEFAILURE?VELOX_RAID
            XDATA   1573H     0001H     UNIT         ?XD?_RAID_RESETSCRATCHPAD?VELOX_RAID
            XDATA   1574H     0001H     UNIT         ?XD?_PUTCHAR?PWRS_MAIN
            XDATA   1575H     0001H     UNIT         ?XD?_UART1_RX_PUSH?XBEE_ATCMD
            XDATA   1576H     0001H     UNIT         ?XD?TIMER0_SETRELOAD?PWRS_TIMER

            * * * * * * *   C O D E   M E M O R Y   * * * * * * *
            CODE    0000H     0003H     ABSOLUTE     
            CODE    0003H     0020H     UNIT         ?PR?OSCILLATOR_INIT?C8051_OSCILLATOR
            CODE    0023H     0003H     ABSOLUTE     
            CODE    0026H     0005H     UNIT         ?CO?PWRS_CAMERA
            CODE    002BH     0003H     ABSOLUTE     
            CODE    002EH     000CH     UNIT         ?PR?THERMAL_KNIFE_ENABLE?PWRS_THERMAL
            CODE    003AH     0001H     UNIT         ?PR?CAMERA_SMBUSTX?PWRS_CAMERA
            CODE    003BH     0003H     ABSOLUTE     
            CODE    003EH     0035H     UNIT         ?PR?_CHECKSUM_ISVALID?VELOX_CHECKSUM
            CODE    0073H     0003H     ABSOLUTE     
            CODE    0076H     002CH     UNIT         ?PR?_CAMERA_SENDCOMMAND?PWRS_CAMERA
                    00A2H     0001H                  *** GAP ***
            CODE    00A3H     0003H     ABSOLUTE     
            CODE    00A6H     0D21H     UNIT         ?C?LIB_CODE
            CODE    0DC7H     0BC5H     UNIT         ?PR?XBEESTART?XBEE
            CODE    198CH     0892H     UNIT         ?PR?HOUSEKEEPING_GETALL?PWRS_HOUSEKEEPING
            CODE    221EH     07C9H     UNIT         ?PR?DEBUG_PRINT?PWRS_DEBUG
            CODE    29E7H     0710H     UNIT         ?PR?_MPPT_TRACKING?PWRS_MPPT
            CODE    30F7H     0670H     UNIT         ?PR?I2C_HANDLER?PWRS_I2C
            CODE    3767H     059BH     UNIT         ?CO?PWRS_DEBUG
            CODE    3D02H     0483H     UNIT         ?PR?PRINTF?PRINTF
            CODE    4185H     02F6H     UNIT         ?PR?_RAID_WRITE?VELOX_RAID
            CODE    447BH     02E7H     UNIT         ?PR?BATTERY_UPDATEPARAMETERS?PWRS_BATTERY
            CODE    4762H     02DBH     UNIT         ?PR?XBEEATDATARECEIVE?XBEE_ATCMD
            CODE    4A3DH     0298H     UNIT         ?PR?XBEECOORDHANDLER?XBEE
            CODE    4CD5H     0261H     UNIT         ?PR?XBEEREMOTEATCMDRQHANDLER?XBEE_ATCMD
            CODE    4F36H     021AH     UNIT         ?PR?_XBEEREMOTEATCMDREQUEST?XBEE_ATCMD
            CODE    5150H     0215H     UNIT         ?PR?_MCCIF_UPLINKXDATA?MCCIF_XDATA
            CODE    5365H     0200H     UNIT         ?PR?MAIN?PWRS_MAIN
            CODE    5565H     01DFH     UNIT         ?PR?FAULT_HANDLING?PWRS_FAULT_HANDLING
            CODE    5744H     017AH     UNIT         ?PR?_ATCHECKOK?XBEE_ATCMD
            CODE    58BEH     016DH     UNIT         ?PR?_MUX_GETALL?PWRS_MUX
            CODE    5A2BH     0164H     UNIT         ?PR?_BATTERY_SETPWRSHT?PWRS_BATTERY
            CODE    5B8FH     0160H     UNIT         ?PR?_EEPROM_WRITE?C8051_EEPROM
            CODE    5CEFH     0152H     UNIT         ?PR?_MCCIF_DOWNLINKSTREAM?MCCIF_STREAM
            CODE    5E41H     014DH     UNIT         ?PR?_CHECKSUM_INIT?VELOX_CHECKSUM
            CODE    5F8EH     013FH     UNIT         ?PR?_MCCIF_DOWNLINKXDATA?MCCIF_XDATA
            CODE    60CDH     0133H     UNIT         ?PR?SMBUS_ISR?C8051_SMBUS
            CODE    6200H     012AH     UNIT         ?PR?_ATCMDWRITE?XBEE_ATCMD
            CODE    632AH     0120H     UNIT         ?PR?_CAMERA_UPLINKMCC?PWRS_CAMERA
            CODE    644AH     0118H     UNIT         ?PR?_ATCMDREAD?XBEE_ATCMD
            CODE    6562H     0117H     UNIT         ?PR?XBEEATDATATRANSMIT?XBEE_ATCMD
BL51 BANKED LINKER/LOCATER V6.22                                                      12/24/2012  13:21:13  PAGE 9


            CODE    6679H     010EH     UNIT         ?PR?_HEXSTRING2ULONG?VELOX_STRING
            CODE    6787H     0109H     UNIT         ?C_INITSEG
            CODE    6890H     0101H     UNIT         ?PR?UART0_ISR?C8051_UART0
            CODE    6991H     0101H     UNIT         ?PR?ATCMDMODEENTER?XBEE_ATCMD
            CODE    6A92H     00F4H     UNIT         ?PR?XBEEATACK?XBEE_ATCMD
            CODE    6B86H     00E9H     UNIT         ?PR?_PCA0_SETDUTYCYCLE?C8051_PCA0
            CODE    6C6FH     00E6H     UNIT         ?PR?UART1_ISR?C8051_UART1
            CODE    6D55H     00E5H     UNIT         ?PR?OSCILLATOR_ATTEMPTEXTINIT?C8051_OSCILLATOR
            CODE    6E3AH     00D4H     UNIT         ?PR?_THERMAL_SETTKOUTPUT?PWRS_THERMAL
            CODE    6F0EH     00CCH     UNIT         ?PR?_FLASH_BYTEWRITE?C8051_SCRATCHPAD
            CODE    6FDAH     00CAH     UNIT         ?PR?XBEEINIT?XBEE
            CODE    70A4H     00C7H     UNIT         ?PR?_FLASH_PAGEERASE?C8051_SCRATCHPAD
            CODE    716BH     00C4H     UNIT         ?PR?_ADC0_GETAVERAGE_MV?C8051_ADC
            CODE    722FH     00C3H     UNIT         ?PR?_FLASH_BYTEREAD?C8051_SCRATCHPAD
            CODE    72F2H     00BFH     UNIT         ?PR?CALIBRATION_HANDLER?PWRS_CALIBRATION
            CODE    73B1H     00BCH     UNIT         ?PR?_TIMERTASK_ISREADY?VELOX_TIMERTASK
            CODE    746DH     00AEH     UNIT         ?PR?_UART0_POLLCHARS?C8051_UART0
            CODE    751BH     00AEH     UNIT         ?PR?_UART1_POLLCHARS?C8051_UART1
            CODE    75C9H     00A7H     UNIT         ?PR?_UART1_PUTCHAR?C8051_UART1
            CODE    7670H     009FH     UNIT         ?PR?BATTERY_CHARGINGCONTROL?PWRS_BATTERY
            CODE    770FH     009CH     UNIT         ?PR?_UART0_PUTCHAR?C8051_UART0
            CODE    77ABH     0093H     UNIT         ?PR?_THERMAL_SETTKOUTPUTSCHEDULED?PWRS_THERMAL
            CODE    783EH     008EH     UNIT         ?PR?_UART0_OPEN?C8051_UART0
            CODE    78CCH     008CH     UNIT         ?C_C51STARTUP
            CODE    7958H     008BH     UNIT         ?PR?_SPI0_GETPUTCHARS?C8051_SPI0
            CODE    79E3H     0087H     UNIT         ?PR?RESET_LOADRAID?PWRS_RESET
            CODE    7A6AH     0085H     UNIT         ?PR?_UART1_OPEN?C8051_UART1
            CODE    7AEFH     0085H     UNIT         ?PR?_CHECKSUM_UPDATE?VELOX_CHECKSUM
            CODE    7B74H     0083H     UNIT         ?PR?_LOAD_SETSINGLEOUTPUTSCHEDULED?PWRS_LOAD
            CODE    7BF7H     0082H     UNIT         ?PR?_TIMER1_INIT?PWRS_TIMER
            CODE    7C79H     007FH     UNIT         ?PR?_MPPT_SETMODE?PWRS_MPPT
            CODE    7CF8H     007DH     UNIT         ?PR?_LOAD_SETSINGLEOUTPUTNOW?PWRS_LOAD
            CODE    7D75H     007DH     UNIT         ?PR?_MCCIF_APPENDCHAR?MCCIF_BUFFER
            CODE    7DF2H     0079H     UNIT         ?PR?_RAID_READCHARS?VELOX_RAID
            CODE    7E6BH     0077H     UNIT         ?PR?CAMERA_GETFRAMEDATA?PWRS_CAMERA
            CODE    7EE2H     0077H     UNIT         ?PR?_I2C_FORMAT4BYTEREPLY?PWRS_I2C
            CODE    7F59H     0077H     UNIT         ?PR?_RAID_WRITECHARS?VELOX_RAID
            CODE    7FD0H     0076H     UNIT         ?PR?_RAID_RESETSCRATCHPAD?VELOX_RAID
            CODE    8046H     0072H     UNIT         ?PR?_UART1_RX_PUSH?XBEE_ATCMD
            CODE    80B8H     0071H     UNIT         ?PR?_CAMERA_COMMANDHANDLER?PWRS_CAMERA
            CODE    8129H     0071H     UNIT         ?PR?_TIMER4_INIT?PWRS_TIMER
            CODE    819AH     006EH     UNIT         ?PR?_EEPROM_READ?C8051_EEPROM
            CODE    8208H     006EH     UNIT         ?PR?ATCMDMODEEXIT?XBEE_ATCMD
            CODE    8276H     006BH     UNIT         ?PR?UART1GET?C8051_UART1_STRING
            CODE    82E1H     006AH     UNIT         ?PR?_UART1GETSTRING?C8051_UART1_STRING
            CODE    834BH     0069H     UNIT         ?PR?_UART1_ADVANCE?C8051_UART1
            CODE    83B4H     0068H     UNIT         ?PR?_ADC0_INIT?C8051_ADC
            CODE    841CH     0068H     UNIT         ?PR?RESET_RAID_COUNTERS?PWRS_RESET
            CODE    8484H     0068H     UNIT         ?PR?_TIMERTASK_INITPERIOD?VELOX_TIMERTASK
            CODE    84ECH     0067H     UNIT         ?PR?_MCCIF_APPENDCHARS?MCCIF_BUFFER
            CODE    8553H     0065H     UNIT         ?PR?_UART0_PUTCHARS?C8051_UART0
            CODE    85B8H     0065H     UNIT         ?PR?_UART1_PUTCHARS?C8051_UART1
            CODE    861DH     005EH     UNIT         ?PR?_UART0_ADVANCE?C8051_UART0
            CODE    867BH     005DH     UNIT         ?PR?_FAULT_SET5VREDUNDANCY?PWRS_FAULT_HANDLING
            CODE    86D8H     005CH     UNIT         ?PR?_LOAD_SETOUTPUTCHANNELS?PWRS_LOAD
            CODE    8734H     005BH     UNIT         ?PR?MCCIF_FLUSH?MCCIF_BUFFER
            CODE    878FH     0059H     UNIT         ?PR?INT_OSCILLATOR_INIT?C8051_OSCILLATOR
BL51 BANKED LINKER/LOCATER V6.22                                                      12/24/2012  13:21:13  PAGE 10


            CODE    87E8H     0059H     UNIT         ?PR?_PCA0_SETCPM?C8051_PCA0
            CODE    8841H     0057H     UNIT         ?PR?_RAID_READ?VELOX_RAID
            CODE    8898H     0056H     UNIT         ?PR?_SPI0_GETPUT?C8051_SPI0
            CODE    88EEH     0055H     UNIT         ?CO?XBEE
            CODE    8943H     0054H     UNIT         ?PR?_XBEEWRITESTRINGPAYLOAD?XBEE_ATCMD
            CODE    8997H     0051H     UNIT         ?PR?_CHECKSUM_ROTATE?VELOX_CHECKSUM
            CODE    89E8H     004FH     UNIT         ?PR?_LM94022_DECODETEMPERATURE?PWRS_CONVERSIONS
            CODE    8A37H     004DH     UNIT         ?PR?TIMER2_ISR?PWRS_MAIN
            CODE    8A84H     004BH     UNIT         ?PR?_TIMERTASK_TIMEUNTILEXECUTION?VELOX_TIMERTASK
            CODE    8ACFH     004BH     UNIT         ?PR?_DELAY_BLOCKMS?VELOX_DELAY
            CODE    8B1AH     004BH     UNIT         ?PR?_TIMER3_INIT?PWRS_TIMER
            CODE    8B65H     0048H     UNIT         ?PR?EEPROM_SPIF?C8051_EEPROM
            CODE    8BADH     0046H     UNIT         ?PR?_PCA0_INIT?C8051_PCA0
            CODE    8BF3H     0045H     UNIT         ?PR?_UART_POLLCHARS?VELOX_UART
            CODE    8C38H     0044H     UNIT         ?PR?_SFR_PUSHPAGE?VELOX_SFRSTACK
            CODE    8C7CH     0044H     UNIT         ?C?LDIV
            CODE    8CC0H     0042H     UNIT         ?PR?_UART_PUTCHARS?VELOX_UART
            CODE    8D02H     0041H     UNIT         ?PR?CAMERA_MAINTAINBUFFERS?PWRS_CAMERA
            CODE    8D43H     0040H     UNIT         ?PR?_SPI0_INIT?C8051_SPI0
            CODE    8D83H     0040H     UNIT         ?PR?_MCCIF_SETBUFFER?MCCIF_BUFFER
            CODE    8DC3H     003FH     UNIT         ?PR?_ADC0_READSHORT?C8051_ADC
            CODE    8E02H     003FH     UNIT         ?PR?_SMBUS_INIT?C8051_SMBUS
            CODE    8E41H     003FH     UNIT         ?PR?HOUSEKEEPING_GETINTERNAL?PWRS_HOUSEKEEPING
            CODE    8E80H     003FH     UNIT         ?PR?_TIMER2_INIT?PWRS_TIMER
            CODE    8EBFH     003BH     UNIT         ?PR?OSCILLATOR_RESETCAUSECHECK?C8051_OSCILLATOR
            CODE    8EFAH     003BH     UNIT         ?PR?_CHECKSUM_PUBLISH?VELOX_CHECKSUM
            CODE    8F35H     0039H     UNIT         ?PR?FAULT_SET5VREDUNDANCYPREPARATION?PWRS_FAULT_HANDLING
            CODE    8F6EH     0039H     UNIT         ?PR?_DELAY_US?C8051_DELAY
            CODE    8FA7H     0038H     UNIT         ?PR?_UART_ADVANCE?VELOX_UART
            CODE    8FDFH     0037H     UNIT         ?PR?_SMBUS_SETRXBUFFER?C8051_SMBUS
            CODE    9016H     0036H     UNIT         ?PR?TIMER3_ISR?C8051_SMBUS
            CODE    904CH     0036H     UNIT         ?PR?_XBEESETPACKETDELAY?XBEE
            CODE    9082H     0036H     UNIT         ?PR?_XBEESETPACKETTIMEOUT?XBEE
            CODE    90B8H     0036H     UNIT         ?PR?_XBEESETNETWORKTIMEOUT?XBEE
            CODE    90EEH     0036H     UNIT         ?PR?_TIMER0_INIT?PWRS_TIMER
            CODE    9124H     0034H     UNIT         ?PR?_PUTCHAR?PWRS_MAIN
            CODE    9158H     0033H     UNIT         ?PR?_SMBUS_SETTXBUFFER?C8051_SMBUS
            CODE    918BH     0030H     UNIT         ?PR?PORT_INIT?PWRS_PORT
            CODE    91BBH     002EH     UNIT         ?PR?UART1_GETRXAVAILABLE?C8051_UART1
            CODE    91E9H     002EH     UNIT         ?PR?_MCCIF_INIT?MCCIF_XDATA
            CODE    9217H     002AH     UNIT         ?PR?THERMAL_UPDATETKSTATUS?PWRS_THERMAL
            CODE    9241H     0029H     UNIT         ?PR?_RESET_OBDH_SCHEDULED?PWRS_RESET
            CODE    926AH     0029H     UNIT         ?PR?_RESET_PWRS_SCHEDULED?PWRS_RESET
            CODE    9293H     0029H     UNIT         ?PR?SFR_POPPAGE?VELOX_SFRSTACK
            CODE    92BCH     0029H     UNIT         ?PR?UART1_CHECK_TX?XBEE_ATCMD
            CODE    92E5H     0028H     UNIT         ?PR?UART1_CLOSE?C8051_UART1
            CODE    930DH     0028H     UNIT         ?PR?_SFR_INIT?VELOX_SFRSTACK
            CODE    9335H     0028H     UNIT         ?CO?PWRS_MAIN
            CODE    935DH     0027H     UNIT         ?PR?UART0_CLOSE?C8051_UART0
            CODE    9384H     0027H     UNIT         ?PR?CAMERA_POLL?PWRS_CAMERA
            CODE    93ABH     0026H     UNIT         ?PR?WATCHDOG_INTERRUPTCALLBACK?VELOX_WATCHDOG
            CODE    93D1H     0025H     UNIT         ?PR?PCA0_CPM_OVERLOADCONFIG?PWRS_MAIN
            CODE    93F6H     0025H     UNIT         ?PR?TIMERTASK_GETCLOCK_OVERRIDE?PWRS_MAIN
            CODE    941BH     0024H     UNIT         ?PR?LOAD_UPDATECHANNELSTATUS?PWRS_LOAD
            CODE    943FH     0024H     UNIT         ?PR?_RAID_INIT?VELOX_RAID
            CODE    9463H     0023H     UNIT         ?PR?UART0_RESETRX?C8051_UART0
            CODE    9486H     0023H     UNIT         ?PR?UART0_GETRXAVAILABLE?C8051_UART0
BL51 BANKED LINKER/LOCATER V6.22                                                      12/24/2012  13:21:13  PAGE 11


            CODE    94A9H     0023H     UNIT         ?PR?RESET_OBDH?PWRS_RESET
            CODE    94CCH     0023H     UNIT         ?PR?_MCUTEMP_MVTOCELSIUS?C8051_MCUTEMP
            CODE    94EFH     0022H     UNIT         ?PR?_WATCHDOG_ADVANCEDINIT?VELOX_WATCHDOG
            CODE    9511H     0021H     UNIT         ?PR?COMPARATOR0_CLOSE?C8051_COMPARATOR
            CODE    9532H     0021H     UNIT         ?PR?COMPARATOR1_CLOSE?C8051_COMPARATOR
            CODE    9553H     001FH     UNIT         ?PR?_BATTERY_SETSOCLIMIT?PWRS_BATTERY
            CODE    9572H     001FH     UNIT         ?PR?ATCMD_INIT?XBEE_ATCMD
            CODE    9591H     001FH     UNIT         ?PR?TIMER0_SETRELOAD?PWRS_TIMER
            CODE    95B0H     001EH     UNIT         ?CO?XBEE_ATCMD
            CODE    95CEH     001BH     UNIT         ?PR?_TIMERTASK_FROMNOW?VELOX_TIMERTASK
            CODE    95E9H     001AH     UNIT         ?PR?OSCILLATOR_GETSYSTEMCLOCK?C8051_OSCILLATOR
            CODE    9603H     0019H     UNIT         ?PR?SMBUS_TEARDOWNRX?C8051_SMBUS
            CODE    961CH     0018H     UNIT         ?PR?EXT_INTERRUPT_INIT?C8051_EXTERN_INT
            CODE    9634H     0017H     UNIT         ?PR?RESET_PWRS_DATA_BACKUP?PWRS_RESET
            CODE    964BH     0017H     UNIT         ?PR?EMIF_INIT?C8051_EEPROM
            CODE    9662H     0015H     UNIT         ?PR?WATCHDOG_CONFIRMALIVE?VELOX_WATCHDOG
            CODE    9677H     0015H     UNIT         ?PR?_STRLEN?STRLEN
            CODE    968CH     0014H     UNIT         ?PR?_SMBUS_SETTXBUFFERUNCONSTRAINED?C8051_SMBUS
            CODE    96A0H     0013H     UNIT         ?PR?WATCHDOG_DISABLE?C8051_WATCHDOG
            CODE    96B3H     0010H     UNIT         ?PR?_RAID_SETSIMULATEFAILURE?VELOX_RAID
            CODE    96C3H     000FH     UNIT         ?PR?RESET_PWRS?PWRS_RESET
            CODE    96D2H     000FH     UNIT         ?PR?CAMERA_ACQUISITIONHANDLER?PWRS_CAMERA
            CODE    96E1H     000EH     UNIT         ?PR?RAID_GETADDRESSLO?VELOX_RAID
            CODE    96EFH     000EH     UNIT         ?PR?RAID_GETADDRESSHI?VELOX_RAID
            CODE    96FDH     000CH     UNIT         ?PR?THERMAL_KNIFE_DISABLE?PWRS_THERMAL
            CODE    9709H     000CH     UNIT         ?PR?THERMAL_HEATER_ENABLE?PWRS_THERMAL
            CODE    9715H     000CH     UNIT         ?PR?THERMAL_HEATER_DISABLE?PWRS_THERMAL
            CODE    9721H     000CH     UNIT         ?PR?TIMERTASK_UPDATECLOCK?VELOX_TIMERTASK
            CODE    972DH     000CH     UNIT         ?PR?SYSTEM_GETT1PRESCALER?SYSTEM_CONFIG
            CODE    9739H     000CH     UNIT         ?PR?SYSTEM_GETCKCON?SYSTEM_CONFIG
            CODE    9745H     000BH     UNIT         ?PR?CAMERE_RESETBUFFER?PWRS_CAMERA
            CODE    9750H     000BH     UNIT         ?PR?MCUTEMP_INCELSIUS?C8051_MCUTEMP
            CODE    975BH     000AH     UNIT         ?PR?WATCHDOG_INIT?C8051_WATCHDOG
            CODE    9765H     000AH     UNIT         ?PR?SMBUS_RXACKNOWLEGDE_OVERRIDE?PWRS_MAIN
            CODE    976FH     0009H     UNIT         ?PR?CAMERA_ACKNOWLEDGE?PWRS_CAMERA
            CODE    9778H     0008H     UNIT         ?CO?PWRS_MUX
            CODE    9780H     0007H     UNIT         ?PR?XBEETIMERRESET?XBEE
            CODE    9787H     0007H     UNIT         ?PR?XBEEPACKETTIMEOUTRESET?XBEE
            CODE    978EH     0007H     UNIT         ?PR?XBEENETWORKTIMEOUTRESET?XBEE
            CODE    9795H     0006H     UNIT         ?PR?OSCILLATOR_GETTYPE?C8051_OSCILLATOR
            CODE    979BH     0006H     UNIT         ?PR?SPI0_FAILURECOUNT?C8051_SPI0
            CODE    97A1H     0004H     UNIT         ?PR?WATCHDOG_RESETTIMER?C8051_WATCHDOG
            CODE    97A5H     0004H     UNIT         ?PR?WATCHDOG_LOCKOUT?C8051_WATCHDOG
            CODE    97A9H     0004H     UNIT         ?PR?CAMERA_BOOT?PWRS_CAMERA
            CODE    97ADH     0004H     UNIT         ?PR?CAMERA_TERMINATE?PWRS_CAMERA



OVERLAY MAP OF MODULE:   pwrs (C8051_ADC)


SEGMENT                                             BIT_GROUP          DATA_GROUP          XDATA_GROUP
  +--> CALLED SEGMENT                            START    LENGTH     START    LENGTH     START    LENGTH
--------------------------------------------------------------------------------------------------------
?PR?SMBUS_ISR?C8051_SMBUS                        -----    -----      -----    -----      -----    -----
  +--> ?PR?SMBUS_RXACKNOWLEGDE_OVERRIDE?PWRS...

BL51 BANKED LINKER/LOCATER V6.22                                                      12/24/2012  13:21:13  PAGE 12


?PR?SMBUS_RXACKNOWLEGDE_OVERRIDE?PWRS...         -----    -----      -----    -----      -----    -----
  +--> ?PR?_TIMERTASK_FROMNOW?VELOX_TIMERTASK

*** NEW ROOT ***************************************************

?PR?TIMER2_ISR?PWRS_MAIN                         -----    -----      -----    -----      -----    -----
  +--> ?PR?WATCHDOG_INTERRUPTCALLBACK?VELOX_...

?PR?WATCHDOG_INTERRUPTCALLBACK?VELOX_...         -----    -----      -----    -----      -----    -----
  +--> ?PR?WATCHDOG_RESETTIMER?C8051_WATCHDOG

*** NEW ROOT ***************************************************

?C_C51STARTUP                                    -----    -----      -----    -----      -----    -----
  +--> ?PR?MAIN?PWRS_MAIN
  +--> ?C_INITSEG

?PR?MAIN?PWRS_MAIN                               -----    -----      -----    -----      -----    -----
  +--> ?PR?WATCHDOG_DISABLE?C8051_WATCHDOG
  +--> ?PR?OSCILLATOR_INIT?C8051_OSCILLATOR
  +--> ?PR?PORT_INIT?PWRS_PORT
  +--> ?PR?_SFR_INIT?VELOX_SFRSTACK
  +--> ?PR?_CHECKSUM_INIT?VELOX_CHECKSUM
  +--> ?PR?_RAID_INIT?VELOX_RAID
  +--> ?PR?OSCILLATOR_GETSYSTEMCLOCK?C8051_O...
  +--> ?PR?SYSTEM_GETCKCON?SYSTEM_CONFIG
  +--> ?PR?_TIMER0_INIT?PWRS_TIMER
  +--> ?PR?SYSTEM_GETT1PRESCALER?SYSTEM_CONFIG
  +--> ?PR?_TIMER1_INIT?PWRS_TIMER
  +--> ?PR?_TIMER2_INIT?PWRS_TIMER
  +--> ?PR?_TIMER3_INIT?PWRS_TIMER
  +--> ?PR?_TIMER4_INIT?PWRS_TIMER
  +--> ?PR?_UART0_OPEN?C8051_UART0
  +--> ?PR?_UART1_OPEN?C8051_UART1
  +--> ?PR?PCA0_CPM_OVERLOADCONFIG?PWRS_MAIN
  +--> ?PR?_PCA0_INIT?C8051_PCA0
  +--> ?PR?EXT_INTERRUPT_INIT?C8051_EXTERN_INT
  +--> ?PR?_ADC0_INIT?C8051_ADC
  +--> ?PR?_SPI0_INIT?C8051_SPI0
  +--> ?PR?_SMBUS_SETRXBUFFER?C8051_SMBUS
  +--> ?PR?_SMBUS_INIT?C8051_SMBUS
  +--> ?PR?COMPARATOR0_CLOSE?C8051_COMPARATOR
  +--> ?PR?COMPARATOR1_CLOSE?C8051_COMPARATOR
  +--> ?PR?_WATCHDOG_ADVANCEDINIT?VELOX_WATC...
  +--> ?PR?TIMERTASK_UPDATECLOCK?VELOX_TIMER...
  +--> ?PR?OSCILLATOR_GETTYPE?C8051_OSCILLATOR
  +--> ?CO?PWRS_MAIN
  +--> ?PR?PRINTF?PRINTF
  +--> ?PR?_MCCIF_SETBUFFER?MCCIF_BUFFER
  +--> ?PR?_MCCIF_INIT?MCCIF_XDATA
  +--> ?PR?WATCHDOG_CONFIRMALIVE?VELOX_WATCHDOG
  +--> ?PR?_TIMERTASK_INITPERIOD?VELOX_TIMER...
  +--> ?PR?_MCCIF_UPLINKXDATA?MCCIF_XDATA
  +--> ?PR?_TIMERTASK_ISREADY?VELOX_TIMERTASK
  +--> ?PR?_MCCIF_DOWNLINKXDATA?MCCIF_XDATA

?PR?OSCILLATOR_INIT?C8051_OSCILLATOR             -----    -----      -----    -----      -----    -----
BL51 BANKED LINKER/LOCATER V6.22                                                      12/24/2012  13:21:13  PAGE 13


  +--> ?PR?OSCILLATOR_RESETCAUSECHECK?C8051_...
  +--> ?PR?OSCILLATOR_ATTEMPTEXTINIT?C8051_O...
  +--> ?PR?INT_OSCILLATOR_INIT?C8051_OSCILLATOR

?PR?PORT_INIT?PWRS_PORT                          -----    -----      -----    -----      -----    -----
  +--> ?PR?_SFR_PUSHPAGE?VELOX_SFRSTACK
  +--> ?PR?SFR_POPPAGE?VELOX_SFRSTACK

?PR?_RAID_INIT?VELOX_RAID                        -----    -----      -----    -----      -----    -----
  +--> ?PR?EMIF_INIT?C8051_EEPROM
  +--> ?PR?_RAID_RESETSCRATCHPAD?VELOX_RAID

?PR?_RAID_RESETSCRATCHPAD?VELOX_RAID             -----    -----      -----    -----      -----    -----
  +--> ?PR?_FLASH_BYTEREAD?C8051_SCRATCHPAD
  +--> ?PR?_FLASH_PAGEERASE?C8051_SCRATCHPAD
  +--> ?PR?_FLASH_BYTEWRITE?C8051_SCRATCHPAD

?PR?SYSTEM_GETCKCON?SYSTEM_CONFIG                -----    -----      -----    -----      -----    -----
  +--> ?PR?OSCILLATOR_GETTYPE?C8051_OSCILLATOR

?PR?_TIMER0_INIT?PWRS_TIMER                      -----    -----      -----    -----      -----    -----
  +--> ?PR?TIMER0_SETRELOAD?PWRS_TIMER

?PR?SYSTEM_GETT1PRESCALER?SYSTEM_CONFIG          -----    -----      -----    -----      -----    -----
  +--> ?PR?OSCILLATOR_GETTYPE?C8051_OSCILLATOR

?PR?_UART0_OPEN?C8051_UART0                      -----    -----      -----    -----      -----    -----
  +--> ?PR?_UART0_PUTCHARS?C8051_UART0
  +--> ?PR?_UART0_POLLCHARS?C8051_UART0
  +--> ?PR?_UART0_ADVANCE?C8051_UART0
  +--> ?PR?UART0_CLOSE?C8051_UART0
  +--> ?PR?UART0_RESETRX?C8051_UART0

?PR?_UART0_PUTCHARS?C8051_UART0                  -----    -----      -----    -----      -----    -----
  +--> ?PR?_UART0_PUTCHAR?C8051_UART0

?PR?_UART0_POLLCHARS?C8051_UART0                 -----    -----      -----    -----      -----    -----
  +--> ?PR?UART0_GETRXAVAILABLE?C8051_UART0

?PR?_UART1_OPEN?C8051_UART1                      -----    -----      -----    -----      -----    -----
  +--> ?PR?_UART1_PUTCHARS?C8051_UART1
  +--> ?PR?_UART1_POLLCHARS?C8051_UART1
  +--> ?PR?_UART1_ADVANCE?C8051_UART1
  +--> ?PR?UART1_CLOSE?C8051_UART1

?PR?_UART1_PUTCHARS?C8051_UART1                  -----    -----      -----    -----      -----    -----
  +--> ?PR?_UART1_PUTCHAR?C8051_UART1

?PR?_UART1_POLLCHARS?C8051_UART1                 -----    -----      -----    -----      -----    -----
  +--> ?PR?UART1_GETRXAVAILABLE?C8051_UART1

?PR?PCA0_CPM_OVERLOADCONFIG?PWRS_MAIN            -----    -----      -----    -----      -----    -----
  +--> ?PR?_PCA0_SETCPM?C8051_PCA0
  +--> ?PR?THERMAL_KNIFE_DISABLE?PWRS_THERMAL
  +--> ?PR?THERMAL_HEATER_DISABLE?PWRS_THERMAL

?PR?THERMAL_KNIFE_DISABLE?PWRS_THERMAL           -----    -----      -----    -----      -----    -----
BL51 BANKED LINKER/LOCATER V6.22                                                      12/24/2012  13:21:13  PAGE 14


  +--> ?PR?_SFR_PUSHPAGE?VELOX_SFRSTACK
  +--> ?PR?SFR_POPPAGE?VELOX_SFRSTACK

?PR?THERMAL_HEATER_DISABLE?PWRS_THERMAL          -----    -----      -----    -----      -----    -----
  +--> ?PR?_SFR_PUSHPAGE?VELOX_SFRSTACK
  +--> ?PR?SFR_POPPAGE?VELOX_SFRSTACK

?PR?COMPARATOR0_CLOSE?C8051_COMPARATOR           -----    -----      -----    -----      -----    -----
  +--> ?PR?_DELAY_US?C8051_DELAY

?PR?COMPARATOR1_CLOSE?C8051_COMPARATOR           -----    -----      -----    -----      -----    -----
  +--> ?PR?_DELAY_US?C8051_DELAY

?PR?_WATCHDOG_ADVANCEDINIT?VELOX_WATC...         -----    -----      -----    -----      -----    -----
  +--> ?PR?WATCHDOG_CONFIRMALIVE?VELOX_WATCHDOG
  +--> ?PR?WATCHDOG_INIT?C8051_WATCHDOG
  +--> ?PR?WATCHDOG_LOCKOUT?C8051_WATCHDOG

?PR?TIMERTASK_UPDATECLOCK?VELOX_TIMER...         -----    -----      -----    -----      -----    -----
  +--> ?PR?TIMERTASK_GETCLOCK_OVERRIDE?PWRS_...

?PR?PRINTF?PRINTF                                0020H.0  0001H.1    000EH    0005H      12A0H    0030H
  +--> ?PR?_PUTCHAR?PWRS_MAIN

?PR?_PUTCHAR?PWRS_MAIN                           -----    -----      -----    -----      -----    -----
  +--> ?PR?_UART_PUTCHARS?VELOX_UART
  +--> ?PR?_MCCIF_APPENDCHAR?MCCIF_BUFFER

?PR?_UART_PUTCHARS?VELOX_UART                    -----    -----      -----    -----      -----    -----
  +--> ?PR?_UART0_PUTCHARS?C8051_UART0
  +--> ?PR?_UART1_PUTCHARS?C8051_UART1

?PR?_MCCIF_APPENDCHAR?MCCIF_BUFFER               -----    -----      -----    -----      -----    -----
  +--> ?PR?MCCIF_FLUSH?MCCIF_BUFFER

?PR?MCCIF_FLUSH?MCCIF_BUFFER                     -----    -----      -----    -----      -----    -----
  +--> ?PR?_MCCIF_DOWNLINKSTREAM?MCCIF_STREAM

?PR?_MCCIF_DOWNLINKSTREAM?MCCIF_STREAM           -----    -----      -----    -----      -----    -----
  +--> ?PR?_CHECKSUM_UPDATE?VELOX_CHECKSUM
  +--> ?PR?_UART_PUTCHARS?VELOX_UART
  +--> ?PR?_CHECKSUM_PUBLISH?VELOX_CHECKSUM

?PR?_CHECKSUM_UPDATE?VELOX_CHECKSUM              -----    -----      -----    -----      -----    -----
  +--> ?PR?_CHECKSUM_ROTATE?VELOX_CHECKSUM

?PR?_CHECKSUM_PUBLISH?VELOX_CHECKSUM             -----    -----      -----    -----      -----    -----
  +--> ?PR?_CHECKSUM_ROTATE?VELOX_CHECKSUM

?PR?_MCCIF_UPLINKXDATA?MCCIF_XDATA               -----    -----      -----    -----      -----    -----
  +--> ?PR?_UART_POLLCHARS?VELOX_UART
  +--> ?PR?_CHECKSUM_ISVALID?VELOX_CHECKSUM
  +--> ?PR?_UART_ADVANCE?VELOX_UART

?PR?_UART_POLLCHARS?VELOX_UART                   -----    -----      -----    -----      -----    -----
  +--> ?PR?_UART0_POLLCHARS?C8051_UART0
  +--> ?PR?_UART1_POLLCHARS?C8051_UART1
BL51 BANKED LINKER/LOCATER V6.22                                                      12/24/2012  13:21:13  PAGE 15



?PR?_CHECKSUM_ISVALID?VELOX_CHECKSUM             -----    -----      -----    -----      -----    -----
  +--> ?PR?_CHECKSUM_UPDATE?VELOX_CHECKSUM
  +--> ?PR?_CHECKSUM_PUBLISH?VELOX_CHECKSUM

?PR?_UART_ADVANCE?VELOX_UART                     -----    -----      -----    -----      -----    -----
  +--> ?PR?_UART0_ADVANCE?C8051_UART0
  +--> ?PR?_UART1_ADVANCE?C8051_UART1

?PR?_MCCIF_DOWNLINKXDATA?MCCIF_XDATA             -----    -----      -----    -----      -----    -----
  +--> ?PR?_CHECKSUM_UPDATE?VELOX_CHECKSUM
  +--> ?PR?_UART_PUTCHARS?VELOX_UART
  +--> ?PR?_CHECKSUM_PUBLISH?VELOX_CHECKSUM



SYMBOL TABLE OF MODULE:  pwrs (C8051_ADC)

  VALUE           TYPE          NAME
  ----------------------------------

  -------         MODULE        C8051_ADC
  C:0000H         SYMBOL        _ICE_DUMMY_
  C:716BH         PUBLIC        _ADC0_getAverage_mV
  D:00BCH         PUBLIC        ADC0CF
  D:00E8H         PUBLIC        ADC0CN
  D:0084H         PUBLIC        SFRPAGE
  C:8DC3H         PUBLIC        _ADC0_readShort
  C:83B4H         PUBLIC        _ADC0_init
  D:00D1H         PUBLIC        REF0CN
  D:00BAH         PUBLIC        AMX0CF
  B:00E8H.5       PUBLIC        AD0INT
  D:00BBH         PUBLIC        AMX0SL
  B:00E8H.7       PUBLIC        AD0EN
  D:00BEH         PUBLIC        ADC0
  X:0283H         PUBLIC        vref_mv
  B:00E8H.4       PUBLIC        AD0BUSY
  -------         PROC          _ADC0_INIT
  X:09C5H         SYMBOL        sys_clk
  X:09C9H         SYMBOL        p_vref_mv
  -------         DO            
  X:09CBH         SYMBOL        SFRPAGE_SAVE
  -------         ENDDO         
  C:83B4H         LINE#         17
  C:83BAH         LINE#         18
  C:83C0H         LINE#         19
  C:83C3H         LINE#         21
  C:83C6H         LINE#         23
  C:83C9H         LINE#         25
  C:83CCH         LINE#         27
  C:83CFH         LINE#         30
  C:8402H         LINE#         34
  C:8404H         LINE#         35
  C:840BH         LINE#         36
  C:841BH         LINE#         37
  -------         ENDPROC       _ADC0_INIT
  -------         PROC          _ADC0_READSHORT
BL51 BANKED LINKER/LOCATER V6.22                                                      12/24/2012  13:21:13  PAGE 16


  X:001BH         SYMBOL        channel
  -------         DO            
  X:001CH         SYMBOL        SFRPAGE_SAVE
  X:001DH         SYMBOL        l_s_value
  -------         ENDDO         
  C:8DC3H         LINE#         41
  C:8DC8H         LINE#         42
  C:8DCEH         LINE#         45
  C:8DD1H         LINE#         47
  C:8DD8H         LINE#         48
  C:8DDFH         LINE#         50
  C:8DE1H         LINE#         52
  C:8DE3H         LINE#         54
  C:8DE6H         LINE#         55
  C:8DE6H         LINE#         57
  C:8DF0H         LINE#         59
  C:8DF2H         LINE#         61
  C:8DF9H         LINE#         62
  C:8E01H         LINE#         63
  -------         ENDPROC       _ADC0_READSHORT
  -------         PROC          _ADC0_GETAVERAGE_MV
  X:0A02H         SYMBOL        channel
  X:0A03H         SYMBOL        no_of_samples
  -------         DO            
  X:0A04H         SYMBOL        c0
  X:0A05H         SYMBOL        sum
  -------         ENDDO         
  C:716BH         LINE#         67
  C:7175H         LINE#         69
  C:717FH         LINE#         70
  C:7189H         LINE#         71
  C:719DH         LINE#         72
  C:71D6H         LINE#         74
  C:722EH         LINE#         75
  -------         ENDPROC       _ADC0_GETAVERAGE_MV
  -------         ENDMOD        C8051_ADC

  -------         MODULE        C8051_COMPARATOR
  C:0000H         SYMBOL        _ICE_DUMMY_
  D:00E6H         PUBLIC        EIE1
  D:0084H         PUBLIC        SFRPAGE
  D:0089H         PUBLIC        CPT0MD
  D:0088H         PUBLIC        CPT0CN
  D:0089H         PUBLIC        CPT1MD
  D:0088H         PUBLIC        CPT1CN
  C:9511H         PUBLIC        Comparator0_close
  C:9532H         PUBLIC        Comparator1_close
  -------         PROC          COMPARATOR0_CLOSE
  -------         DO            
  X:020BH         SYMBOL        SFRPAGE_SAVE
  -------         ENDDO         
  C:9511H         LINE#         7
  C:9511H         LINE#         8
  C:9517H         LINE#         9
  C:951AH         LINE#         33
  C:951DH         LINE#         34
  C:9524H         LINE#         48
BL51 BANKED LINKER/LOCATER V6.22                                                      12/24/2012  13:21:13  PAGE 17


  C:9527H         LINE#         49
  C:952AH         LINE#         50
  C:9531H         LINE#         51
  -------         ENDPROC       COMPARATOR0_CLOSE
  -------         PROC          COMPARATOR1_CLOSE
  -------         DO            
  X:09C3H         SYMBOL        SFRPAGE_SAVE
  -------         ENDDO         
  C:9532H         LINE#         53
  C:9532H         LINE#         54
  C:9538H         LINE#         55
  C:953BH         LINE#         81
  C:953EH         LINE#         82
  C:9545H         LINE#         95
  C:9548H         LINE#         96
  C:954BH         LINE#         97
  C:9552H         LINE#         98
  -------         ENDPROC       COMPARATOR1_CLOSE
  -------         ENDMOD        C8051_COMPARATOR

  -------         MODULE        C8051_EXTERN_INT
  C:0000H         SYMBOL        _ICE_DUMMY_
  D:0084H         PUBLIC        SFRPAGE
  D:0088H         PUBLIC        TCON
  B:00A8H.0       PUBLIC        EX0
  B:00A8H.2       PUBLIC        EX1
  C:961CH         PUBLIC        Ext_Interrupt_Init
  -------         PROC          EXT_INTERRUPT_INIT
  -------         DO            
  X:09CCH         SYMBOL        SFRPAGE_SAVE
  -------         ENDDO         
  C:961CH         LINE#         7
  C:961CH         LINE#         8
  C:9622H         LINE#         9
  C:9625H         LINE#         55
  C:9628H         LINE#         58
  C:962AH         LINE#         62
  C:962CH         LINE#         65
  C:9633H         LINE#         66
  -------         ENDPROC       EXT_INTERRUPT_INIT
  -------         ENDMOD        C8051_EXTERN_INT

  -------         MODULE        C8051_OSCILLATOR
  C:0000H         SYMBOL        _ICE_DUMMY_
  C:8EBFH         PUBLIC        Oscillator_resetCauseCheck
  D:008FH         PUBLIC        PLL0FLT
  D:008EH         PUBLIC        PLL0MUL
  D:0084H         PUBLIC        SFRPAGE
  D:00A1H         PUBLIC        CCH0CN
  C:878FH         PUBLIC        Int_Oscillator_Init
  D:0089H         PUBLIC        PLL0CN
  C:0003H         PUBLIC        Oscillator_init
  C:95E9H         PUBLIC        Oscillator_getSystemClock
  D:0097H         PUBLIC        CLKSEL
  D:008AH         PUBLIC        OSCICN
  D:008CH         PUBLIC        OSCXCN
  C:6D55H         PUBLIC        Oscillator_attemptExtInit
BL51 BANKED LINKER/LOCATER V6.22                                                      12/24/2012  13:21:13  PAGE 18


  D:00EFH         PUBLIC        RSTSRC
  X:0A09H         PUBLIC        oscillator_type
  C:9795H         PUBLIC        Oscillator_getType
  D:00B7H         PUBLIC        FLSCL
  D:008DH         PUBLIC        PLL0DIV
  -------         PROC          OSCILLATOR_RESETCAUSECHECK
  -------         DO            
  X:0292H         SYMBOL        SFRPAGE_SAVE
  X:0293H         SYMBOL        l_uc_reset_source
  -------         ENDDO         
  C:8EBFH         LINE#         232
  C:8EBFH         LINE#         233
  C:8EC5H         LINE#         239
  C:8EC8H         LINE#         244
  C:8ECBH         LINE#         250
  C:8ED0H         LINE#         253
  C:8ED6H         LINE#         256
  C:8EEAH         LINE#         257
  C:8EF3H         LINE#         259
  C:8EF9H         LINE#         260
  C:8EF9H         LINE#         261
  C:8EF9H         LINE#         262
  -------         ENDPROC       OSCILLATOR_RESETCAUSECHECK
  -------         PROC          OSCILLATOR_ATTEMPTEXTINIT
  -------         DO            
  X:025BH         SYMBOL        SFRPAGE_SAVE
  X:025CH         SYMBOL        l_c_OSC_stable
  X:025DH         SYMBOL        l_us_i
  -------         ENDDO         
  C:6D55H         LINE#         264
  C:6D55H         LINE#         265
  C:6D5BH         LINE#         268
  C:6D5EH         LINE#         299
  C:6D61H         LINE#         300
  C:6D64H         LINE#         303
  C:6D7DH         LINE#         304
  C:6D7EH         LINE#         305
  C:6D8AH         LINE#         308
  C:6DA3H         LINE#         309
  C:6DADH         LINE#         311
  C:6DB5H         LINE#         312
  C:6DBFH         LINE#         313
  C:6DBFH         LINE#         314
  C:6DCBH         LINE#         319
  C:6DD3H         LINE#         341
  C:6DD6H         LINE#         344
  C:6DD9H         LINE#         391
  C:6DDCH         LINE#         394
  C:6DDFH         LINE#         395
  C:6DE2H         LINE#         397
  C:6DE5H         LINE#         399
  C:6DE8H         LINE#         428
  C:6DEBH         LINE#         432
  C:6DEEH         LINE#         435
  C:6DF1H         LINE#         438
  C:6DF4H         LINE#         441
  C:6E19H         LINE#         445
BL51 BANKED LINKER/LOCATER V6.22                                                      12/24/2012  13:21:13  PAGE 19


  C:6E1CH         LINE#         448
  C:6E21H         LINE#         452
  C:6E24H         LINE#         453
  C:6E26H         LINE#         454
  C:6E2DH         LINE#         455
  C:6E30H         LINE#         456
  C:6E30H         LINE#         457
  C:6E37H         LINE#         458
  C:6E39H         LINE#         459
  -------         ENDPROC       OSCILLATOR_ATTEMPTEXTINIT
  -------         PROC          INT_OSCILLATOR_INIT
  -------         DO            
  X:150CH         SYMBOL        SFRPAGE_SAVE
  X:150DH         SYMBOL        l_us_i
  -------         ENDDO         
  C:878FH         LINE#         461
  C:878FH         LINE#         462
  C:8795H         LINE#         464
  C:8798H         LINE#         490
  C:879BH         LINE#         519
  C:879EH         LINE#         521
  C:87A1H         LINE#         524
  C:87A4H         LINE#         526
  C:87A7H         LINE#         529
  C:87AAH         LINE#         532
  C:87ADH         LINE#         535
  C:87B0H         LINE#         538
  C:87B3H         LINE#         541
  C:87D5H         LINE#         545
  C:87D8H         LINE#         548
  C:87DDH         LINE#         552
  C:87E0H         LINE#         554
  C:87E7H         LINE#         555
  -------         ENDPROC       INT_OSCILLATOR_INIT
  -------         PROC          OSCILLATOR_INIT
  C:0003H         LINE#         557
  C:0003H         LINE#         558
  C:0006H         LINE#         559
  C:000EH         LINE#         560
  C:0016H         LINE#         562
  C:001FH         LINE#         563
  C:0022H         LINE#         564
  -------         ENDPROC       OSCILLATOR_INIT
  -------         PROC          OSCILLATOR_GETTYPE
  C:9795H         LINE#         566
  C:9795H         LINE#         567
  C:979AH         LINE#         568
  -------         ENDPROC       OSCILLATOR_GETTYPE
  -------         PROC          OSCILLATOR_GETSYSTEMCLOCK
  C:95E9H         LINE#         570
  C:95E9H         LINE#         571
  C:95F1H         LINE#         572
  C:95FAH         LINE#         573
  C:9602H         LINE#         574
  -------         ENDPROC       OSCILLATOR_GETSYSTEMCLOCK
  -------         ENDMOD        C8051_OSCILLATOR

BL51 BANKED LINKER/LOCATER V6.22                                                      12/24/2012  13:21:13  PAGE 20


  -------         MODULE        C8051_SMBUS
  C:0000H         SYMBOL        _ICE_DUMMY_
  D:0080H         PUBLIC        P0
  X:1334H         PUBLIC        SMBus_txLength
  B:00C0H.2       PUBLIC        AA
  D:00E6H         PUBLIC        EIE1
  B:00A8H.7       PUBLIC        EA
  C:9016H         PUBLIC        Timer3_ISR
  D:0084H         PUBLIC        SFRPAGE
  C:968CH         PUBLIC        _SMBus_setTxBufferUnconstrained
  C:60CDH         PUBLIC        SMBus_ISR
  B:00C0H.3       PUBLIC        SI
  X:1336H         PUBLIC        SMBus_rxCount
  C:8FDFH         PUBLIC        _SMBus_setRxBuffer
  D:00C0H         PUBLIC        SMB0CN
  X:1338H         PUBLIC        SMBus_txCount
  X:133AH         PUBLIC        SMBus_rxLengthMax
  C:9158H         PUBLIC        _SMBus_setTxBuffer
  D:00CFH         PUBLIC        SMB0CR
  C:9603H         PUBLIC        SMBus_tearDownRx
  B:00C8H.7       PUBLIC        TF3
  X:133CH         PUBLIC        SMBus_rxIsDone
  C:8E02H         PUBLIC        _SMBus_init
  B:00C0H.5       PUBLIC        STA
  X:133DH         PUBLIC        SMBus_timer3Counter
  D:00C3H         PUBLIC        SMB0ADR
  D:00C2H         PUBLIC        SMB0DAT
  X:133EH         PUBLIC        SMBus_rxBuffer
  B:00C0H.4       PUBLIC        STO
  X:1341H         PUBLIC        SMBus_txBuffer
  D:00C1H         PUBLIC        SMB0STA
  -------         PROC          _SMBUS_SETRXBUFFER
  X:14A5H         SYMBOL        buffer
  X:14A8H         SYMBOL        length
  -------         DO            
  B:0021H.7       SYMBOL        EA_SAVE
  -------         ENDDO         
  C:8FDFH         LINE#         20
  C:8FEDH         LINE#         21
  C:8FF1H         LINE#         22
  C:8FF3H         LINE#         23
  C:8FF5H         LINE#         24
  C:9001H         LINE#         25
  C:9011H         LINE#         26
  C:9015H         LINE#         27
  -------         ENDPROC       _SMBUS_SETRXBUFFER
  -------         PROC          _SMBUS_SETTXBUFFER
  X:14AAH         SYMBOL        buffer
  X:14ADH         SYMBOL        length
  C:9158H         LINE#         33
  C:9166H         LINE#         34
  C:9172H         LINE#         35
  C:9182H         LINE#         36
  C:918AH         LINE#         37
  -------         ENDPROC       _SMBUS_SETTXBUFFER
  -------         PROC          _SMBUS_SETTXBUFFERUNCONSTRAINED
  X:150FH         SYMBOL        buffer
BL51 BANKED LINKER/LOCATER V6.22                                                      12/24/2012  13:21:13  PAGE 21


  C:968CH         LINE#         40
  C:9692H         LINE#         41
  C:969FH         LINE#         42
  -------         ENDPROC       _SMBUS_SETTXBUFFERUNCONSTRAINED
  -------         PROC          _SMBUS_INIT
  X:01ECH         SYMBOL        slave_address
  X:01EDH         SYMBOL        sys_clk
  -------         DO            
  X:01F1H         SYMBOL        SFRPAGE_SAVE
  -------         ENDDO         
  C:8E02H         LINE#         56
  C:8E07H         LINE#         57
  C:8E0DH         LINE#         58
  C:8E10H         LINE#         105
  C:8E13H         LINE#         108
  C:8E2AH         LINE#         111
  C:8E31H         LINE#         114
  C:8E34H         LINE#         117
  C:8E37H         LINE#         121
  C:8E39H         LINE#         122
  C:8E40H         LINE#         123
  -------         ENDPROC       _SMBUS_INIT
  -------         PROC          SMBUS_ISR
  -------         DO            
  X:0A13H         SYMBOL        l_c_msg
  -------         ENDDO         
  C:60CDH         LINE#         125
  C:60EAH         LINE#         130
  C:6121H         LINE#         136
  C:6121H         LINE#         139
  C:6121H         LINE#         141
  C:6129H         LINE#         142
  C:612CH         LINE#         143
  C:612FH         LINE#         148
  C:612FH         LINE#         153
  C:612FH         LINE#         154
  C:6135H         LINE#         155
  C:6152H         LINE#         156
  C:616DH         LINE#         157
  C:6177H         LINE#         158
  C:6179H         LINE#         159
  C:617BH         LINE#         164
  C:617BH         LINE#         169
  C:617BH         LINE#         170
  C:617DH         LINE#         171
  C:617FH         LINE#         175
  C:617FH         LINE#         176
  C:6185H         LINE#         177
  C:6187H         LINE#         182
  C:6187H         LINE#         185
  C:6187H         LINE#         187
  C:61A4H         LINE#         188
  C:61BCH         LINE#         189
  C:61C6H         LINE#         190
  C:61C8H         LINE#         192
  C:61CBH         LINE#         193
  C:61CBH         LINE#         195
BL51 BANKED LINKER/LOCATER V6.22                                                      12/24/2012  13:21:13  PAGE 22


  C:61CDH         LINE#         198
  C:61CDH         LINE#         200
  C:61CFH         LINE#         203
  C:61CFH         LINE#         205
  C:61D1H         LINE#         210
  C:61D1H         LINE#         215
  C:61D1H         LINE#         221
  C:61D1H         LINE#         222
  C:61D3H         LINE#         223
  C:61D5H         LINE#         228
  C:61D5H         LINE#         229
  C:61D7H         LINE#         232
  C:61D7H         LINE#         234
  C:61DAH         LINE#         235
  C:61DDH         LINE#         236
  C:61DFH         LINE#         237
  C:61E1H         LINE#         238
  C:61E3H         LINE#         239
  C:61E3H         LINE#         240
  C:61E3H         LINE#         242
  C:61E5H         LINE#         243
  -------         ENDPROC       SMBUS_ISR
  -------         PROC          SMBUS_TEARDOWNRX
  C:9603H         LINE#         246
  C:9603H         LINE#         247
  C:960BH         LINE#         248
  C:9610H         LINE#         249
  C:9619H         LINE#         250
  C:9619H         LINE#         251
  C:961BH         LINE#         252
  -------         ENDPROC       SMBUS_TEARDOWNRX
  -------         PROC          TIMER3_ISR
  -------         DO            
  X:1564H         SYMBOL        SFRPAGE_SAVE
  -------         ENDDO         
  C:9016H         LINE#         257
  C:9023H         LINE#         258
  C:9029H         LINE#         259
  C:902CH         LINE#         260
  C:902FH         LINE#         261
  C:9032H         LINE#         262
  C:9039H         LINE#         264
  C:903FH         LINE#         265
  C:9041H         LINE#         266
  -------         ENDPROC       TIMER3_ISR
  -------         ENDMOD        C8051_SMBUS

  -------         MODULE        C8051_SPI0
  C:0000H         SYMBOL        _ICE_DUMMY_
  D:009DH         PUBLIC        SPI0CKR
  X:1515H         PUBLIC        SPI0_timeout
  D:0084H         PUBLIC        SFRPAGE
  D:00F8H         PUBLIC        SPI0CN
  B:00F8H.7       PUBLIC        SPIF
  C:8D43H         PUBLIC        _SPI0_init
  X:1517H         PUBLIC        SPI0_failures
  D:009AH         PUBLIC        SPI0CFG
BL51 BANKED LINKER/LOCATER V6.22                                                      12/24/2012  13:21:13  PAGE 23


  C:7958H         PUBLIC        _SPI0_getPutChars
  C:979BH         PUBLIC        SPI0_failureCount
  D:009BH         PUBLIC        SPI0DAT
  C:8898H         PUBLIC        _SPI0_getPut
  -------         PROC          _SPI0_INIT
  X:0A0CH         SYMBOL        sys_clk
  X:0A10H         SYMBOL        p_timeout
  -------         DO            
  X:0A12H         SYMBOL        SFRPAGE_SAVE
  -------         ENDDO         
  C:8D43H         LINE#         14
  C:8D49H         LINE#         15
  C:8D4FH         LINE#         16
  C:8D52H         LINE#         17
  C:8D55H         LINE#         18
  C:8D58H         LINE#         23
  C:8D6BH         LINE#         24
  C:8D72H         LINE#         25
  C:8D82H         LINE#         26
  -------         ENDPROC       _SPI0_INIT
  -------         PROC          SPI0_FAILURECOUNT
  C:979BH         LINE#         28
  C:979BH         LINE#         29
  C:97A0H         LINE#         30
  -------         ENDPROC       SPI0_FAILURECOUNT
  -------         PROC          _SPI0_GETPUT
  X:1512H         SYMBOL        value
  -------         DO            
  X:1513H         SYMBOL        delay
  -------         ENDDO         
  C:8898H         LINE#         33
  C:889DH         LINE#         34
  C:88A5H         LINE#         36
  C:88ACH         LINE#         37
  C:88AFH         LINE#         38
  C:88D1H         LINE#         39
  C:88D5H         LINE#         40
  C:88DBH         LINE#         41
  C:88E6H         LINE#         42
  C:88E8H         LINE#         43
  C:88EDH         LINE#         44
  -------         ENDPROC       _SPI0_GETPUT
  -------         PROC          _SPI0_GETPUTCHARS
  X:13C9H         SYMBOL        ptr
  X:13CCH         SYMBOL        length
  -------         DO            
  X:13CEH         SYMBOL        count
  X:13D0H         SYMBOL        message
  X:13D3H         SYMBOL        SFRPAGE_SAVE
  -------         ENDDO         
  C:7958H         LINE#         47
  C:7966H         LINE#         49
  C:7972H         LINE#         50
  C:7978H         LINE#         51
  C:797BH         LINE#         52
  C:79A0H         LINE#         53
  C:79DBH         LINE#         54
BL51 BANKED LINKER/LOCATER V6.22                                                      12/24/2012  13:21:13  PAGE 24


  C:79E2H         LINE#         55
  -------         ENDPROC       _SPI0_GETPUTCHARS
  -------         ENDMOD        C8051_SPI0

  -------         MODULE        C8051_UART0
  C:0000H         SYMBOL        _ICE_DUMMY_
  C:783EH         PUBLIC        _UART0_open
  D:0084H         PUBLIC        SFRPAGE
  C:8553H         PUBLIC        _UART0_putChars
  C:861DH         PUBLIC        _UART0_advance
  C:770FH         PUBLIC        _UART0_putChar
  X:05C5H         PUBLIC        UART0_rx
  X:05C8H         PUBLIC        UART0_tx
  C:6890H         PUBLIC        UART0_ISR
  C:9463H         PUBLIC        UART0_resetRx
  X:05CBH         PUBLIC        UART0_rx_available
  X:05CDH         PUBLIC        UART0_rx_main
  X:05CFH         PUBLIC        UART0_tx_available
  X:05D1H         PUBLIC        UART0_tx_main
  B:00A8H.4       PUBLIC        ES0
  X:05D3H         PUBLIC        UART0_tx_error
  B:0098H.0       PUBLIC        RI0
  B:0098H.1       PUBLIC        TI0
  X:05D4H         PUBLIC        UART0_rx_size
  X:05D6H         PUBLIC        UART0_rx_uart
  X:05D8H         PUBLIC        UART0_tx_size
  X:05DAH         PUBLIC        UART0_tx_uart
  D:0099H         PUBLIC        SBUF0
  C:9486H         PUBLIC        UART0_getRxAvailable
  D:0098H         PUBLIC        SCON0
  C:935DH         PUBLIC        UART0_close
  D:0091H         PUBLIC        SSTA0
  C:746DH         PUBLIC        _UART0_pollChars
  -------         PROC          UART0_RESETRX
  -------         DO            
  B:0022H.0       SYMBOL        ES0_SAVE
  -------         ENDDO         
  C:9463H         LINE#         27
  C:9463H         LINE#         28
  C:9467H         LINE#         29
  C:9469H         LINE#         30
  C:9471H         LINE#         31
  C:9479H         LINE#         32
  C:9481H         LINE#         33
  C:9485H         LINE#         34
  -------         ENDPROC       UART0_RESETRX
  -------         PROC          _UART0_OPEN
  X:1380H         SYMBOL        rx_buffer
  X:1383H         SYMBOL        rx_size
  X:1385H         SYMBOL        tx_buffer
  X:1388H         SYMBOL        tx_size
  X:138AH         SYMBOL        p_uc_SSTA0
  -------         DO            
  X:138BH         SYMBOL        SFRPAGE_SAVE
  X:138CH         SYMBOL        dummy
  -------         ENDDO         
  C:783EH         LINE#         36
BL51 BANKED LINKER/LOCATER V6.22                                                      12/24/2012  13:21:13  PAGE 25


  C:784CH         LINE#         37
  C:7852H         LINE#         39
  C:785EH         LINE#         40
  C:786EH         LINE#         41
  C:787AH         LINE#         42
  C:788AH         LINE#         43
  C:7897H         LINE#         44
  C:78A4H         LINE#         45
  C:78ABH         LINE#         46
  C:78AEH         LINE#         47
  C:78B1H         LINE#         49
  C:78B4H         LINE#         56
  C:78B7H         LINE#         65
  C:78BEH         LINE#         67
  C:78C0H         LINE#         68
  C:78C2H         LINE#         69
  C:78C4H         LINE#         70
  C:78CBH         LINE#         71
  -------         ENDPROC       _UART0_OPEN
  -------         PROC          UART0_CLOSE
  -------         DO            
  X:1565H         SYMBOL        SFRPAGE_SAVE
  -------         ENDDO         
  C:935DH         LINE#         73
  C:935DH         LINE#         74
  C:9363H         LINE#         75
  C:9366H         LINE#         76
  C:9368H         LINE#         77
  C:936AH         LINE#         78
  C:936CH         LINE#         79
  C:9374H         LINE#         80
  C:937CH         LINE#         81
  C:9383H         LINE#         82
  -------         ENDPROC       UART0_CLOSE
  -------         PROC          UART0_GETRXAVAILABLE
  -------         DO            
  X:07CEH         SYMBOL        value
  B:0022H.1       SYMBOL        ES0_SAVE
  -------         ENDDO         
  C:9486H         LINE#         84
  C:9486H         LINE#         86
  C:948AH         LINE#         87
  C:948CH         LINE#         88
  C:949CH         LINE#         89
  C:94A0H         LINE#         90
  C:94A8H         LINE#         91
  -------         ENDPROC       UART0_GETRXAVAILABLE
  -------         PROC          _UART0_POLLCHARS
  X:13F5H         SYMBOL        ptr
  X:13F8H         SYMBOL        length
  -------         DO            
  X:13FAH         SYMBOL        message
  X:13FDH         SYMBOL        count
  -------         ENDDO         
  C:746DH         LINE#         94
  C:747BH         LINE#         95
  C:7487H         LINE#         97
BL51 BANKED LINKER/LOCATER V6.22                                                      12/24/2012  13:21:13  PAGE 26


  C:749FH         LINE#         98
  C:74C4H         LINE#         99
  C:7515H         LINE#         100
  C:7518H         LINE#         101
  C:7518H         LINE#         102
  C:751AH         LINE#         103
  -------         ENDPROC       _UART0_POLLCHARS
  -------         PROC          _UART0_ADVANCE
  X:153CH         SYMBOL        length
  -------         DO            
  B:0022H.2       SYMBOL        ES0_SAVE
  -------         ENDDO         
  C:861DH         LINE#         105
  C:8625H         LINE#         106
  C:8629H         LINE#         107
  C:862BH         LINE#         108
  C:864AH         LINE#         109
  C:865BH         LINE#         110
  C:8676H         LINE#         111
  C:867AH         LINE#         112
  -------         ENDPROC       _UART0_ADVANCE
  -------         PROC          _UART0_PUTCHARS
  X:13FFH         SYMBOL        ptr
  X:1402H         SYMBOL        length
  -------         DO            
  X:1404H         SYMBOL        count
  X:1406H         SYMBOL        message
  -------         ENDDO         
  C:8553H         LINE#         114
  C:8561H         LINE#         116
  C:856DH         LINE#         117
  C:8592H         LINE#         118
  C:85B7H         LINE#         119
  -------         ENDPROC       _UART0_PUTCHARS
  -------         PROC          _UART0_PUTCHAR
  X:153EH         SYMBOL        value
  -------         DO            
  X:153FH         SYMBOL        SAVE_SFRPAGE
  B:0022H.3       SYMBOL        ES0_SAVE
  -------         ENDDO         
  C:770FH         LINE#         121
  C:7714H         LINE#         124
  C:772CH         LINE#         126
  C:7730H         LINE#         127
  C:7732H         LINE#         128
  C:773EH         LINE#         129
  C:7759H         LINE#         130
  C:7763H         LINE#         131
  C:777BH         LINE#         132
  C:7783H         LINE#         133
  C:7785H         LINE#         134
  C:778BH         LINE#         135
  C:778EH         LINE#         136
  C:7795H         LINE#         137
  C:779CH         LINE#         138
  C:779CH         LINE#         139
  C:77A6H         LINE#         140
BL51 BANKED LINKER/LOCATER V6.22                                                      12/24/2012  13:21:13  PAGE 27


  C:77AAH         LINE#         141
  -------         ENDPROC       _UART0_PUTCHAR
  -------         PROC          UART0_ISR
  C:6890H         LINE#         143
  C:68ADH         LINE#         144
  C:68B0H         LINE#         145
  C:68B2H         LINE#         148
  C:68BAH         LINE#         150
  C:68BDH         LINE#         151
  C:68BFH         LINE#         152
  C:68D6H         LINE#         153
  C:68E0H         LINE#         154
  C:68F8H         LINE#         155
  C:6900H         LINE#         156
  C:690AH         LINE#         158
  C:690AH         LINE#         159
  C:690AH         LINE#         160
  C:690DH         LINE#         161
  C:690FH         LINE#         162
  C:6914H         LINE#         163
  C:691AH         LINE#         164
  C:691DH         LINE#         165
  C:691DH         LINE#         166
  C:6928H         LINE#         167
  C:6934H         LINE#         168
  C:694CH         LINE#         169
  C:6956H         LINE#         170
  C:696EH         LINE#         171
  C:6976H         LINE#         172
  C:6976H         LINE#         173
  C:6976H         LINE#         174
  -------         ENDPROC       UART0_ISR
  -------         ENDMOD        C8051_UART0

  -------         MODULE        C8051_UART1
  C:0000H         SYMBOL        _ICE_DUMMY_
  C:7A6AH         PUBLIC        _UART1_open
  D:00E7H         PUBLIC        EIE2
  D:0084H         PUBLIC        SFRPAGE
  C:85B8H         PUBLIC        _UART1_putChars
  C:834BH         PUBLIC        _UART1_advance
  C:75C9H         PUBLIC        _UART1_putChar
  X:12F7H         PUBLIC        UART1_rx
  X:12FAH         PUBLIC        UART1_tx
  C:6C6FH         PUBLIC        UART1_ISR
  X:12FDH         PUBLIC        UART1_rx_available
  X:12FFH         PUBLIC        UART1_rx_main
  X:1301H         PUBLIC        UART1_tx_available
  X:1303H         PUBLIC        UART1_tx_main
  B:0098H.0       PUBLIC        RI1
  B:0098H.1       PUBLIC        TI1
  X:1305H         PUBLIC        UART1_rx_size
  X:1307H         PUBLIC        UART1_rx_uart
  X:1309H         PUBLIC        UART1_tx_size
  X:130BH         PUBLIC        UART1_tx_uart
  D:0099H         PUBLIC        SBUF1
  C:91BBH         PUBLIC        UART1_getRxAvailable
BL51 BANKED LINKER/LOCATER V6.22                                                      12/24/2012  13:21:13  PAGE 28


  D:0098H         PUBLIC        SCON1
  C:92E5H         PUBLIC        UART1_close
  C:751BH         PUBLIC        _UART1_pollChars
  -------         PROC          _UART1_OPEN
  X:138DH         SYMBOL        rx_buffer
  X:1390H         SYMBOL        rx_size
  X:1392H         SYMBOL        tx_buffer
  X:1395H         SYMBOL        tx_size
  -------         DO            
  X:1397H         SYMBOL        SFRPAGE_SAVE
  X:1398H         SYMBOL        dummy
  -------         ENDDO         
  C:7A6AH         LINE#         26
  C:7A78H         LINE#         27
  C:7A7EH         LINE#         29
  C:7A8AH         LINE#         30
  C:7A9AH         LINE#         31
  C:7AA6H         LINE#         32
  C:7AB6H         LINE#         33
  C:7AC3H         LINE#         34
  C:7AD0H         LINE#         35
  C:7AD7H         LINE#         36
  C:7ADAH         LINE#         38
  C:7ADDH         LINE#         47
  C:7AE0H         LINE#         49
  C:7AE2H         LINE#         50
  C:7AE4H         LINE#         51
  C:7AE7H         LINE#         53
  C:7AEEH         LINE#         54
  -------         ENDPROC       _UART1_OPEN
  -------         PROC          UART1_CLOSE
  -------         DO            
  X:1566H         SYMBOL        SFRPAGE_SAVE
  -------         ENDDO         
  C:92E5H         LINE#         56
  C:92E5H         LINE#         57
  C:92EBH         LINE#         58
  C:92EEH         LINE#         59
  C:92F1H         LINE#         60
  C:92F3H         LINE#         61
  C:92F5H         LINE#         62
  C:92FDH         LINE#         63
  C:9305H         LINE#         64
  C:930CH         LINE#         65
  -------         ENDPROC       UART1_CLOSE
  -------         PROC          UART1_GETRXAVAILABLE
  -------         DO            
  X:1518H         SYMBOL        value
  X:151AH         SYMBOL        EIE2_SAVE
  -------         ENDDO         
  C:91BBH         LINE#         67
  C:91BBH         LINE#         69
  C:91C5H         LINE#         70
  C:91C8H         LINE#         71
  C:91D8H         LINE#         72
  C:91E0H         LINE#         73
  C:91E8H         LINE#         74
BL51 BANKED LINKER/LOCATER V6.22                                                      12/24/2012  13:21:13  PAGE 29


  -------         ENDPROC       UART1_GETRXAVAILABLE
  -------         PROC          _UART1_POLLCHARS
  X:1409H         SYMBOL        ptr
  X:140CH         SYMBOL        length
  -------         DO            
  X:140EH         SYMBOL        message
  X:1411H         SYMBOL        count
  -------         ENDDO         
  C:751BH         LINE#         76
  C:7529H         LINE#         77
  C:7535H         LINE#         79
  C:754DH         LINE#         80
  C:7572H         LINE#         81
  C:75C3H         LINE#         82
  C:75C6H         LINE#         83
  C:75C6H         LINE#         84
  C:75C8H         LINE#         85
  -------         ENDPROC       _UART1_POLLCHARS
  -------         PROC          _UART1_ADVANCE
  X:151BH         SYMBOL        length
  -------         DO            
  X:151DH         SYMBOL        EIE2_SAVE
  -------         ENDDO         
  C:834BH         LINE#         87
  C:8353H         LINE#         88
  C:835DH         LINE#         89
  C:8360H         LINE#         90
  C:837FH         LINE#         91
  C:8390H         LINE#         92
  C:83ABH         LINE#         93
  C:83B3H         LINE#         94
  -------         ENDPROC       _UART1_ADVANCE
  -------         PROC          _UART1_PUTCHARS
  X:1413H         SYMBOL        ptr
  X:1416H         SYMBOL        length
  -------         DO            
  X:1418H         SYMBOL        count
  X:141AH         SYMBOL        message
  -------         ENDDO         
  C:85B8H         LINE#         96
  C:85C6H         LINE#         98
  C:85D2H         LINE#         99
  C:85F7H         LINE#         100
  C:861CH         LINE#         101
  -------         ENDPROC       _UART1_PUTCHARS
  -------         PROC          _UART1_PUTCHAR
  X:151EH         SYMBOL        value
  -------         DO            
  X:151FH         SYMBOL        SFRPAGE_SAVE
  X:1520H         SYMBOL        EIE2_SAVE
  -------         ENDDO         
  C:75C9H         LINE#         103
  C:75CEH         LINE#         107
  C:75E6H         LINE#         109
  C:75F0H         LINE#         110
  C:75F3H         LINE#         111
  C:75FFH         LINE#         112
BL51 BANKED LINKER/LOCATER V6.22                                                      12/24/2012  13:21:13  PAGE 30


  C:761AH         LINE#         113
  C:7624H         LINE#         116
  C:763CH         LINE#         117
  C:7644H         LINE#         118
  C:7646H         LINE#         119
  C:764CH         LINE#         120
  C:764FH         LINE#         121
  C:7656H         LINE#         122
  C:765DH         LINE#         123
  C:765DH         LINE#         125
  C:7667H         LINE#         126
  C:766FH         LINE#         127
  -------         ENDPROC       _UART1_PUTCHAR
  -------         PROC          UART1_ISR
  C:6C6FH         LINE#         129
  C:6C8CH         LINE#         130
  C:6C8FH         LINE#         131
  C:6C91H         LINE#         134
  C:6CA8H         LINE#         135
  C:6CB2H         LINE#         136
  C:6CCAH         LINE#         137
  C:6CD2H         LINE#         138
  C:6CDCH         LINE#         140
  C:6CDCH         LINE#         141
  C:6CDFH         LINE#         142
  C:6CE1H         LINE#         143
  C:6CECH         LINE#         144
  C:6CF8H         LINE#         145
  C:6D10H         LINE#         146
  C:6D1AH         LINE#         147
  C:6D32H         LINE#         148
  C:6D3AH         LINE#         149
  C:6D3AH         LINE#         150
  C:6D3AH         LINE#         151
  -------         ENDPROC       UART1_ISR
  -------         ENDMOD        C8051_UART1

  -------         MODULE        C8051_WATCHDOG
  C:0000H         SYMBOL        _ICE_DUMMY_
  D:00FFH         PUBLIC        WDTCN
  B:00A8H.7       PUBLIC        EA
  C:97A5H         PUBLIC        Watchdog_lockout
  C:97A1H         PUBLIC        Watchdog_resetTimer
  C:975BH         PUBLIC        Watchdog_init
  C:96A0H         PUBLIC        Watchdog_disable
  -------         PROC          WATCHDOG_INIT
  C:975BH         LINE#         10
  C:975BH         LINE#         25
  C:975EH         LINE#         27
  C:9761H         LINE#         29
  C:9764H         LINE#         31
  -------         ENDPROC       WATCHDOG_INIT
  -------         PROC          WATCHDOG_RESETTIMER
  C:97A1H         LINE#         33
  C:97A1H         LINE#         35
  C:97A4H         LINE#         36
  -------         ENDPROC       WATCHDOG_RESETTIMER
BL51 BANKED LINKER/LOCATER V6.22                                                      12/24/2012  13:21:13  PAGE 31


  -------         PROC          WATCHDOG_DISABLE
  -------         DO            
  B:0022H.4       SYMBOL        EA_SAVE
  -------         ENDDO         
  C:96A0H         LINE#         38
  C:96A0H         LINE#         40
  C:96A4H         LINE#         41
  C:96A6H         LINE#         42
  C:96A8H         LINE#         43
  C:96ABH         LINE#         44
  C:96AEH         LINE#         45
  C:96B2H         LINE#         46
  -------         ENDPROC       WATCHDOG_DISABLE
  -------         PROC          WATCHDOG_LOCKOUT
  C:97A5H         LINE#         48
  C:97A5H         LINE#         49
  C:97A8H         LINE#         50
  -------         ENDPROC       WATCHDOG_LOCKOUT
  -------         ENDMOD        C8051_WATCHDOG

  -------         MODULE        PWRS_BATTERY
  C:0000H         SYMBOL        _ICE_DUMMY_
  D:00C8H         PUBLIC        P4
  D:00D8H         PUBLIC        P5
  D:00E8H         PUBLIC        P6
  D:00F8H         PUBLIC        P7
  C:9553H         PUBLIC        _Battery_setSocLimit
  B:00D8H.0       PUBLIC        BATT_CTRL
  C:447BH         PUBLIC        Battery_updateParameters
  C:7670H         PUBLIC        Battery_chargingControl
  C:5A2BH         PUBLIC        _Battery_setPwrsHt
  -------         PROC          BATTERY_CHARGINGCONTROL
  -------         DO            
  X:1567H         SYMBOL        x
  -------         ENDDO         
  C:7670H         LINE#         13
  C:7670H         LINE#         15
  C:7675H         LINE#         17
  C:767EH         LINE#         18
  C:7680H         LINE#         19
  C:7680H         LINE#         21
  C:76D4H         LINE#         24
  C:76D7H         LINE#         26
  C:76E7H         LINE#         27
  C:7709H         LINE#         28
  C:770BH         LINE#         29
  C:770BH         LINE#         30
  C:770EH         LINE#         31
  -------         ENDPROC       BATTERY_CHARGINGCONTROL
  -------         PROC          _BATTERY_SETPWRSHT
  X:13D4H         SYMBOL        HT_Setting
  -------         DO            
  X:13D5H         SYMBOL        l_f_ON_TEMP
  X:13D9H         SYMBOL        l_f_OFF_TEMP
  X:13DDH         SYMBOL        l_c_BATT_TEMP1
  X:13DEH         SYMBOL        l_c_BATT_TEMP2
  -------         ENDDO         
BL51 BANKED LINKER/LOCATER V6.22                                                      12/24/2012  13:21:13  PAGE 32


  C:5A2BH         LINE#         42
  C:5A30H         LINE#         44
  C:5A5EH         LINE#         46
  C:5A75H         LINE#         47
  C:5A83H         LINE#         48
  C:5A91H         LINE#         50
  C:5A9AH         LINE#         51
  C:5AA1H         LINE#         52
  C:5AA1H         LINE#         55
  C:5ACDH         LINE#         56
  C:5ACDH         LINE#         57
  C:5AD6H         LINE#         58
  C:5ADEH         LINE#         59
  C:5AE5H         LINE#         60
  C:5AE5H         LINE#         61
  C:5AE7H         LINE#         62
  C:5AF0H         LINE#         63
  C:5AF7H         LINE#         64
  C:5AF7H         LINE#         66
  C:5AF7H         LINE#         67
  C:5AF7H         LINE#         69
  C:5B01H         LINE#         71
  C:5B16H         LINE#         73
  C:5B3EH         LINE#         74
  C:5B3EH         LINE#         75
  C:5B45H         LINE#         76
  C:5B45H         LINE#         77
  C:5B47H         LINE#         79
  C:5B61H         LINE#         80
  C:5B61H         LINE#         81
  C:5B68H         LINE#         82
  C:5B68H         LINE#         83
  C:5B68H         LINE#         84
  C:5B68H         LINE#         87
  C:5B71H         LINE#         88
  C:5B7FH         LINE#         89
  C:5B80H         LINE#         90
  C:5B8EH         LINE#         91
  C:5B8EH         LINE#         92
  -------         ENDPROC       _BATTERY_SETPWRSHT
  -------         PROC          _BATTERY_SETSOCLIMIT
  X:1540H         SYMBOL        upp_limit
  X:1541H         SYMBOL        off_limit
  C:9553H         LINE#         98
  C:955DH         LINE#         99
  C:9567H         LINE#         100
  C:9571H         LINE#         101
  -------         ENDPROC       _BATTERY_SETSOCLIMIT
  -------         PROC          BATTERY_UPDATEPARAMETERS
  -------         DO            
  X:1568H         SYMBOL        g_uc_BATT_CHARGE_TO_ZERO_COUNTER
  -------         ENDDO         
  C:447BH         LINE#         103
  C:447BH         LINE#         113
  C:4498H         LINE#         116
  C:4631H         LINE#         118
  C:463CH         LINE#         119
BL51 BANKED LINKER/LOCATER V6.22                                                      12/24/2012  13:21:13  PAGE 33


  C:466AH         LINE#         121
  C:4681H         LINE#         122
  C:4687H         LINE#         123
  C:468DH         LINE#         125
  C:468DH         LINE#         127
  C:46BBH         LINE#         129
  C:46C1H         LINE#         130
  C:46CAH         LINE#         133
  C:46D4H         LINE#         134
  C:46D9H         LINE#         135
  C:46D9H         LINE#         136
  C:46DBH         LINE#         137
  C:46E0H         LINE#         138
  C:46E0H         LINE#         139
  C:46E0H         LINE#         140
  C:4761H         LINE#         141
  -------         ENDPROC       BATTERY_UPDATEPARAMETERS
  -------         ENDMOD        PWRS_BATTERY

  -------         MODULE        PWRS_CALIBRATION
  C:0000H         SYMBOL        _ICE_DUMMY_
  X:12D0H         PUBLIC        fm_Calibration
  C:72F2H         PUBLIC        Calibration_handler
  -------         PROC          CALIBRATION_HANDLER
  C:72F2H         LINE#         16
  C:72F2H         LINE#         18
  C:7317H         LINE#         19
  C:7317H         LINE#         21
  C:731AH         LINE#         22
  C:731AH         LINE#         23
  C:731FH         LINE#         24
  C:7322H         LINE#         25
  C:7322H         LINE#         26
  C:7327H         LINE#         27
  C:732AH         LINE#         28
  C:732AH         LINE#         29
  C:7336H         LINE#         30
  C:7342H         LINE#         31
  C:7344H         LINE#         32
  C:7344H         LINE#         33
  C:735AH         LINE#         34
  C:7373H         LINE#         35
  C:7375H         LINE#         36
  C:7375H         LINE#         37
  C:738AH         LINE#         38
  C:739FH         LINE#         39
  C:73A1H         LINE#         40
  C:73A1H         LINE#         41
  C:73A6H         LINE#         42
  C:73A8H         LINE#         43
  C:73A8H         LINE#         44
  C:73ABH         LINE#         45
  C:73ABH         LINE#         46
  C:73ABH         LINE#         47
  C:73B0H         LINE#         48
  -------         ENDPROC       CALIBRATION_HANDLER
  -------         ENDMOD        PWRS_CALIBRATION
BL51 BANKED LINKER/LOCATER V6.22                                                      12/24/2012  13:21:13  PAGE 34



  -------         MODULE        PWRS_CONVERSIONS
  C:0000H         SYMBOL        _ICE_DUMMY_
  C:89E8H         PUBLIC        _LM94022_decodeTemperature
  -------         PROC          _LM94022_DECODETEMPERATURE
  X:1344H         SYMBOL        p_f_temp_mv
  -------         DO            
  X:1348H         SYMBOL        l_f_a
  X:134CH         SYMBOL        l_f_b
  X:1350H         SYMBOL        l_f_c
  -------         ENDDO         
  C:89E8H         LINE#         8
  C:89EEH         LINE#         10
  C:8A0CH         LINE#         11
  C:8A36H         LINE#         12
  -------         ENDPROC       _LM94022_DECODETEMPERATURE
  -------         ENDMOD        PWRS_CONVERSIONS

  -------         MODULE        PWRS_FAULT_HANDLING
  C:0000H         SYMBOL        _ICE_DUMMY_
  D:00C8H         PUBLIC        P4
  D:00D8H         PUBLIC        P5
  D:00E8H         PUBLIC        P6
  D:00F8H         PUBLIC        P7
  B:00E8H.2       PUBLIC        FLT_5V_ACS
  D:0084H         PUBLIC        SFRPAGE
  B:00E8H.1       PUBLIC        FLT_5V_ADS
  B:00D8H.3       PUBLIC        AMUX_SEL_1
  B:00D8H.4       PUBLIC        AMUX_SEL_2
  B:00D8H.5       PUBLIC        AMUX_SEL_3
  B:00D8H.6       PUBLIC        CR
  D:00DAH         PUBLIC        PCA0CPM0
  D:00DBH         PUBLIC        PCA0CPM1
  D:00DCH         PUBLIC        PCA0CPM2
  D:00DFH         PUBLIC        PCA0CPM5
  C:5565H         PUBLIC        Fault_handling
  B:00C8H.3       PUBLIC        EN_5_DEPL
  B:00C8H.2       PUBLIC        EN_5_PAYL
  B:00D8H.1       PUBLIC        PWM_SEL_1
  B:00D8H.2       PUBLIC        PWM_SEL_2
  C:867BH         PUBLIC        _Fault_set5VRedundancy
  B:00E8H.4       PUBLIC        FLT_5V_DEPL
  C:8F35H         PUBLIC        Fault_set5VRedundancyPreparation
  B:00C8H.5       PUBLIC        EN_SDC_1
  B:00C8H.6       PUBLIC        EN_SDC_2
  B:00C8H.1       PUBLIC        EN_5_ACS
  B:00C8H.0       PUBLIC        EN_5_ADS
  B:00E8H.3       PUBLIC        FLT_5V_PAYL
  -------         PROC          _FAULT_SET5VREDUNDANCY
  X:1569H         SYMBOL        SDC_Mode
  C:867BH         LINE#         21
  C:8680H         LINE#         26
  C:8683H         LINE#         28
  C:8688H         LINE#         30
  C:8691H         LINE#         31
  C:8697H         LINE#         32
  C:86A2H         LINE#         33
BL51 BANKED LINKER/LOCATER V6.22                                                      12/24/2012  13:21:13  PAGE 35


  C:86A4H         LINE#         34
  C:86A6H         LINE#         35
  C:86A8H         LINE#         36
  C:86AEH         LINE#         37
  C:86B0H         LINE#         38
  C:86B2H         LINE#         39
  C:86B2H         LINE#         40
  C:86B5H         LINE#         43
  C:86BCH         LINE#         45
  C:86C1H         LINE#         46
  C:86C3H         LINE#         47
  C:86C6H         LINE#         48
  C:86C9H         LINE#         49
  C:86CCH         LINE#         50
  C:86CFH         LINE#         52
  C:86D7H         LINE#         53
  -------         ENDPROC       _FAULT_SET5VREDUNDANCY
  -------         PROC          FAULT_HANDLING
  C:5565H         LINE#         74
  C:5565H         LINE#         76
  C:556AH         LINE#         77
  C:5575H         LINE#         78
  C:55D4H         LINE#         79
  C:5633H         LINE#         80
  C:5692H         LINE#         81
  C:56F1H         LINE#         82
  C:56F1H         LINE#         86
  C:5708H         LINE#         87
  C:570BH         LINE#         88
  C:5710H         LINE#         89
  C:5715H         LINE#         90
  C:571AH         LINE#         91
  C:571AH         LINE#         93
  C:5722H         LINE#         94
  C:5727H         LINE#         95
  C:572CH         LINE#         96
  C:5736H         LINE#         97
  C:573BH         LINE#         98
  C:5740H         LINE#         99
  C:5740H         LINE#         101
  C:5743H         LINE#         110
  -------         ENDPROC       FAULT_HANDLING
  -------         PROC          FAULT_SET5VREDUNDANCYPREPARATION
  C:8F35H         LINE#         112
  C:8F35H         LINE#         113
  C:8F3AH         LINE#         115
  C:8F3DH         LINE#         116
  C:8F3FH         LINE#         117
  C:8F41H         LINE#         119
  C:8F44H         LINE#         120
  C:8F46H         LINE#         121
  C:8F49H         LINE#         122
  C:8F4CH         LINE#         123
  C:8F4FH         LINE#         124
  C:8F56H         LINE#         125
  C:8F5DH         LINE#         126
  C:8F60H         LINE#         128
BL51 BANKED LINKER/LOCATER V6.22                                                      12/24/2012  13:21:13  PAGE 36


  C:8F63H         LINE#         129
  C:8F65H         LINE#         130
  C:8F67H         LINE#         131
  C:8F69H         LINE#         132
  C:8F6BH         LINE#         133
  C:8F6DH         LINE#         134
  -------         ENDPROC       FAULT_SET5VREDUNDANCYPREPARATION
  -------         ENDMOD        PWRS_FAULT_HANDLING

  -------         MODULE        PWRS_MPPT
  C:0000H         SYMBOL        _ICE_DUMMY_
  D:00C8H         PUBLIC        P4
  D:00D8H         PUBLIC        P5
  D:00E8H         PUBLIC        P6
  D:00F8H         PUBLIC        P7
  B:00D8H.1       PUBLIC        PWM_SEL_1
  B:00D8H.2       PUBLIC        PWM_SEL_2
  C:7C79H         PUBLIC        _Mppt_setMode
  C:29E7H         PUBLIC        _Mppt_tracking
  -------         PROC          _MPPT_TRACKING
  X:156AH         SYMBOL        PV_channel
  C:29E7H         LINE#         18
  C:29ECH         LINE#         21
  C:2A1BH         LINE#         22
  C:2A4AH         LINE#         24
  C:2A60H         LINE#         25
  C:2A60H         LINE#         27
  C:2AB0H         LINE#         31
  C:2AC7H         LINE#         32
  C:2AE2H         LINE#         33
  C:2AE5H         LINE#         34
  C:2B3AH         LINE#         35
  C:2B8FH         LINE#         37
  C:2C7BH         LINE#         39
  C:2D06H         LINE#         40
  C:2D4FH         LINE#         41
  C:2D4FH         LINE#         43
  C:2D6BH         LINE#         44
  C:2D88H         LINE#         45
  C:2D89H         LINE#         47
  C:2D89H         LINE#         49
  C:2E20H         LINE#         50
  C:2E3BH         LINE#         51
  C:2E58H         LINE#         52
  C:2E59H         LINE#         54
  C:2E59H         LINE#         55
  C:2E70H         LINE#         56
  C:2E8BH         LINE#         57
  C:2E8CH         LINE#         58
  C:2EE1H         LINE#         59
  C:2F05H         LINE#         60
  C:2F34H         LINE#         61
  C:2F34H         LINE#         63
  C:2FEFH         LINE#         64
  C:307AH         LINE#         66
  C:30C3H         LINE#         68
  C:30D9H         LINE#         69
BL51 BANKED LINKER/LOCATER V6.22                                                      12/24/2012  13:21:13  PAGE 37


  C:30F6H         LINE#         70
  C:30F6H         LINE#         71
  C:30F6H         LINE#         73
  C:30F6H         LINE#         74
  C:30F6H         LINE#         75
  C:30F6H         LINE#         76
  -------         ENDPROC       _MPPT_TRACKING
  -------         PROC          _MPPT_SETMODE
  X:1542H         SYMBOL        mppt_mode
  -------         DO            
  X:1543H         SYMBOL        x
  -------         ENDDO         
  C:7C79H         LINE#         82
  C:7C7EH         LINE#         85
  C:7C83H         LINE#         87
  C:7C8DH         LINE#         89
  C:7CA6H         LINE#         90
  C:7CA6H         LINE#         91
  C:7CA8H         LINE#         92
  C:7CAAH         LINE#         93
  C:7CACH         LINE#         95
  C:7CACH         LINE#         96
  C:7CACH         LINE#         98
  C:7CBCH         LINE#         99
  C:7CD6H         LINE#         100
  C:7CDEH         LINE#         102
  C:7CE0H         LINE#         103
  C:7CE2H         LINE#         104
  C:7CE4H         LINE#         106
  C:7CE4H         LINE#         109
  C:7CE6H         LINE#         110
  C:7CE8H         LINE#         111
  C:7CEAH         LINE#         113
  C:7CEAH         LINE#         114
  C:7CF0H         LINE#         116
  C:7CF2H         LINE#         117
  C:7CF4H         LINE#         118
  C:7CF4H         LINE#         119
  C:7CF4H         LINE#         121
  C:7CF7H         LINE#         122
  -------         ENDPROC       _MPPT_SETMODE
  -------         ENDMOD        PWRS_MPPT

  -------         MODULE        PWRS_HOUSEKEEPING
  C:0000H         SYMBOL        _ICE_DUMMY_
  D:00C8H         PUBLIC        P4
  D:00D8H         PUBLIC        P5
  D:00E8H         PUBLIC        P6
  D:00F8H         PUBLIC        P7
  C:198CH         PUBLIC        Housekeeping_getAll
  C:8E41H         PUBLIC        Housekeeping_getInternal
  D:00EFH         PUBLIC        RSTSRC
  -------         PROC          HOUSEKEEPING_GETALL
  -------         DO            
  X:006AH         SYMBOL        pin_mv
  X:016AH         SYMBOL        i
  -------         ENDDO         
BL51 BANKED LINKER/LOCATER V6.22                                                      12/24/2012  13:21:13  PAGE 38


  C:198CH         LINE#         21
  C:198CH         LINE#         25
  C:199AH         LINE#         26
  C:19AFH         LINE#         29
  C:1A47H         LINE#         30
  C:1A50H         LINE#         32
  C:1A65H         LINE#         35
  C:1AF2H         LINE#         36
  C:1AFBH         LINE#         38
  C:1B10H         LINE#         40
  C:1B84H         LINE#         41
  C:1B8DH         LINE#         43
  C:1BA2H         LINE#         46
  C:1C58H         LINE#         47
  C:1C61H         LINE#         49
  C:1C76H         LINE#         53
  C:1D21H         LINE#         54
  C:1D2AH         LINE#         56
  C:1D3FH         LINE#         61
  C:1DCCH         LINE#         62
  C:1DD5H         LINE#         64
  C:1DEAH         LINE#         67
  C:1E5EH         LINE#         68
  C:1E67H         LINE#         70
  C:1E7CH         LINE#         73
  C:1F09H         LINE#         74
  C:1F12H         LINE#         76
  C:1F2FH         LINE#         80
  C:1F7EH         LINE#         83
  C:1FC9H         LINE#         85
  C:2014H         LINE#         88
  C:205FH         LINE#         91
  C:20AAH         LINE#         96
  C:20EAH         LINE#         99
  C:212AH         LINE#         102
  C:2175H         LINE#         104
  C:2192H         LINE#         107
  C:21D2H         LINE#         112
  C:21E0H         LINE#         115
  C:21E9H         LINE#         116
  C:21FBH         LINE#         119
  C:220BH         LINE#         122
  C:221DH         LINE#         123
  -------         ENDPROC       HOUSEKEEPING_GETALL
  -------         PROC          HOUSEKEEPING_GETINTERNAL
  C:8E41H         LINE#         125
  C:8E41H         LINE#         127
  C:8E49H         LINE#         128
  C:8E51H         LINE#         130
  C:8E67H         LINE#         132
  C:8E71H         LINE#         134
  C:8E76H         LINE#         135
  C:8E7CH         LINE#         136
  C:8E7FH         LINE#         137
  -------         ENDPROC       HOUSEKEEPING_GETINTERNAL
  -------         ENDMOD        PWRS_HOUSEKEEPING

BL51 BANKED LINKER/LOCATER V6.22                                                      12/24/2012  13:21:13  PAGE 39


  -------         MODULE        PWRS_THERMAL
  C:0000H         SYMBOL        _ICE_DUMMY_
  C:9217H         PUBLIC        Thermal_updateTkStatus
  D:00C8H         PUBLIC        P4
  D:00D8H         PUBLIC        P5
  D:00E8H         PUBLIC        P6
  D:00F8H         PUBLIC        P7
  C:002EH         PUBLIC        Thermal_knife_enable
  D:00DDH         PUBLIC        PCA0CPM3
  D:00DEH         PUBLIC        PCA0CPM4
  B:00F8H.2       PUBLIC        TK_SW_1
  C:6E3AH         PUBLIC        _Thermal_setTkOutput
  C:9715H         PUBLIC        Thermal_heater_disable
  C:77ABH         PUBLIC        _Thermal_setTkOutputScheduled
  C:9709H         PUBLIC        Thermal_heater_enable
  C:96FDH         PUBLIC        Thermal_knife_disable
  -------         PROC          THERMAL_KNIFE_ENABLE
  C:002EH         LINE#         18
  C:002EH         LINE#         19
  C:0033H         LINE#         20
  C:0036H         LINE#         21
  C:0039H         LINE#         22
  -------         ENDPROC       THERMAL_KNIFE_ENABLE
  -------         PROC          THERMAL_KNIFE_DISABLE
  C:96FDH         LINE#         24
  C:96FDH         LINE#         25
  C:9702H         LINE#         26
  C:9705H         LINE#         27
  C:9708H         LINE#         28
  -------         ENDPROC       THERMAL_KNIFE_DISABLE
  -------         PROC          THERMAL_HEATER_ENABLE
  C:9709H         LINE#         36
  C:9709H         LINE#         37
  C:970EH         LINE#         38
  C:9711H         LINE#         39
  C:9714H         LINE#         40
  -------         ENDPROC       THERMAL_HEATER_ENABLE
  -------         PROC          THERMAL_HEATER_DISABLE
  C:9715H         LINE#         42
  C:9715H         LINE#         43
  C:971AH         LINE#         44
  C:971DH         LINE#         45
  C:9720H         LINE#         46
  -------         ENDPROC       THERMAL_HEATER_DISABLE
  -------         PROC          _THERMAL_SETTKOUTPUT
  X:1544H         SYMBOL        Channel
  X:1545H         SYMBOL        Value
  C:6E3AH         LINE#         56
  C:6E44H         LINE#         58
  C:6E5AH         LINE#         59
  C:6E5AH         LINE#         60
  C:6E5FH         LINE#         61
  C:6E69H         LINE#         62
  C:6E6FH         LINE#         63
  C:6E7DH         LINE#         64
  C:6E80H         LINE#         65
  C:6E80H         LINE#         67
BL51 BANKED LINKER/LOCATER V6.22                                                      12/24/2012  13:21:13  PAGE 40


  C:6E8EH         LINE#         68
  C:6E94H         LINE#         69
  C:6E9AH         LINE#         70
  C:6E9CH         LINE#         71
  C:6EA6H         LINE#         72
  C:6EA9H         LINE#         73
  C:6EAFH         LINE#         74
  C:6EBDH         LINE#         75
  C:6EBDH         LINE#         76
  C:6EBFH         LINE#         78
  C:6EC5H         LINE#         79
  C:6ECBH         LINE#         81
  C:6ECBH         LINE#         82
  C:6ECEH         LINE#         83
  C:6ECFH         LINE#         84
  C:6ECFH         LINE#         85
  C:6ED8H         LINE#         86
  C:6EE2H         LINE#         87
  C:6EECH         LINE#         88
  C:6EEFH         LINE#         89
  C:6EF5H         LINE#         90
  C:6EF6H         LINE#         91
  C:6EFBH         LINE#         92
  C:6F00H         LINE#         93
  C:6F0AH         LINE#         94
  C:6F0DH         LINE#         95
  C:6F0DH         LINE#         97
  C:6F0DH         LINE#         98
  C:6F0DH         LINE#         100
  C:6F0DH         LINE#         101
  C:6F0DH         LINE#         102
  C:6F0DH         LINE#         103
  C:6F0DH         LINE#         104
  -------         ENDPROC       _THERMAL_SETTKOUTPUT
  -------         PROC          _THERMAL_SETTKOUTPUTSCHEDULED
  X:09FBH         SYMBOL        Channel
  X:09FCH         SYMBOL        Value
  X:09FDH         SYMBOL        Delay_ms
  C:77ABH         LINE#         106
  C:77BDH         LINE#         107
  C:77D7H         LINE#         108
  C:77F3H         LINE#         110
  C:781DH         LINE#         111
  C:783DH         LINE#         113
  C:783DH         LINE#         115
  -------         ENDPROC       _THERMAL_SETTKOUTPUTSCHEDULED
  -------         PROC          THERMAL_UPDATETKSTATUS
  C:9217H         LINE#         119
  C:9217H         LINE#         120
  C:921CH         LINE#         121
  C:921FH         LINE#         122
  C:922FH         LINE#         124
  C:923DH         LINE#         125
  C:9240H         LINE#         127
  -------         ENDPROC       THERMAL_UPDATETKSTATUS
  -------         ENDMOD        PWRS_THERMAL

BL51 BANKED LINKER/LOCATER V6.22                                                      12/24/2012  13:21:13  PAGE 41


  -------         MODULE        PWRS_LOAD
  C:0000H         SYMBOL        _ICE_DUMMY_
  D:00C8H         PUBLIC        P4
  D:00D8H         PUBLIC        P5
  D:00E8H         PUBLIC        P6
  D:00F8H         PUBLIC        P7
  B:00C8H.4       PUBLIC        EN_COMM
  B:00C8H.3       PUBLIC        EN_5_DEPL
  C:941BH         PUBLIC        Load_updateChannelStatus
  B:00F8H.3       PUBLIC        TK_SW_2
  B:00C8H.2       PUBLIC        EN_5_PAYL
  C:7B74H         PUBLIC        _Load_setSingleOutputScheduled
  B:00C8H.7       PUBLIC        EN_3V3_PAYL
  B:00C8H.1       PUBLIC        EN_5_ACS
  B:00C8H.0       PUBLIC        EN_5_ADS
  C:7CF8H         PUBLIC        _Load_setSingleOutputNow
  C:86D8H         PUBLIC        _Load_setOutputChannels
  -------         PROC          LOAD_UPDATECHANNELSTATUS
  C:941BH         LINE#         10
  C:941BH         LINE#         11
  C:9420H         LINE#         13
  C:942AH         LINE#         14
  C:942DH         LINE#         15
  C:943BH         LINE#         17
  C:943EH         LINE#         18
  -------         ENDPROC       LOAD_UPDATECHANNELSTATUS
  -------         PROC          _LOAD_SETSINGLEOUTPUTNOW
  X:1546H         SYMBOL        Channel
  X:1547H         SYMBOL        Value
  C:7CF8H         LINE#         21
  C:7D02H         LINE#         22
  C:7D07H         LINE#         23
  C:7D09H         LINE#         24
  C:7D28H         LINE#         25
  C:7D28H         LINE#         26
  C:7D32H         LINE#         27
  C:7D34H         LINE#         28
  C:7D34H         LINE#         29
  C:7D3EH         LINE#         30
  C:7D40H         LINE#         31
  C:7D40H         LINE#         32
  C:7D4AH         LINE#         33
  C:7D4CH         LINE#         34
  C:7D4CH         LINE#         35
  C:7D56H         LINE#         36
  C:7D58H         LINE#         37
  C:7D58H         LINE#         38
  C:7D62H         LINE#         39
  C:7D64H         LINE#         40
  C:7D64H         LINE#         41
  C:7D6EH         LINE#         42
  C:7D6EH         LINE#         43
  C:7D6EH         LINE#         44
  C:7D6EH         LINE#         45
  C:7D6EH         LINE#         46
  C:7D71H         LINE#         47
  C:7D74H         LINE#         48
BL51 BANKED LINKER/LOCATER V6.22                                                      12/24/2012  13:21:13  PAGE 42


  -------         ENDPROC       _LOAD_SETSINGLEOUTPUTNOW
  -------         PROC          _LOAD_SETSINGLEOUTPUTSCHEDULED
  X:14DCH         SYMBOL        Channel
  X:14DDH         SYMBOL        Value
  X:14DEH         SYMBOL        Delay_ms
  C:7B74H         LINE#         59
  C:7B86H         LINE#         60
  C:7B8BH         LINE#         61
  C:7B8DH         LINE#         62
  C:7B90H         LINE#         65
  C:7BBAH         LINE#         66
  C:7BDAH         LINE#         67
  C:7BF6H         LINE#         69
  -------         ENDPROC       _LOAD_SETSINGLEOUTPUTSCHEDULED
  -------         PROC          _LOAD_SETOUTPUTCHANNELS
  X:1548H         SYMBOL        Channel_Enable
  -------         DO            
  X:1549H         SYMBOL        Output
  -------         ENDDO         
  C:86D8H         LINE#         77
  C:86DDH         LINE#         79
  C:86EBH         LINE#         80
  C:86F4H         LINE#         82
  C:8702H         LINE#         83
  C:8710H         LINE#         84
  C:8710H         LINE#         85
  C:8715H         LINE#         86
  C:8721H         LINE#         87
  C:872DH         LINE#         88
  C:8730H         LINE#         89
  C:8733H         LINE#         90
  -------         ENDPROC       _LOAD_SETOUTPUTCHANNELS
  -------         ENDMOD        PWRS_LOAD

  -------         MODULE        PWRS_RESET
  C:0000H         SYMBOL        _ICE_DUMMY_
  B:00D8H.6       PUBLIC        OBDH_RESET
  D:00C8H         PUBLIC        P4
  D:00D8H         PUBLIC        P5
  C:94A9H         PUBLIC        Reset_obdh
  D:00E8H         PUBLIC        P6
  D:00F8H         PUBLIC        P7
  C:79E3H         PUBLIC        Reset_loadRaid
  C:9634H         PUBLIC        Reset_pwrs_data_backup
  C:9241H         PUBLIC        _Reset_obdh_scheduled
  C:96C3H         PUBLIC        Reset_pwrs
  B:00F8H.3       PUBLIC        TK_SW_2
  C:926AH         PUBLIC        _Reset_pwrs_scheduled
  C:841CH         PUBLIC        Reset_raid_counters
  D:00EFH         PUBLIC        RSTSRC
  -------         PROC          RESET_RAID_COUNTERS
  -------         DO            
  X:156BH         SYMBOL        i
  -------         ENDDO         
  C:841CH         LINE#         13
  C:841CH         LINE#         18
  C:842EH         LINE#         19
BL51 BANKED LINKER/LOCATER V6.22                                                      12/24/2012  13:21:13  PAGE 43


  C:844DH         LINE#         21
  C:8456H         LINE#         22
  C:846DH         LINE#         23
  C:8483H         LINE#         26
  -------         ENDPROC       RESET_RAID_COUNTERS
  -------         PROC          RESET_LOADRAID
  -------         DO            
  X:156CH         SYMBOL        success
  -------         ENDDO         
  C:79E3H         LINE#         27
  C:79E3H         LINE#         28
  C:79E9H         LINE#         29
  C:7A12H         LINE#         30
  C:7A3BH         LINE#         31
  C:7A64H         LINE#         32
  C:7A69H         LINE#         33
  -------         ENDPROC       RESET_LOADRAID
  -------         PROC          RESET_OBDH
  C:94A9H         LINE#         39
  C:94A9H         LINE#         40
  C:94AEH         LINE#         41
  C:94B0H         LINE#         42
  C:94B2H         LINE#         43
  C:94B5H         LINE#         45
  C:94C5H         LINE#         46
  C:94CBH         LINE#         47
  -------         ENDPROC       RESET_OBDH
  -------         PROC          _RESET_OBDH_SCHEDULED
  X:154AH         SYMBOL        Delay_ms
  C:9241H         LINE#         49
  C:9249H         LINE#         50
  C:924EH         LINE#         51
  C:9250H         LINE#         52
  C:9253H         LINE#         54
  C:9263H         LINE#         55
  C:9269H         LINE#         56
  -------         ENDPROC       _RESET_OBDH_SCHEDULED
  -------         PROC          RESET_PWRS
  C:96C3H         LINE#         62
  C:96C3H         LINE#         69
  C:96C6H         LINE#         70
  C:96CBH         LINE#         71
  C:96CEH         LINE#         72
  C:96D1H         LINE#         73
  -------         ENDPROC       RESET_PWRS
  -------         PROC          _RESET_PWRS_SCHEDULED
  X:154CH         SYMBOL        Delay_ms
  C:926AH         LINE#         75
  C:9272H         LINE#         76
  C:9277H         LINE#         77
  C:9279H         LINE#         78
  C:927CH         LINE#         80
  C:928CH         LINE#         81
  C:9292H         LINE#         82
  -------         ENDPROC       _RESET_PWRS_SCHEDULED
  -------         PROC          RESET_PWRS_DATA_BACKUP
  C:9634H         LINE#         88
BL51 BANKED LINKER/LOCATER V6.22                                                      12/24/2012  13:21:13  PAGE 44


  C:9634H         LINE#         89
  C:964AH         LINE#         90
  -------         ENDPROC       RESET_PWRS_DATA_BACKUP
  -------         ENDMOD        PWRS_RESET

  -------         MODULE        C8051_SCRATCHPAD
  C:0000H         SYMBOL        _ICE_DUMMY_
  B:00A8H.7       PUBLIC        EA
  D:008FH         PUBLIC        PSCTL
  D:0084H         PUBLIC        SFRPAGE
  D:00B1H         PUBLIC        PSBANK
  C:70A4H         PUBLIC        _FLASH_PageErase
  D:00EFH         PUBLIC        RSTSRC
  C:722FH         PUBLIC        _FLASH_ByteRead
  D:00B7H         PUBLIC        FLSCL
  C:6F0EH         PUBLIC        _FLASH_ByteWrite
  -------         PROC          _FLASH_BYTEWRITE
  X:1455H         SYMBOL        addr
  X:1459H         SYMBOL        byte
  B:0021H.1       SYMBOL        SFLE
  -------         DO            
  X:145AH         SYMBOL        SFRPAGE_SAVE
  B:0021H.2       SYMBOL        EA_SAVE
  X:145BH         SYMBOL        PSBANK_SAVE
  D:0008H         SYMBOL        pwrite
  -------         ENDDO         
  C:6F0EH         LINE#         25
  C:6F14H         LINE#         26
  C:6F1AH         LINE#         27
  C:6F1EH         LINE#         28
  C:6F24H         LINE#         31
  C:6F26H         LINE#         32
  C:6F28H         LINE#         34
  C:6F2BH         LINE#         36
  C:6F3FH         LINE#         37
  C:6F49H         LINE#         38
  C:6F5FH         LINE#         39
  C:6F7BH         LINE#         40
  C:6F85H         LINE#         41
  C:6F88H         LINE#         42
  C:6F8BH         LINE#         43
  C:6F8DH         LINE#         44
  C:6F97H         LINE#         45
  C:6F9AH         LINE#         46
  C:6F9DH         LINE#         47
  C:6F9DH         LINE#         49
  C:6FA0H         LINE#         50
  C:6FA3H         LINE#         52
  C:6FA6H         LINE#         53
  C:6FA9H         LINE#         54
  C:6FA9H         LINE#         56
  C:6FACH         LINE#         57
  C:6FBBH         LINE#         59
  C:6FBEH         LINE#         60
  C:6FC1H         LINE#         61
  C:6FC1H         LINE#         62
  C:6FC4H         LINE#         63
BL51 BANKED LINKER/LOCATER V6.22                                                      12/24/2012  13:21:13  PAGE 45


  C:6FC7H         LINE#         65
  C:6FCEH         LINE#         66
  C:6FD5H         LINE#         67
  C:6FD9H         LINE#         68
  -------         ENDPROC       _FLASH_BYTEWRITE
  -------         PROC          _FLASH_BYTEREAD
  X:145CH         SYMBOL        addr
  B:0021H.3       SYMBOL        SFLE
  -------         DO            
  X:1460H         SYMBOL        SFRPAGE_SAVE
  B:0021H.4       SYMBOL        EA_SAVE
  X:1461H         SYMBOL        PSBANK_SAVE
  D:000AH         SYMBOL        pread
  X:1462H         SYMBOL        byte
  -------         ENDDO         
  C:722FH         LINE#         71
  C:7235H         LINE#         72
  C:723BH         LINE#         73
  C:723FH         LINE#         74
  C:7245H         LINE#         78
  C:7247H         LINE#         79
  C:7249H         LINE#         81
  C:724CH         LINE#         83
  C:7260H         LINE#         84
  C:726AH         LINE#         85
  C:7280H         LINE#         86
  C:729CH         LINE#         87
  C:72A6H         LINE#         88
  C:72A9H         LINE#         89
  C:72ACH         LINE#         90
  C:72AEH         LINE#         91
  C:72B8H         LINE#         92
  C:72BBH         LINE#         93
  C:72BEH         LINE#         94
  C:72BEH         LINE#         96
  C:72C1H         LINE#         97
  C:72C4H         LINE#         98
  C:72C4H         LINE#         100
  C:72D4H         LINE#         102
  C:72D7H         LINE#         103
  C:72DAH         LINE#         104
  C:72DAH         LINE#         106
  C:72E1H         LINE#         107
  C:72E8H         LINE#         108
  C:72ECH         LINE#         110
  C:72F1H         LINE#         111
  -------         ENDPROC       _FLASH_BYTEREAD
  -------         PROC          _FLASH_PAGEERASE
  X:0230H         SYMBOL        addr
  B:0021H.5       SYMBOL        SFLE
  -------         DO            
  X:0234H         SYMBOL        SFRPAGE_SAVE
  B:0021H.6       SYMBOL        EA_SAVE
  X:0235H         SYMBOL        PSBANK_SAVE
  D:000CH         SYMBOL        pwrite
  -------         ENDDO         
  C:70A4H         LINE#         115
BL51 BANKED LINKER/LOCATER V6.22                                                      12/24/2012  13:21:13  PAGE 46


  C:70AAH         LINE#         116
  C:70B0H         LINE#         117
  C:70B4H         LINE#         118
  C:70BAH         LINE#         121
  C:70BCH         LINE#         122
  C:70BEH         LINE#         124
  C:70C1H         LINE#         126
  C:70D5H         LINE#         127
  C:70DFH         LINE#         128
  C:70F5H         LINE#         129
  C:7111H         LINE#         130
  C:711BH         LINE#         131
  C:711EH         LINE#         132
  C:7121H         LINE#         133
  C:7123H         LINE#         134
  C:712DH         LINE#         135
  C:7130H         LINE#         136
  C:7133H         LINE#         137
  C:7133H         LINE#         139
  C:7136H         LINE#         140
  C:7139H         LINE#         142
  C:713CH         LINE#         143
  C:713FH         LINE#         144
  C:713FH         LINE#         146
  C:7142H         LINE#         147
  C:714CH         LINE#         149
  C:714FH         LINE#         150
  C:7152H         LINE#         151
  C:7152H         LINE#         153
  C:7155H         LINE#         154
  C:7158H         LINE#         156
  C:715FH         LINE#         157
  C:7166H         LINE#         158
  C:716AH         LINE#         159
  -------         ENDPROC       _FLASH_PAGEERASE
  -------         ENDMOD        C8051_SCRATCHPAD

  -------         MODULE        C8051_EEPROM
  C:0000H         SYMBOL        _ICE_DUMMY_
  D:0084H         PUBLIC        SFRPAGE
  D:00A3H         PUBLIC        EMI0CF
  D:00A2H         PUBLIC        EMI0CN
  C:819AH         PUBLIC        _EEPROM_Read
  B:00F8H.7       PUBLIC        SPIF
  B:00F8H.2       PUBLIC        NSSMD0
  C:964BH         PUBLIC        EMIF_init
  C:5B8FH         PUBLIC        _EEPROM_Write
  C:8B65H         PUBLIC        EEPROM_SPIF
  D:009BH         PUBLIC        SPI0DAT
  -------         PROC          _EEPROM_WRITE
  X:1431H         SYMBOL        p_l_address
  X:1435H         SYMBOL        p_c_value
  -------         DO            
  X:1436H         SYMBOL        success
  X:1437H         SYMBOL        SFRPAGE_SAVE
  X:1438H         SYMBOL        l_us_eeprom_WIP_delay
  -------         ENDDO         
BL51 BANKED LINKER/LOCATER V6.22                                                      12/24/2012  13:21:13  PAGE 47


  C:5B8FH         LINE#         18
  C:5B95H         LINE#         20
  C:5B9BH         LINE#         21
  C:5BA1H         LINE#         23
  C:5BA4H         LINE#         29
  C:5BA6H         LINE#         30
  C:5BA9H         LINE#         31
  C:5BBFH         LINE#         32
  C:5BC1H         LINE#         33
  C:5BC3H         LINE#         34
  C:5BCAH         LINE#         37
  C:5BCCH         LINE#         38
  C:5BCFH         LINE#         39
  C:5BE5H         LINE#         40
  C:5BE7H         LINE#         43
  C:5BF4H         LINE#         44
  C:5C0AH         LINE#         45
  C:5C0CH         LINE#         46
  C:5C19H         LINE#         47
  C:5C2FH         LINE#         48
  C:5C31H         LINE#         49
  C:5C39H         LINE#         50
  C:5C4FH         LINE#         51
  C:5C51H         LINE#         54
  C:5C58H         LINE#         55
  C:5C6EH         LINE#         56
  C:5C70H         LINE#         57
  C:5C72H         LINE#         58
  C:5C79H         LINE#         61
  C:5C81H         LINE#         62
  C:5C81H         LINE#         63
  C:5C83H         LINE#         64
  C:5C86H         LINE#         65
  C:5C9CH         LINE#         66
  C:5C9EH         LINE#         67
  C:5CA1H         LINE#         68
  C:5CB7H         LINE#         69
  C:5CB9H         LINE#         70
  C:5CBBH         LINE#         72
  C:5CC5H         LINE#         73
  C:5CD6H         LINE#         74
  C:5CDBH         LINE#         75
  C:5CDDH         LINE#         76
  C:5CDDH         LINE#         78
  C:5CE2H         LINE#         79
  C:5CE9H         LINE#         80
  C:5CEEH         LINE#         81
  -------         ENDPROC       _EEPROM_WRITE
  -------         PROC          _EEPROM_READ
  X:05DFH         SYMBOL        p_ul_address
  -------         DO            
  X:05E3H         SYMBOL        l_uc_value
  X:05E4H         SYMBOL        SFRPAGE_SAVE
  -------         ENDDO         
  C:819AH         LINE#         90
  C:81A0H         LINE#         93
  C:81A6H         LINE#         94
BL51 BANKED LINKER/LOCATER V6.22                                                      12/24/2012  13:21:13  PAGE 48


  C:81A9H         LINE#         98
  C:81ABH         LINE#         99
  C:81AEH         LINE#         100
  C:81B1H         LINE#         101
  C:81B3H         LINE#         104
  C:81C0H         LINE#         105
  C:81C3H         LINE#         106
  C:81C5H         LINE#         108
  C:81D2H         LINE#         109
  C:81D5H         LINE#         110
  C:81D7H         LINE#         112
  C:81DFH         LINE#         113
  C:81E2H         LINE#         114
  C:81E4H         LINE#         117
  C:81E7H         LINE#         118
  C:81EAH         LINE#         119
  C:81ECH         LINE#         120
  C:81EEH         LINE#         121
  C:81F5H         LINE#         122
  C:81FBH         LINE#         125
  C:8202H         LINE#         127
  C:8207H         LINE#         128
  -------         ENDPROC       _EEPROM_READ
  -------         PROC          EEPROM_SPIF
  -------         DO            
  X:14E0H         SYMBOL        SFRPAGE_SAVE
  X:14E1H         SYMBOL        success
  X:14E2H         SYMBOL        l_us_eeprom_delay
  -------         ENDDO         
  C:8B65H         LINE#         135
  C:8B65H         LINE#         136
  C:8B6BH         LINE#         137
  C:8B71H         LINE#         140
  C:8B74H         LINE#         141
  C:8B7CH         LINE#         142
  C:8B7CH         LINE#         143
  C:8B86H         LINE#         144
  C:8B96H         LINE#         145
  C:8B9BH         LINE#         146
  C:8B9DH         LINE#         147
  C:8B9DH         LINE#         148
  C:8BA0H         LINE#         149
  C:8BA7H         LINE#         150
  C:8BACH         LINE#         151
  -------         ENDPROC       EEPROM_SPIF
  -------         PROC          EMIF_INIT
  -------         DO            
  X:156DH         SYMBOL        SFRPAGE_SAVE
  -------         ENDDO         
  C:964BH         LINE#         157
  C:964BH         LINE#         158
  C:9651H         LINE#         159
  C:9654H         LINE#         161
  C:9657H         LINE#         163
  C:965AH         LINE#         164
  C:9661H         LINE#         165
  -------         ENDPROC       EMIF_INIT
BL51 BANKED LINKER/LOCATER V6.22                                                      12/24/2012  13:21:13  PAGE 49


  -------         ENDMOD        C8051_EEPROM

  -------         MODULE        PWRS_CAMERA
  C:0000H         SYMBOL        _ICE_DUMMY_
  X:0602H         PUBLIC        camera_buffer0_hasData
  X:0603H         PUBLIC        camera_buffer1_hasData
  C:0076H         PUBLIC        _Camera_sendCommand
  C:96D2H         PUBLIC        Camera_acquisitionHandler
  C:9745H         PUBLIC        Camere_resetBuffer
  C:976FH         PUBLIC        Camera_acknowledge
  C:80B8H         PUBLIC        _Camera_commandHandler
  C:8D02H         PUBLIC        Camera_maintainBuffers
  C:632AH         PUBLIC        _Camera_uplinkMcc
  C:97A9H         PUBLIC        Camera_boot
  C:9384H         PUBLIC        Camera_poll
  C:003AH         PUBLIC        Camera_SMBustx
  C:7E6BH         PUBLIC        Camera_getFramedata
  X:0604H         PUBLIC        camera_buffer0
  X:06D9H         PUBLIC        camera_buffer1
  C:97ADH         PUBLIC        Camera_terminate
  -------         PROC          CAMERE_RESETBUFFER
  C:9745H         LINE#         20
  C:9745H         LINE#         21
  C:974AH         LINE#         22
  C:974FH         LINE#         23
  -------         ENDPROC       CAMERE_RESETBUFFER
  -------         PROC          CAMERA_BOOT
  C:97A9H         LINE#         25
  C:97A9H         LINE#         27
  C:97ACH         LINE#         28
  -------         ENDPROC       CAMERA_BOOT
  -------         PROC          CAMERA_TERMINATE
  C:97ADH         LINE#         30
  C:97ADH         LINE#         32
  C:97B0H         LINE#         33
  -------         ENDPROC       CAMERA_TERMINATE
  -------         PROC          CAMERA_MAINTAINBUFFERS
  C:8D02H         LINE#         35
  C:8D02H         LINE#         36
  C:8D12H         LINE#         37
  C:8D37H         LINE#         38
  C:8D3DH         LINE#         39
  C:8D42H         LINE#         40
  C:8D42H         LINE#         41
  -------         ENDPROC       CAMERA_MAINTAINBUFFERS
  -------         PROC          CAMERA_ACQUISITIONHANDLER
  C:96D2H         LINE#         43
  C:96D2H         LINE#         44
  C:96D5H         LINE#         45
  C:96DDH         LINE#         46
  C:96E0H         LINE#         47
  -------         ENDPROC       CAMERA_ACQUISITIONHANDLER
  -------         PROC          CAMERA_POLL
  -------         DO            
  X:156EH         SYMBOL        message
  -------         ENDDO         
  C:9384H         LINE#         49
BL51 BANKED LINKER/LOCATER V6.22                                                      12/24/2012  13:21:13  PAGE 50


  C:9384H         LINE#         51
  C:939BH         LINE#         54
  C:93A4H         LINE#         55
  C:93AAH         LINE#         56
  C:93AAH         LINE#         57
  -------         ENDPROC       CAMERA_POLL
  -------         PROC          CAMERA_GETFRAMEDATA
  -------         DO            
  X:14E4H         SYMBOL        message
  X:14E7H         SYMBOL        trash
  -------         ENDDO         
  C:7E6BH         LINE#         73
  C:7E6BH         LINE#         77
  C:7E77H         LINE#         78
  C:7E8EH         LINE#         79
  C:7E97H         LINE#         80
  C:7EA9H         LINE#         82
  C:7EA9H         LINE#         84
  C:7EC0H         LINE#         85
  C:7ECBH         LINE#         87
  C:7ED3H         LINE#         88
  C:7ED6H         LINE#         89
  C:7EDBH         LINE#         90
  C:7EDCH         LINE#         91
  C:7EE1H         LINE#         92
  -------         ENDPROC       CAMERA_GETFRAMEDATA
  -------         PROC          _CAMERA_SENDCOMMAND
  X:14E8H         SYMBOL        command
  -------         DO            
  X:14E9H         SYMBOL        buffer
  -------         ENDDO         
  C:0076H         LINE#         94
  C:007BH         LINE#         96
  C:008DH         LINE#         97
  C:00A1H         LINE#         98
  -------         ENDPROC       _CAMERA_SENDCOMMAND
  -------         PROC          _CAMERA_COMMANDHANDLER
  X:156FH         SYMBOL        command
  C:80B8H         LINE#         100
  C:80BDH         LINE#         102
  C:80D9H         LINE#         103
  C:80D9H         LINE#         104
  C:80E1H         LINE#         105
  C:80F5H         LINE#         106
  C:8109H         LINE#         107
  C:810BH         LINE#         112
  C:810BH         LINE#         113
  C:810DH         LINE#         114
  C:810DH         LINE#         115
  C:8110H         LINE#         116
  C:8112H         LINE#         117
  C:8112H         LINE#         118
  C:8117H         LINE#         119
  C:8119H         LINE#         120
  C:8119H         LINE#         121
  C:811CH         LINE#         122
  C:811EH         LINE#         123
BL51 BANKED LINKER/LOCATER V6.22                                                      12/24/2012  13:21:13  PAGE 51


  C:811EH         LINE#         124
  C:8121H         LINE#         125
  C:8123H         LINE#         126
  C:8123H         LINE#         127
  C:8126H         LINE#         128
  C:8126H         LINE#         129
  C:8126H         LINE#         130
  C:8128H         LINE#         131
  -------         ENDPROC       _CAMERA_COMMANDHANDLER
  -------         PROC          CAMERA_SMBUSTX
  C:003AH         LINE#         133
  C:003AH         LINE#         134
  -------         ENDPROC       CAMERA_SMBUSTX
  -------         PROC          CAMERA_ACKNOWLEDGE
  C:976FH         LINE#         136
  C:976FH         LINE#         137
  C:9774H         LINE#         138
  C:9777H         LINE#         139
  -------         ENDPROC       CAMERA_ACKNOWLEDGE
  -------         PROC          _CAMERA_UPLINKMCC
  X:141DH         SYMBOL        port
  -------         DO            
  X:141EH         SYMBOL        message
  X:1426H         SYMBOL        success
  -------         ENDDO         
  C:632AH         LINE#         141
  C:632FH         LINE#         144
  C:634CH         LINE#         145
  C:6352H         LINE#         146
  C:636EH         LINE#         147
  C:638AH         LINE#         148
  C:63A6H         LINE#         149
  C:63C2H         LINE#         150
  C:63DEH         LINE#         151
  C:63FEH         LINE#         152
  C:6406H         LINE#         153
  C:6421H         LINE#         154
  C:6429H         LINE#         155
  C:6435H         LINE#         156
  C:6435H         LINE#         157
  C:643DH         LINE#         158
  C:6449H         LINE#         159
  C:6449H         LINE#         160
  -------         ENDPROC       _CAMERA_UPLINKMCC
  -------         ENDMOD        PWRS_CAMERA

  -------         MODULE        C8051_PCA0
  C:0000H         SYMBOL        _ICE_DUMMY_
  D:00E6H         PUBLIC        EIE1
  D:0084H         PUBLIC        SFRPAGE
  D:00FCH         PUBLIC        PCA0CPH0
  D:00FEH         PUBLIC        PCA0CPH1
  D:00EAH         PUBLIC        PCA0CPH2
  C:87E8H         PUBLIC        _PCA0_setCPM
  B:00D8H.6       PUBLIC        CR
  D:00ECH         PUBLIC        PCA0CPH3
  D:00EEH         PUBLIC        PCA0CPH4
BL51 BANKED LINKER/LOCATER V6.22                                                      12/24/2012  13:21:13  PAGE 52


  D:00E2H         PUBLIC        PCA0CPH5
  D:00DAH         PUBLIC        PCA0CPM0
  D:00D9H         PUBLIC        PCA0MD
  D:00D8H         PUBLIC        PCA0CN
  D:00DBH         PUBLIC        PCA0CPM1
  D:00DCH         PUBLIC        PCA0CPM2
  D:00DDH         PUBLIC        PCA0CPM3
  D:00DEH         PUBLIC        PCA0CPM4
  C:8BADH         PUBLIC        _PCA0_init
  D:00DFH         PUBLIC        PCA0CPM5
  C:6B86H         PUBLIC        _PCA0_setDutyCycle
  -------         PROC          _PCA0_INIT
  X:148DH         SYMBOL        p_PCA0MD
  X:148EH         SYMBOL        pca_cpm_config
  -------         DO            
  X:1491H         SYMBOL        SFRPAGE_SAVE
  X:1492H         SYMBOL        ei
  -------         ENDDO         
  C:8BADH         LINE#         6
  C:8BB8H         LINE#         7
  C:8BBEH         LINE#         9
  C:8BC1H         LINE#         11
  C:8BC4H         LINE#         12
  C:8BCBH         LINE#         15
  C:8BD9H         LINE#         18
  C:8BDBH         LINE#         20
  C:8BE3H         LINE#         21
  C:8BE8H         LINE#         23
  C:8BEBH         LINE#         25
  C:8BF2H         LINE#         26
  -------         ENDPROC       _PCA0_INIT
  -------         PROC          _PCA0_SETCPM
  X:154EH         SYMBOL        channel
  X:154FH         SYMBOL        config
  C:87E8H         LINE#         28
  C:87F2H         LINE#         29
  C:8811H         LINE#         30
  C:8811H         LINE#         31
  C:8818H         LINE#         32
  C:8819H         LINE#         33
  C:8819H         LINE#         34
  C:8820H         LINE#         35
  C:8821H         LINE#         36
  C:8821H         LINE#         37
  C:8828H         LINE#         38
  C:8829H         LINE#         39
  C:8829H         LINE#         40
  C:8830H         LINE#         41
  C:8831H         LINE#         42
  C:8831H         LINE#         43
  C:8838H         LINE#         44
  C:8839H         LINE#         45
  C:8839H         LINE#         46
  C:8840H         LINE#         47
  C:8840H         LINE#         48
  C:8840H         LINE#         49
  -------         ENDPROC       _PCA0_SETCPM
BL51 BANKED LINKER/LOCATER V6.22                                                      12/24/2012  13:21:13  PAGE 53


  -------         PROC          _PCA0_SETDUTYCYCLE
  X:1521H         SYMBOL        channel
  X:1522H         SYMBOL        value
  -------         DO            
  X:1523H         SYMBOL        SFRPAGE_SAVE
  -------         ENDDO         
  C:6B86H         LINE#         59
  C:6B90H         LINE#         60
  C:6B96H         LINE#         61
  C:6B99H         LINE#         62
  C:6BB8H         LINE#         63
  C:6BB8H         LINE#         64
  C:6BD4H         LINE#         65
  C:6BD7H         LINE#         66
  C:6BD7H         LINE#         67
  C:6BF3H         LINE#         68
  C:6BF5H         LINE#         69
  C:6BF5H         LINE#         70
  C:6C10H         LINE#         71
  C:6C12H         LINE#         72
  C:6C12H         LINE#         73
  C:6C2DH         LINE#         74
  C:6C2FH         LINE#         75
  C:6C2FH         LINE#         76
  C:6C4AH         LINE#         77
  C:6C4CH         LINE#         78
  C:6C4CH         LINE#         79
  C:6C67H         LINE#         80
  C:6C67H         LINE#         81
  C:6C67H         LINE#         82
  C:6C6EH         LINE#         83
  -------         ENDPROC       _PCA0_SETDUTYCYCLE
  -------         ENDMOD        C8051_PCA0

  -------         MODULE        VELOX_TIMERTASK
  C:0000H         SYMBOL        _ICE_DUMMY_
  C:95CEH         PUBLIC        _Timertask_fromNow
  X:1550H         PUBLIC        clock
  C:9721H         PUBLIC        Timertask_updateClock
  C:8A84H         PUBLIC        _Timertask_timeUntilExecution
  C:8484H         PUBLIC        _Timertask_initPeriod
  C:73B1H         PUBLIC        _Timertask_isReady
  -------         PROC          TIMERTASK_UPDATECLOCK
  C:9721H         LINE#         8
  C:9721H         LINE#         9
  C:972CH         LINE#         10
  -------         ENDPROC       TIMERTASK_UPDATECLOCK
  -------         PROC          _TIMERTASK_INITPERIOD
  X:1463H         SYMBOL        task
  X:1466H         SYMBOL        offset
  X:1468H         SYMBOL        delay
  C:8484H         LINE#         12
  C:8492H         LINE#         13
  C:84C0H         LINE#         14
  C:84DAH         LINE#         15
  C:84EBH         LINE#         16
  -------         ENDPROC       _TIMERTASK_INITPERIOD
BL51 BANKED LINKER/LOCATER V6.22                                                      12/24/2012  13:21:13  PAGE 54


  -------         PROC          _TIMERTASK_TIMEUNTILEXECUTION
  X:14AFH         SYMBOL        task
  -------         DO            
  X:14B2H         SYMBOL        delta
  -------         ENDDO         
  C:8A84H         LINE#         19
  C:8A8AH         LINE#         20
  C:8AADH         LINE#         21
  C:8ACEH         LINE#         22
  -------         ENDPROC       _TIMERTASK_TIMEUNTILEXECUTION
  -------         PROC          _TIMERTASK_FROMNOW
  X:1524H         SYMBOL        task
  C:95CEH         LINE#         24
  C:95D4H         LINE#         25
  C:95E8H         LINE#         26
  -------         ENDPROC       _TIMERTASK_FROMNOW
  -------         PROC          _TIMERTASK_ISREADY
  X:14B4H         SYMBOL        task
  -------         DO            
  X:14B7H         SYMBOL        delta
  -------         ENDDO         
  C:73B1H         LINE#         28
  C:73B7H         LINE#         30
  C:73CAH         LINE#         31
  C:73DEH         LINE#         32
  C:73E1H         LINE#         33
  C:7404H         LINE#         34
  C:7425H         LINE#         35
  C:7443H         LINE#         36
  C:7457H         LINE#         37
  C:7467H         LINE#         38
  C:746AH         LINE#         39
  C:746AH         LINE#         40
  C:746AH         LINE#         41
  C:746CH         LINE#         42
  -------         ENDPROC       _TIMERTASK_ISREADY
  -------         ENDMOD        VELOX_TIMERTASK

  -------         MODULE        VELOX_UART
  C:0000H         SYMBOL        _ICE_DUMMY_
  C:8BF3H         PUBLIC        _Uart_pollChars
  C:8CC0H         PUBLIC        _Uart_putChars
  C:8FA7H         PUBLIC        _Uart_advance
  -------         PROC          _UART_POLLCHARS
  X:1493H         SYMBOL        port
  X:1494H         SYMBOL        ptr
  X:1497H         SYMBOL        length
  C:8BF3H         LINE#         7
  C:8BFEH         LINE#         8
  C:8C11H         LINE#         9
  C:8C11H         LINE#         10
  C:8C23H         LINE#         11
  C:8C23H         LINE#         12
  C:8C35H         LINE#         13
  C:8C35H         LINE#         14
  C:8C37H         LINE#         15
  -------         ENDPROC       _UART_POLLCHARS
BL51 BANKED LINKER/LOCATER V6.22                                                      12/24/2012  13:21:13  PAGE 55


  -------         PROC          _UART_ADVANCE
  X:1527H         SYMBOL        port
  X:1528H         SYMBOL        length
  C:8FA7H         LINE#         17
  C:8FB4H         LINE#         18
  C:8FC7H         LINE#         19
  C:8FC7H         LINE#         20
  C:8FD2H         LINE#         21
  C:8FD3H         LINE#         22
  C:8FD3H         LINE#         23
  C:8FDEH         LINE#         24
  C:8FDEH         LINE#         25
  C:8FDEH         LINE#         26
  -------         ENDPROC       _UART_ADVANCE
  -------         PROC          _UART_PUTCHARS
  X:1499H         SYMBOL        port
  X:149AH         SYMBOL        ptr
  X:149DH         SYMBOL        length
  C:8CC0H         LINE#         28
  C:8CCBH         LINE#         29
  C:8CDEH         LINE#         30
  C:8CDEH         LINE#         31
  C:8CEFH         LINE#         32
  C:8CF0H         LINE#         33
  C:8CF0H         LINE#         34
  C:8D01H         LINE#         35
  C:8D01H         LINE#         36
  C:8D01H         LINE#         37
  -------         ENDPROC       _UART_PUTCHARS
  -------         ENDMOD        VELOX_UART

  -------         MODULE        VELOX_SFRSTACK
  C:0000H         SYMBOL        _ICE_DUMMY_
  C:930DH         PUBLIC        _SFR_init
  X:14BEH         PUBLIC        SFR_stackSize
  D:0084H         PUBLIC        SFRPAGE
  C:8C38H         PUBLIC        _SFR_pushPage
  C:9293H         PUBLIC        SFR_popPage
  X:14BFH         PUBLIC        SFR_stack
  X:14C2H         PUBLIC        SFR_index
  -------         PROC          _SFR_INIT
  X:14B9H         SYMBOL        stack
  X:14BCH         SYMBOL        stack_size
  C:930DH         LINE#         9
  C:931BH         LINE#         10
  C:9327H         LINE#         11
  C:9334H         LINE#         12
  -------         ENDPROC       _SFR_INIT
  -------         PROC          _SFR_PUSHPAGE
  X:1570H         SYMBOL        page
  C:8C38H         LINE#         14
  C:8C3DH         LINE#         15
  C:8C56H         LINE#         16
  C:8C6EH         LINE#         17
  C:8C74H         LINE#         18
  C:8C7BH         LINE#         19
  -------         ENDPROC       _SFR_PUSHPAGE
BL51 BANKED LINKER/LOCATER V6.22                                                      12/24/2012  13:21:13  PAGE 56


  -------         PROC          SFR_POPPAGE
  C:9293H         LINE#         21
  C:9293H         LINE#         22
  C:929BH         LINE#         23
  C:92A1H         LINE#         24
  C:92BBH         LINE#         25
  -------         ENDPROC       SFR_POPPAGE
  -------         ENDMOD        VELOX_SFRSTACK

  -------         MODULE        VELOX_CHECKSUM
  C:0000H         SYMBOL        _ICE_DUMMY_
  C:8EFAH         PUBLIC        _Checksum_publish
  C:7AEFH         PUBLIC        _Checksum_update
  C:8997H         PUBLIC        _Checksum_rotate
  C:5E41H         PUBLIC        _Checksum_init
  X:030AH         PUBLIC        checksum_lookup
  C:003EH         PUBLIC        _Checksum_isValid
  -------         PROC          _CHECKSUM_INIT
  X:1323H         SYMBOL        ply
  -------         DO            
  X:1325H         SYMBOL        phi
  X:1326H         SYMBOL        ctr
  X:132EH         SYMBOL        c0
  X:132FH         SYMBOL        top
  X:1330H         SYMBOL        crc
  X:1332H         SYMBOL        c1
  -------         ENDDO         
  C:5E41H         LINE#         21
  C:5E49H         LINE#         23
  C:5E5AH         LINE#         29
  C:5E73H         LINE#         30
  C:5E80H         LINE#         31
  C:5E90H         LINE#         32
  C:5E99H         LINE#         33
  C:5EB3H         LINE#         34
  C:5EC5H         LINE#         35
  C:5EC7H         LINE#         36
  C:5ED5H         LINE#         37
  C:5EE6H         LINE#         38
  C:5EEEH         LINE#         39
  C:5EF6H         LINE#         40
  C:5F06H         LINE#         41
  C:5F1AH         LINE#         42
  C:5F5AH         LINE#         43
  C:5F80H         LINE#         44
  C:5F8DH         LINE#         48
  -------         ENDPROC       _CHECKSUM_INIT
  -------         PROC          _CHECKSUM_ROTATE
  X:152AH         SYMBOL        crc
  X:152CH         SYMBOL        value
  C:8997H         LINE#         51
  C:89A4H         LINE#         53
  C:89E7H         LINE#         66
  -------         ENDPROC       _CHECKSUM_ROTATE
  -------         PROC          _CHECKSUM_UPDATE
  X:1399H         SYMBOL        msg
  X:139CH         SYMBOL        length
BL51 BANKED LINKER/LOCATER V6.22                                                      12/24/2012  13:21:13  PAGE 57


  X:139EH         SYMBOL        crc
  -------         DO            
  X:13A0H         SYMBOL        count
  X:13A2H         SYMBOL        message
  -------         ENDDO         
  C:7AEFH         LINE#         69
  C:7AFDH         LINE#         70
  C:7B05H         LINE#         71
  C:7B11H         LINE#         72
  C:7B36H         LINE#         73
  C:7B6BH         LINE#         74
  C:7B73H         LINE#         75
  -------         ENDPROC       _CHECKSUM_UPDATE
  -------         PROC          _CHECKSUM_PUBLISH
  X:1552H         SYMBOL        crc
  C:8EFAH         LINE#         77
  C:8F02H         LINE#         78
  C:8F17H         LINE#         79
  C:8F2CH         LINE#         80
  C:8F34H         LINE#         81
  -------         ENDPROC       _CHECKSUM_PUBLISH
  -------         PROC          _CHECKSUM_ISVALID
  X:14C3H         SYMBOL        msg
  X:14C6H         SYMBOL        length
  C:003EH         LINE#         84
  C:004CH         LINE#         85
  C:0072H         LINE#         86
  -------         ENDPROC       _CHECKSUM_ISVALID
  -------         ENDMOD        VELOX_CHECKSUM

  -------         MODULE        PWRS_I2C
  C:0000H         SYMBOL        _ICE_DUMMY_
  X:016BH         PUBLIC        i2c_4ByteReply
  C:30F7H         PUBLIC        i2c_handler
  X:016FH         PUBLIC        i2c_rxData
  C:7EE2H         PUBLIC        _i2c_format4ByteReply
  -------         PROC          _I2C_FORMAT4BYTEREPLY
  X:14ECH         SYMBOL        message
  X:14EFH         SYMBOL        length
  C:7EE2H         LINE#         25
  C:7EEDH         LINE#         26
  C:7F0AH         LINE#         27
  C:7F4BH         LINE#         28
  C:7F58H         LINE#         29
  -------         ENDPROC       _I2C_FORMAT4BYTEREPLY
  -------         PROC          I2C_HANDLER
  -------         DO            
  X:1554H         SYMBOL        data_id
  X:1555H         SYMBOL        BATT_SOC_CHAR
  -------         ENDDO         
  C:30F7H         LINE#         31
  C:30F7H         LINE#         39
  C:3137H         LINE#         40
  C:3137H         LINE#         41
  C:3140H         LINE#         42
  C:3141H         LINE#         44
  C:3141H         LINE#         45
BL51 BANKED LINKER/LOCATER V6.22                                                      12/24/2012  13:21:13  PAGE 58


  C:314AH         LINE#         46
  C:314BH         LINE#         48
  C:314BH         LINE#         49
  C:3155H         LINE#         50
  C:321FH         LINE#         51
  C:321FH         LINE#         52
  C:321FH         LINE#         53
  C:321FH         LINE#         54
  C:321FH         LINE#         55
  C:321FH         LINE#         56
  C:3233H         LINE#         57
  C:3234H         LINE#         59
  C:3234H         LINE#         60
  C:3234H         LINE#         61
  C:3234H         LINE#         62
  C:3254H         LINE#         63
  C:3255H         LINE#         65
  C:3255H         LINE#         66
  C:3255H         LINE#         67
  C:3255H         LINE#         68
  C:3275H         LINE#         69
  C:3276H         LINE#         71
  C:3276H         LINE#         72
  C:3276H         LINE#         73
  C:3276H         LINE#         74
  C:3296H         LINE#         75
  C:3297H         LINE#         77
  C:3297H         LINE#         78
  C:32A2H         LINE#         79
  C:32A3H         LINE#         81
  C:32A3H         LINE#         82
  C:32A3H         LINE#         83
  C:32C3H         LINE#         84
  C:32C4H         LINE#         86
  C:32C4H         LINE#         87
  C:32CFH         LINE#         88
  C:32D0H         LINE#         90
  C:32D0H         LINE#         91
  C:32E9H         LINE#         92
  C:32F4H         LINE#         93
  C:32F5H         LINE#         95
  C:32F5H         LINE#         96
  C:32F5H         LINE#         97
  C:3309H         LINE#         98
  C:330AH         LINE#         100
  C:330AH         LINE#         101
  C:3315H         LINE#         102
  C:3316H         LINE#         104
  C:3316H         LINE#         105
  C:3321H         LINE#         106
  C:3322H         LINE#         108
  C:3322H         LINE#         109
  C:332DH         LINE#         110
  C:332EH         LINE#         112
  C:332EH         LINE#         113
  C:3339H         LINE#         114
  C:333AH         LINE#         116
BL51 BANKED LINKER/LOCATER V6.22                                                      12/24/2012  13:21:13  PAGE 59


  C:333AH         LINE#         117
  C:333AH         LINE#         118
  C:333AH         LINE#         119
  C:333AH         LINE#         120
  C:335AH         LINE#         121
  C:335BH         LINE#         123
  C:335BH         LINE#         124
  C:335BH         LINE#         125
  C:335BH         LINE#         126
  C:335BH         LINE#         127
  C:337BH         LINE#         128
  C:337CH         LINE#         130
  C:337CH         LINE#         131
  C:337CH         LINE#         132
  C:337CH         LINE#         133
  C:337CH         LINE#         134
  C:3390H         LINE#         135
  C:3391H         LINE#         137
  C:3391H         LINE#         138
  C:339CH         LINE#         139
  C:339DH         LINE#         141
  C:339DH         LINE#         142
  C:33A8H         LINE#         143
  C:33A9H         LINE#         145
  C:33A9H         LINE#         146
  C:33B4H         LINE#         147
  C:33B5H         LINE#         149
  C:33B5H         LINE#         150
  C:33C0H         LINE#         151
  C:33C1H         LINE#         153
  C:33C1H         LINE#         154
  C:33CCH         LINE#         155
  C:33CDH         LINE#         157
  C:33CDH         LINE#         158
  C:33D8H         LINE#         159
  C:33D9H         LINE#         161
  C:33D9H         LINE#         162
  C:33E4H         LINE#         163
  C:33E5H         LINE#         165
  C:33E5H         LINE#         166
  C:33F0H         LINE#         167
  C:33F1H         LINE#         169
  C:33F1H         LINE#         170
  C:33FCH         LINE#         171
  C:33FDH         LINE#         173
  C:33FDH         LINE#         174
  C:3408H         LINE#         175
  C:3409H         LINE#         177
  C:3409H         LINE#         178
  C:3414H         LINE#         179
  C:3415H         LINE#         181
  C:3415H         LINE#         182
  C:3420H         LINE#         183
  C:3421H         LINE#         185
  C:3421H         LINE#         186
  C:342CH         LINE#         187
  C:342DH         LINE#         189
BL51 BANKED LINKER/LOCATER V6.22                                                      12/24/2012  13:21:13  PAGE 60


  C:342DH         LINE#         191
  C:3438H         LINE#         192
  C:3439H         LINE#         194
  C:3439H         LINE#         195
  C:3444H         LINE#         196
  C:3445H         LINE#         198
  C:3445H         LINE#         199
  C:3450H         LINE#         200
  C:3451H         LINE#         202
  C:3451H         LINE#         203
  C:345CH         LINE#         204
  C:345DH         LINE#         206
  C:345DH         LINE#         207
  C:3468H         LINE#         208
  C:3469H         LINE#         210
  C:3469H         LINE#         211
  C:3474H         LINE#         212
  C:3475H         LINE#         214
  C:3475H         LINE#         215
  C:3480H         LINE#         216
  C:3481H         LINE#         218
  C:3481H         LINE#         219
  C:348CH         LINE#         220
  C:348DH         LINE#         222
  C:348DH         LINE#         223
  C:3498H         LINE#         224
  C:3499H         LINE#         226
  C:3499H         LINE#         227
  C:34A4H         LINE#         228
  C:34A5H         LINE#         230
  C:34A5H         LINE#         231
  C:34A5H         LINE#         232
  C:34C5H         LINE#         233
  C:34C6H         LINE#         235
  C:34C6H         LINE#         236
  C:34D1H         LINE#         237
  C:34D2H         LINE#         239
  C:34D2H         LINE#         240
  C:34D3H         LINE#         241
  C:34D3H         LINE#         242
  C:34D4H         LINE#         247
  C:34D4H         LINE#         248
  C:34DEH         LINE#         249
  C:34DFH         LINE#         251
  C:34DFH         LINE#         252
  C:34E9H         LINE#         253
  C:34F7H         LINE#         254
  C:34FFH         LINE#         255
  C:3500H         LINE#         257
  C:3500H         LINE#         259
  C:3510H         LINE#         260
  C:3525H         LINE#         262
  C:3544H         LINE#         263
  C:3544H         LINE#         264
  C:3544H         LINE#         265
  C:3551H         LINE#         266
  C:3560H         LINE#         268
BL51 BANKED LINKER/LOCATER V6.22                                                      12/24/2012  13:21:13  PAGE 61


  C:356EH         LINE#         269
  C:356FH         LINE#         271
  C:356FH         LINE#         272
  C:357CH         LINE#         273
  C:358BH         LINE#         275
  C:3599H         LINE#         276
  C:359AH         LINE#         278
  C:359AH         LINE#         279
  C:35A7H         LINE#         280
  C:35B6H         LINE#         282
  C:35C4H         LINE#         283
  C:35C5H         LINE#         285
  C:35C5H         LINE#         286
  C:35D2H         LINE#         287
  C:35E1H         LINE#         289
  C:35EFH         LINE#         290
  C:35F0H         LINE#         292
  C:35F0H         LINE#         293
  C:35FDH         LINE#         294
  C:360CH         LINE#         296
  C:361AH         LINE#         297
  C:361BH         LINE#         299
  C:361BH         LINE#         300
  C:3628H         LINE#         301
  C:3637H         LINE#         303
  C:3645H         LINE#         304
  C:3646H         LINE#         306
  C:3646H         LINE#         307
  C:3647H         LINE#         308
  C:3647H         LINE#         309
  C:3648H         LINE#         311
  C:3648H         LINE#         312
  C:3650H         LINE#         313
  C:3651H         LINE#         315
  C:3651H         LINE#         320
  C:3676H         LINE#         321
  C:369BH         LINE#         322
  C:36C0H         LINE#         323
  C:36C5H         LINE#         325
  C:36C6H         LINE#         327
  C:36C6H         LINE#         328
  C:36D6H         LINE#         329
  C:36EBH         LINE#         330
  C:36ECH         LINE#         332
  C:36ECH         LINE#         333
  C:36FCH         LINE#         334
  C:3707H         LINE#         335
  C:3708H         LINE#         337
  C:3708H         LINE#         338
  C:3718H         LINE#         339
  C:3723H         LINE#         340
  C:3724H         LINE#         342
  C:3724H         LINE#         343
  C:3731H         LINE#         344
  C:3732H         LINE#         346
  C:3732H         LINE#         354
  C:373BH         LINE#         355
BL51 BANKED LINKER/LOCATER V6.22                                                      12/24/2012  13:21:13  PAGE 62


  C:373CH         LINE#         357
  C:373CH         LINE#         358
  C:373FH         LINE#         359
  C:3742H         LINE#         360
  C:3743H         LINE#         362
  C:3743H         LINE#         363
  C:374CH         LINE#         364
  C:3752H         LINE#         367
  C:3752H         LINE#         368
  C:375BH         LINE#         369
  C:3761H         LINE#         370
  C:3761H         LINE#         371
  C:3762H         LINE#         372
  C:3762H         LINE#         375
  C:3763H         LINE#         376
  C:3763H         LINE#         377
  C:3766H         LINE#         378
  C:3766H         LINE#         379
  C:3766H         LINE#         380
  C:3766H         LINE#         381
  C:3766H         LINE#         382
  -------         ENDPROC       I2C_HANDLER
  -------         ENDMOD        PWRS_I2C

  -------         MODULE        PWRS_MUX
  C:0000H         SYMBOL        _ICE_DUMMY_
  D:00C8H         PUBLIC        P4
  D:00D8H         PUBLIC        P5
  D:00E8H         PUBLIC        P6
  D:00F8H         PUBLIC        P7
  B:00D8H.3       PUBLIC        AMUX_SEL_1
  B:00D8H.4       PUBLIC        AMUX_SEL_2
  B:00D8H.5       PUBLIC        AMUX_SEL_3
  C:9778H         SYMBOL        _?ix1000
  C:58BEH         PUBLIC        _Mux_getAll
  -------         PROC          _MUX_GETALL
  X:1364H         SYMBOL        pin_mv
  X:1367H         SYMBOL        no_of_samples
  -------         DO            
  X:1368H         SYMBOL        l_uc_mask
  X:1370H         SYMBOL        l_c_mux
  X:1371H         SYMBOL        l_c_channel
  -------         ENDDO         
  C:58BEH         LINE#         14
  C:58C9H         LINE#         15
  C:58EEH         LINE#         29
  C:58F3H         LINE#         30
  C:5908H         LINE#         31
  C:5911H         LINE#         32
  C:591FH         LINE#         33
  C:5930H         LINE#         34
  C:5937H         LINE#         35
  C:594CH         LINE#         36
  C:598FH         LINE#         37
  C:59B9H         LINE#         38
  C:5A15H         LINE#         39
  C:5A15H         LINE#         40
BL51 BANKED LINKER/LOCATER V6.22                                                      12/24/2012  13:21:13  PAGE 63


  C:5A1EH         LINE#         41
  C:5A27H         LINE#         42
  C:5A2AH         LINE#         43
  -------         ENDPROC       _MUX_GETALL
  -------         ENDMOD        PWRS_MUX

  -------         MODULE        C8051_DELAY
  C:0000H         SYMBOL        _ICE_DUMMY_
  C:8F6EH         PUBLIC        _Delay_us
  -------         PROC          _DELAY_US
  X:1556H         SYMBOL        l_us_us_count
  C:8F6EH         LINE#         12
  C:8F76H         LINE#         13
  C:8F8DH         LINE#         14
  C:8F99H         LINE#         15
  C:8FA6H         LINE#         16
  -------         ENDPROC       _DELAY_US
  -------         ENDMOD        C8051_DELAY

  -------         MODULE        SYSTEM_CONFIG
  C:0000H         SYMBOL        _ICE_DUMMY_
  C:9739H         PUBLIC        System_getCKCON
  C:972DH         PUBLIC        System_getT1Prescaler
  -------         PROC          SYSTEM_GETT1PRESCALER
  C:972DH         LINE#         13
  C:972DH         LINE#         14
  C:9733H         LINE#         15
  C:9736H         LINE#         16
  C:9738H         LINE#         17
  -------         ENDPROC       SYSTEM_GETT1PRESCALER
  -------         PROC          SYSTEM_GETCKCON
  C:9739H         LINE#         25
  C:9739H         LINE#         26
  C:973FH         LINE#         27
  C:9742H         LINE#         28
  C:9744H         LINE#         29
  -------         ENDPROC       SYSTEM_GETCKCON
  -------         ENDMOD        SYSTEM_CONFIG

  -------         MODULE        VELOX_RAID
  C:0000H         SYMBOL        _ICE_DUMMY_
  C:8841H         PUBLIC        _Raid_read
  C:7F59H         PUBLIC        _Raid_writeChars
  C:4185H         PUBLIC        _Raid_write
  C:943FH         PUBLIC        _Raid_init
  C:96EFH         PUBLIC        Raid_getAddressHi
  C:96E1H         PUBLIC        Raid_getAddressLo
  X:152DH         PUBLIC        RAID_simulateFailure
  X:152EH         PUBLIC        raid_size
  C:96B3H         PUBLIC        _Raid_setSimulateFailure
  C:7FD0H         PUBLIC        _Raid_resetScratchPad
  C:7DF2H         PUBLIC        _Raid_readChars
  -------         PROC          _RAID_INIT
  X:1571H         SYMBOL        pages
  C:943FH         LINE#         15
  C:9444H         LINE#         16
  C:9447H         LINE#         17
BL51 BANKED LINKER/LOCATER V6.22                                                      12/24/2012  13:21:13  PAGE 64


  C:944CH         LINE#         18
  C:9462H         LINE#         19
  -------         ENDPROC       _RAID_INIT
  -------         PROC          RAID_GETADDRESSLO
  C:96E1H         LINE#         21
  C:96E1H         LINE#         22
  C:96EEH         LINE#         23
  -------         ENDPROC       RAID_GETADDRESSLO
  -------         PROC          RAID_GETADDRESSHI
  C:96EFH         LINE#         25
  C:96EFH         LINE#         26
  C:96FCH         LINE#         27
  -------         ENDPROC       RAID_GETADDRESSHI
  -------         PROC          _RAID_READ
  X:146AH         SYMBOL        p_s_address
  -------         DO            
  X:146CH         SYMBOL        l_l_offset
  X:1470H         SYMBOL        l_uc_page_num
  -------         ENDDO         
  C:8841H         LINE#         30
  C:8849H         LINE#         32
  C:8851H         LINE#         34
  C:888EH         LINE#         35
  C:8897H         LINE#         36
  -------         ENDPROC       _RAID_READ
  -------         PROC          _RAID_SETSIMULATEFAILURE
  X:1572H         SYMBOL        failure_id
  C:96B3H         LINE#         38
  C:96B8H         LINE#         39
  C:96C2H         LINE#         40
  -------         ENDPROC       _RAID_SETSIMULATEFAILURE
  -------         PROC          _RAID_RESETSCRATCHPAD
  X:1573H         SYMBOL        force
  C:7FD0H         LINE#         56
  C:7FD5H         LINE#         57
  C:7FEEH         LINE#         58
  C:7FFBH         LINE#         59
  C:800DH         LINE#         60
  C:800DH         LINE#         61
  C:8026H         LINE#         62
  C:8033H         LINE#         63
  C:8045H         LINE#         64
  C:8045H         LINE#         65
  -------         ENDPROC       _RAID_RESETSCRATCHPAD
  -------         PROC          _RAID_WRITE
  X:09ACH         SYMBOL        p_s_address
  X:09AEH         SYMBOL        p_c_value
  -------         DO            
  X:09AFH         SYMBOL        i
  X:09B1H         SYMBOL        l_l_offset1
  X:09B5H         SYMBOL        l_l_offset2
  X:09B9H         SYMBOL        l_uc_page_num1
  X:09BAH         SYMBOL        l_uc_page_num2
  X:09BBH         SYMBOL        p_ul_address1
  X:09BFH         SYMBOL        p_ul_address2
  -------         ENDDO         
  C:4185H         LINE#         67
BL51 BANKED LINKER/LOCATER V6.22                                                      12/24/2012  13:21:13  PAGE 65


  C:4192H         LINE#         76
  C:419AH         LINE#         77
  C:41BEH         LINE#         78
  C:41DBH         LINE#         80
  C:41E3H         LINE#         81
  C:4242H         LINE#         82
  C:425FH         LINE#         84
  C:4272H         LINE#         85
  C:4285H         LINE#         87
  C:42A4H         LINE#         88
  C:42AAH         LINE#         89
  C:42B7H         LINE#         90
  C:42CEH         LINE#         91
  C:42F2H         LINE#         92
  C:42F7H         LINE#         93
  C:431CH         LINE#         94
  C:4361H         LINE#         95
  C:4361H         LINE#         97
  C:4380H         LINE#         98
  C:4386H         LINE#         99
  C:4393H         LINE#         100
  C:43AAH         LINE#         101
  C:4409H         LINE#         102
  C:440EH         LINE#         103
  C:4433H         LINE#         104
  C:4478H         LINE#         105
  C:4478H         LINE#         106
  C:447AH         LINE#         107
  -------         ENDPROC       _RAID_WRITE
  -------         PROC          _RAID_READCHARS
  X:13A5H         SYMBOL        p_s_address
  X:13A7H         SYMBOL        p_c_message
  X:13AAH         SYMBOL        p_s_length
  -------         DO            
  X:13ACH         SYMBOL        i
  X:13AEH         SYMBOL        l_c_message
  -------         ENDDO         
  C:7DF2H         LINE#         111
  C:7E00H         LINE#         113
  C:7E0CH         LINE#         114
  C:7E31H         LINE#         115
  C:7E52H         LINE#         116
  C:7E5CH         LINE#         117
  C:7E68H         LINE#         118
  C:7E6AH         LINE#         119
  -------         ENDPROC       _RAID_READCHARS
  -------         PROC          _RAID_WRITECHARS
  X:13B1H         SYMBOL        p_s_address
  X:13B3H         SYMBOL        p_c_message
  X:13B6H         SYMBOL        p_s_length
  -------         DO            
  X:13B8H         SYMBOL        i
  X:13BAH         SYMBOL        l_c_message
  -------         ENDDO         
  C:7F59H         LINE#         121
  C:7F67H         LINE#         123
  C:7F73H         LINE#         124
BL51 BANKED LINKER/LOCATER V6.22                                                      12/24/2012  13:21:13  PAGE 66


  C:7F98H         LINE#         125
  C:7FADH         LINE#         126
  C:7FB7H         LINE#         127
  C:7FC1H         LINE#         128
  C:7FCDH         LINE#         129
  C:7FCFH         LINE#         130
  -------         ENDPROC       _RAID_WRITECHARS
  -------         ENDMOD        VELOX_RAID

  -------         MODULE        PWRS_MAIN
  C:0000H         SYMBOL        _ICE_DUMMY_
  X:0308H         PUBLIC        idle_buffer
  X:01F2H         PUBLIC        g_us_CLOCK_MS
  X:028DH         PUBLIC        g_uc_INITIAL_MPPT_PWM_DUTY_CYCLE
  B:00D8H.6       PUBLIC        OBDH_RESET
  D:00C8H         PUBLIC        P4
  X:0018H         PUBLIC        g_us_PWRS_I2C_CMD_DELAY
  D:00D8H         PUBLIC        P5
  C:8A37H         PUBLIC        Timer2_ISR
  X:0A1EH         PUBLIC        idle_counter
  B:00A8H.7       PUBLIC        EA
  D:00E8H         PUBLIC        P6
  X:0237H         PUBLIC        g_uc_CHANNEL_ENABLE
  D:00F8H         PUBLIC        P7
  C:9765H         PUBLIC        SMBus_RxAcknowlegde_Override
  D:0084H         PUBLIC        SFRPAGE
  X:0285H         PUBLIC        g_us_TK_INCREMENT_DELAY
  X:026FH         PUBLIC        g_uc_RAID_ADDRESS
  X:0056H         PUBLIC        g_str_REVCC_OBDH_TASK
  X:023CH         PUBLIC        g_uc_OBDH_REQ_CHANNEL_STATUS
  X:0236H         PUBLIC        g_uc_5V_SDC_STATUS
  X:0262H         PUBLIC        g_ul_DATA_BACKUP_DELAY
  X:0251H         PUBLIC        g_us_OBDH_SENSE
  X:020CH         PUBLIC        g_uc_BATT_TEMP_RAW
  B:00D8H.3       PUBLIC        AMUX_SEL_1
  B:00D8H.4       PUBLIC        AMUX_SEL_2
  X:001FH         PUBLIC        g_uc_IMMED_LATCH_COUNT_CH
  B:00D8H.5       PUBLIC        AMUX_SEL_3
  X:0A20H         PUBLIC        g_c_clock_flag
  X:0A21H         PUBLIC        UART0_rx_buffer
  X:0245H         PUBLIC        g_us_PS_UNREG
  B:00D8H.7       PUBLIC        OBDH_OFF_VCC
  X:0C21H         PUBLIC        UART1_rx_buffer
  X:0E21H         PUBLIC        UART0_tx_buffer
  X:1021H         PUBLIC        UART1_tx_buffer
  X:05F0H         PUBLIC        g_uc_TK_DUTY_CYCLE
  X:028EH         PUBLIC        g_us_OBDH_PULL_HIGH_DURATION
  X:024FH         PUBLIC        g_us_V_3V3_PAYL
  X:0051H         PUBLIC        g_str_RESET_OBDH_TASK
  X:0210H         PUBLIC        g_us_PCC_V
  X:029DH         PUBLIC        g_ul_RST_COUNT1
  X:0272H         PUBLIC        g_uc_RAID_CONTENT
  B:00C8H.4       PUBLIC        EN_COMM
  X:02A1H         PUBLIC        g_ul_RST_COUNT2
  X:0253H         PUBLIC        g_us_V_SDC
  X:0298H         PUBLIC        g_uc_TIMER3_COUNT
  X:004FH         PUBLIC        g_uc_CHANGE_SDC_TO_MODE_1_TEST
BL51 BANKED LINKER/LOCATER V6.22                                                      12/24/2012  13:21:13  PAGE 67


  X:0050H         PUBLIC        g_uc_CHANGE_SDC_TO_MODE_2_TEST
  X:0241H         PUBLIC        g_us_I_BATT_REF
  C:5365H         PUBLIC        main
  X:025FH         PUBLIC        g_uc_TK_PWM_DUTY_CYCLE_UPP_LIMIT
  X:1221H         PUBLIC        sfr_buffer
  X:022BH         PUBLIC        g_uc_MCU_RSTSRC
  X:1239H         PUBLIC        g_str_TK_INCREMENT
  X:0281H         PUBLIC        g_us_VREFD_mV
  X:028BH         PUBLIC        g_us_VSYS_MAX
  B:00C8H.3       PUBLIC        EN_5_DEPL
  X:123EH         PUBLIC        g_uc_THERMAL_KNIFE_DELAY
  X:0296H         PUBLIC        g_us_V_PV_MAX
  X:05DCH         PUBLIC        g_uc_TK_VAR_VALUE_CH
  X:05F3H         PUBLIC        g_str_TK_TASK
  X:0266H         PUBLIC        g_uc_ON_TEMP_BIAS
  X:123FH         PUBLIC        g_str_DATA_BACKUP
  X:0267H         PUBLIC        g_uc_AUTO_REBOOT_LATCH
  X:0290H         PUBLIC        g_us_SDC_LOWER_LIMIT
  X:020EH         PUBLIC        g_us_SYS_I
  X:02A5H         PUBLIC        PVInput
  X:0065H         PUBLIC        g_str_IDLE_COUNTER_TASK
  X:01F4H         PUBLIC        g_uc_SP_TEMP
  B:00F8H.3       PUBLIC        TK_SW_2
  X:0294H         PUBLIC        g_us_SDC_Delay
  X:0268H         PUBLIC        g_uc_FLAG_TEST
  X:022EH         PUBLIC        g_uc_PWRS_SOCSW_ON
  X:1244H         PUBLIC        g_str_PWRS_I2C_WDT
  X:0239H         PUBLIC        g_us_FIRMWARE_VER
  B:00C8H.2       PUBLIC        EN_5_PAYL
  X:1249H         PUBLIC        XBEE_BUFFER
  X:07D0H         PUBLIC        g_str_CAMERA_TASK
  B:00D8H.0       PUBLIC        BATT_CTRL
  X:023BH         PUBLIC        g_uc_CHANNEL_STATUS
  X:0280H         PUBLIC        g_uc_PERCENTAGE_LIMIT
  X:1269H         PUBLIC        g_str_BATT_CTRL
  X:0261H         PUBLIC        g_uc_BATT_HEATER_PWM_DUTY
  X:0247H         PUBLIC        g_us_V_SYS
  X:023DH         PUBLIC        g_ul_PWRS_I2C_WDT
  X:0229H         PUBLIC        g_s_PWRS_MCU_TEMP
  X:126EH         PUBLIC        g_uc_EEPROM_SUCCESS
  B:00C8H.7       PUBLIC        EN_3V3_PAYL
  X:022DH         PUBLIC        g_uc_BATT_HEATER
  X:126FH         PUBLIC        Subsystems_value
  X:022CH         PUBLIC        g_uc_MPPT_MODE
  X:005BH         PUBLIC        g_str_RESET_PWRS_TASK
  B:00D8H.1       PUBLIC        PWM_SEL_1
  X:1275H         PUBLIC        g_uc_data_backup_seconds
  B:00D8H.2       PUBLIC        PWM_SEL_2
  B:00C8H.7       PUBLIC        TF2
  X:0271H         PUBLIC        g_c_RAID_ACTION
  X:0257H         PUBLIC        g_l_BATT_CHARGE
  X:1276H         PUBLIC        g_str_TK_NORMAL
  X:027EH         PUBLIC        g_us_VCELL_MIN
  X:0249H         PUBLIC        g_us_PP_3V3
  X:0227H         PUBLIC        g_uc_RST_CAUSE
  X:027CH         PUBLIC        g_us_VCELL_MAX
  X:0287H         PUBLIC        g_us_TK_STATUS_INCREMENT_DELAY
BL51 BANKED LINKER/LOCATER V6.22                                                      12/24/2012  13:21:13  PAGE 68


  X:0228H         PUBLIC        g_uc_PWRS_MODE
  X:026AH         PUBLIC        g_uc_TEST_WO_BATT
  X:026BH         PUBLIC        g_f_BATT_SOC_FLOAT
  X:0269H         PUBLIC        g_uc_DEBUG_PRINT
  X:0277H         PUBLIC        g_uc_ADC_SAMPLE_COUNT
  X:0222H         PUBLIC        g_uc_LATCH_COUNT
  X:0060H         PUBLIC        g_str_MAIN_LOOP_TASK
  X:021AH         PUBLIC        g_us_LOAD_I
  X:127BH         PUBLIC        PVInput_old
  X:129FH         PUBLIC        g_uc_data_backup_counter
  X:02EAH         PUBLIC        Subsystems_task
  B:00C8H.5       PUBLIC        EN_SDC_1
  X:0238H         PUBLIC        g_uc_THERMAL_KNIFE
  X:01FFH         PUBLIC        g_us_PV_I
  B:00C8H.6       PUBLIC        EN_SDC_2
  B:00C8H.1       PUBLIC        EN_5_ACS
  X:0260H         PUBLIC        g_uc_MPPT_STEP
  B:00C8H.0       PUBLIC        EN_5_ADS
  C:93D1H         PUBLIC        PCA0_CPM_overloadConfig
  X:0226H         PUBLIC        g_uc_RST_COUNT
  X:0212H         PUBLIC        g_us_LOAD_V
  X:024DH         PUBLIC        g_us_I_PS_COMM
  X:01F9H         PUBLIC        g_us_PV_V
  X:0299H         PUBLIC        g_ul_RST_COUNT
  X:0209H         PUBLIC        g_s_BATT_I
  X:0278H         PUBLIC        g_l_BATT_CAPACITY
  C:93F6H         PUBLIC        Timertask_getClock_Override
  X:0243H         PUBLIC        g_us_V_BATT
  X:0205H         PUBLIC        g_us_BATT_V
  X:05E5H         PUBLIC        g_uc_TK_RUN
  X:0289H         PUBLIC        g_us_RESET_SAT_DELAY_LOWER_BOUND
  X:024BH         PUBLIC        g_us_V_PS_COMM
  C:9124H         PUBLIC        _putchar
  X:022FH         PUBLIC        g_uc_PWRS_SOCSW_OFF
  X:001AH         PUBLIC        g_uc_PWRS_SELF_TEST
  -------         PROC          PCA0_CPM_OVERLOADCONFIG
  C:93D1H         LINE#         55
  C:93D1H         LINE#         56
  C:93D8H         LINE#         57
  C:93DFH         LINE#         58
  C:93E6H         LINE#         59
  C:93E9H         LINE#         60
  C:93ECH         LINE#         61
  C:93F3H         LINE#         62
  C:93F5H         LINE#         63
  -------         ENDPROC       PCA0_CPM_OVERLOADCONFIG
  -------         PROC          MAIN
  -------         DO            
  X:1471H         SYMBOL        x
  X:1472H         SYMBOL        sys_clock
  X:1476H         SYMBOL        index
  X:1477H         SYMBOL        testdata
  -------         ENDDO         
  C:5365H         LINE#         82
  C:5365H         LINE#         85
  C:536AH         LINE#         86
  C:536FH         LINE#         88
BL51 BANKED LINKER/LOCATER V6.22                                                      12/24/2012  13:21:13  PAGE 69


  C:5372H         LINE#         89
  C:5374H         LINE#         90
  C:5376H         LINE#         91
  C:5378H         LINE#         92
  C:537AH         LINE#         93
  C:537CH         LINE#         94
  C:537EH         LINE#         95
  C:5380H         LINE#         96
  C:5382H         LINE#         97
  C:5384H         LINE#         98
  C:5386H         LINE#         99
  C:5388H         LINE#         100
  C:538AH         LINE#         101
  C:538CH         LINE#         102
  C:538EH         LINE#         103
  C:5390H         LINE#         104
  C:5392H         LINE#         105
  C:5394H         LINE#         108
  C:539CH         LINE#         109
  C:53A1H         LINE#         112
  C:53A4H         LINE#         115
  C:53A6H         LINE#         116
  C:53A8H         LINE#         119
  C:53ABH         LINE#         121
  C:53AEH         LINE#         123
  C:53BBH         LINE#         125
  C:53C2H         LINE#         127
  C:53C7H         LINE#         130
  C:53D0H         LINE#         133
  C:53D6H         LINE#         136
  C:53E7H         LINE#         139
  C:53F0H         LINE#         142
  C:53F9H         LINE#         145
  C:5402H         LINE#         148
  C:5436H         LINE#         151
  C:5464H         LINE#         154
  C:546FH         LINE#         157
  C:5472H         LINE#         160
  C:5485H         LINE#         163
  C:5498H         LINE#         166
  C:54A5H         LINE#         167
  C:54B6H         LINE#         170
  C:54B9H         LINE#         171
  C:54BCH         LINE#         174
  C:54C3H         LINE#         176
  C:54C5H         LINE#         178
  C:54C8H         LINE#         180
  C:54D1H         LINE#         181
  C:54E2H         LINE#         182
  C:54E2H         LINE#         184
  C:54E5H         LINE#         186
  C:54F2H         LINE#         187
  C:54FBH         LINE#         189
  C:54FEH         LINE#         191
  C:5501H         LINE#         193
  C:5518H         LINE#         195
  C:5518H         LINE#         198
BL51 BANKED LINKER/LOCATER V6.22                                                      12/24/2012  13:21:13  PAGE 70


  C:5520H         LINE#         200
  C:5525H         LINE#         201
  C:5528H         LINE#         203
  C:552BH         LINE#         206
  C:5530H         LINE#         208
  C:553CH         LINE#         209
  C:5551H         LINE#         210
  C:5562H         LINE#         211
  C:5562H         LINE#         212
  C:5562H         LINE#         213
  C:5564H         LINE#         214
  -------         ENDPROC       MAIN
  -------         PROC          TIMER2_ISR
  C:8A37H         LINE#         216
  C:8A54H         LINE#         217
  C:8A56H         LINE#         219
  C:8A60H         LINE#         220
  C:8A66H         LINE#         222
  C:8A69H         LINE#         223
  -------         ENDPROC       TIMER2_ISR
  -------         PROC          TIMERTASK_GETCLOCK_OVERRIDE
  -------         DO            
  X:1558H         SYMBOL        clock_ms
  B:0022H.5       SYMBOL        EA_SAVE
  -------         ENDDO         
  C:93F6H         LINE#         225
  C:93F6H         LINE#         227
  C:93FAH         LINE#         228
  C:93FCH         LINE#         229
  C:93FEH         LINE#         230
  C:940EH         LINE#         231
  C:9412H         LINE#         232
  C:941AH         LINE#         233
  -------         ENDPROC       TIMERTASK_GETCLOCK_OVERRIDE
  -------         PROC          SMBUS_RXACKNOWLEGDE_OVERRIDE
  C:9765H         LINE#         235
  C:9765H         LINE#         237
  C:976EH         LINE#         238
  -------         ENDPROC       SMBUS_RXACKNOWLEGDE_OVERRIDE
  -------         PROC          _PUTCHAR
  X:1574H         SYMBOL        value
  C:9124H         LINE#         241
  C:9129H         LINE#         242
  C:9132H         LINE#         243
  C:9148H         LINE#         245
  C:9152H         LINE#         246
  C:9157H         LINE#         247
  -------         ENDPROC       _PUTCHAR
  -------         ENDMOD        PWRS_MAIN

  -------         MODULE        PWRS_PORT
  C:0000H         SYMBOL        _ICE_DUMMY_
  D:0090H         PUBLIC        P1
  D:00C8H         PUBLIC        P4
  D:00D8H         PUBLIC        P5
  D:00E8H         PUBLIC        P6
  D:00F8H         PUBLIC        P7
BL51 BANKED LINKER/LOCATER V6.22                                                      12/24/2012  13:21:13  PAGE 71


  D:00A4H         PUBLIC        P0MDOUT
  D:00A5H         PUBLIC        P1MDOUT
  D:00A6H         PUBLIC        P2MDOUT
  D:00A7H         PUBLIC        P3MDOUT
  D:009CH         PUBLIC        P4MDOUT
  D:009DH         PUBLIC        P5MDOUT
  D:009EH         PUBLIC        P6MDOUT
  D:009FH         PUBLIC        P7MDOUT
  D:00E1H         PUBLIC        XBR0
  D:00E2H         PUBLIC        XBR1
  D:00E3H         PUBLIC        XBR2
  D:00ADH         PUBLIC        P1MDIN
  C:918BH         PUBLIC        Port_init
  -------         PROC          PORT_INIT
  C:918BH         LINE#         7
  C:918BH         LINE#         83
  C:9190H         LINE#         84
  C:9193H         LINE#         85
  C:9196H         LINE#         86
  C:9199H         LINE#         87
  C:919CH         LINE#         88
  C:919FH         LINE#         89
  C:91A2H         LINE#         90
  C:91A5H         LINE#         91
  C:91A8H         LINE#         92
  C:91ABH         LINE#         93
  C:91AEH         LINE#         94
  C:91B1H         LINE#         95
  C:91B4H         LINE#         96
  C:91B7H         LINE#         98
  C:91BAH         LINE#         99
  -------         ENDPROC       PORT_INIT
  -------         ENDMOD        PWRS_PORT

  -------         MODULE        MCCIF_XDATA
  C:0000H         SYMBOL        _ICE_DUMMY_
  B:00A8H.7       PUBLIC        EA
  X:1533H         PUBLIC        mccif_subsystemId
  C:5F8EH         PUBLIC        _Mccif_downlinkXdata
  X:1534H         PUBLIC        mccif_port
  C:5150H         PUBLIC        _Mccif_uplinkXdata
  X:1535H         PUBLIC        mccif_receiveAll
  C:91E9H         PUBLIC        _Mccif_init
  -------         PROC          _MCCIF_INIT
  X:1530H         SYMBOL        p_port
  X:1531H         SYMBOL        p_subsystemId
  X:1532H         SYMBOL        p_receiveAll
  C:91E9H         LINE#         16
  C:91F8H         LINE#         17
  C:9202H         LINE#         18
  C:920CH         LINE#         19
  C:9216H         LINE#         20
  -------         ENDPROC       _MCCIF_INIT
  -------         PROC          _MCCIF_DOWNLINKXDATA
  X:130DH         SYMBOL        addr
  X:130FH         SYMBOL        length
  X:1311H         SYMBOL        msg
BL51 BANKED LINKER/LOCATER V6.22                                                      12/24/2012  13:21:13  PAGE 72


  -------         DO            
  X:1314H         SYMBOL        content
  X:131EH         SYMBOL        buffer
  X:1321H         SYMBOL        l_us_crc
  -------         ENDDO         
  C:5F8EH         LINE#         22
  C:5FA4H         LINE#         24
  C:5FB0H         LINE#         25
  C:5FB8H         LINE#         26
  C:5FBEH         LINE#         27
  C:5FC4H         LINE#         28
  C:5FCAH         LINE#         29
  C:5FD0H         LINE#         30
  C:5FD5H         LINE#         31
  C:5FDFH         LINE#         32
  C:5FF2H         LINE#         33
  C:5FFFH         LINE#         34
  C:6012H         LINE#         35
  C:601FH         LINE#         38
  C:6044H         LINE#         39
  C:605BH         LINE#         41
  C:6084H         LINE#         42
  C:60A2H         LINE#         44
  C:60B5H         LINE#         45
  C:60CCH         LINE#         46
  -------         ENDPROC       _MCCIF_DOWNLINKXDATA
  -------         PROC          _MCCIF_UPLINKXDATA
  X:01D3H         SYMBOL        flowc
  -------         DO            
  X:01D4H         SYMBOL        message
  X:01E4H         SYMBOL        offset
  X:01E6H         SYMBOL        length
  X:01E8H         SYMBOL        updated
  X:01E9H         SYMBOL        success
  X:01EAH         SYMBOL        ptr
  -------         ENDDO         
  C:5150H         LINE#         48
  C:5155H         LINE#         51
  C:515AH         LINE#         53
  C:5162H         LINE#         54
  C:517FH         LINE#         55
  C:5185H         LINE#         56
  C:51A1H         LINE#         57
  C:51BDH         LINE#         58
  C:51D9H         LINE#         59
  C:51F5H         LINE#         60
  C:5211H         LINE#         61
  C:523AH         LINE#         62
  C:5245H         LINE#         63
  C:5255H         LINE#         64
  C:5265H         LINE#         65
  C:52A0H         LINE#         66
  C:52C0H         LINE#         67
  C:52C8H         LINE#         68
  C:52CAH         LINE#         69
  C:52CCH         LINE#         70
  C:531FH         LINE#         71
BL51 BANKED LINKER/LOCATER V6.22                                                      12/24/2012  13:21:13  PAGE 73


  C:5321H         LINE#         72
  C:532DH         LINE#         73
  C:533BH         LINE#         74
  C:533BH         LINE#         75
  C:533BH         LINE#         76
  C:5343H         LINE#         77
  C:534FH         LINE#         78
  C:535AH         LINE#         79
  C:535CH         LINE#         80
  C:535FH         LINE#         81
  C:5364H         LINE#         82
  -------         ENDPROC       _MCCIF_UPLINKXDATA
  -------         ENDMOD        MCCIF_XDATA

  -------         MODULE        MCCIF_BUFFER
  C:0000H         SYMBOL        _ICE_DUMMY_
  X:1427H         PUBLIC        mccif_buffer_maxlength
  C:84ECH         PUBLIC        _Mccif_appendChars
  C:7D75H         PUBLIC        _Mccif_appendChar
  X:1429H         PUBLIC        mccif_buffer_index
  X:142AH         PUBLIC        mccif_buffer
  X:142DH         PUBLIC        mccif_buffer_flush
  C:8734H         PUBLIC        Mccif_flush
  X:142FH         PUBLIC        mccif_buffer_count
  C:8D83H         PUBLIC        _Mccif_setBuffer
  -------         PROC          _MCCIF_SETBUFFER
  X:14C8H         SYMBOL        buffer
  X:14CBH         SYMBOL        maxlength
  C:8D83H         LINE#         11
  C:8D91H         LINE#         12
  C:8D9DH         LINE#         13
  C:8DA2H         LINE#         14
  C:8DAAH         LINE#         15
  C:8DBAH         LINE#         16
  C:8DC2H         LINE#         17
  -------         ENDPROC       _MCCIF_SETBUFFER
  -------         PROC          MCCIF_FLUSH
  C:8734H         LINE#         19
  C:8734H         LINE#         20
  C:874BH         LINE#         21
  C:877CH         LINE#         22
  C:8784H         LINE#         23
  C:878EH         LINE#         24
  C:878EH         LINE#         25
  -------         ENDPROC       MCCIF_FLUSH
  -------         PROC          _MCCIF_APPENDCHAR
  X:155AH         SYMBOL        index
  X:155BH         SYMBOL        value
  C:7D75H         LINE#         27
  C:7D7FH         LINE#         28
  C:7D8AH         LINE#         29
  C:7DA4H         LINE#         30
  C:7DA7H         LINE#         32
  C:7DB1H         LINE#         33
  C:7DCCH         LINE#         34
  C:7DD6H         LINE#         35
  C:7DEEH         LINE#         36
BL51 BANKED LINKER/LOCATER V6.22                                                      12/24/2012  13:21:13  PAGE 74


  C:7DF1H         LINE#         37
  C:7DF1H         LINE#         38
  -------         ENDPROC       _MCCIF_APPENDCHAR
  -------         PROC          _MCCIF_APPENDCHARS
  X:13DFH         SYMBOL        index
  X:13E0H         SYMBOL        ptr
  X:13E3H         SYMBOL        len
  -------         DO            
  X:13E5H         SYMBOL        c0
  X:13E7H         SYMBOL        msg
  -------         ENDDO         
  C:84ECH         LINE#         40
  C:84F7H         LINE#         42
  C:8503H         LINE#         43
  C:8528H         LINE#         44
  C:8552H         LINE#         45
  -------         ENDPROC       _MCCIF_APPENDCHARS
  -------         ENDMOD        MCCIF_BUFFER

  -------         MODULE        MCCIF_STREAM
  C:0000H         SYMBOL        _ICE_DUMMY_
  C:5CEFH         PUBLIC        _Mccif_downlinkStream
  -------         PROC          _MCCIF_DOWNLINKSTREAM
  X:0000H         SYMBOL        index
  X:0002H         SYMBOL        count
  X:0004H         SYMBOL        length
  X:0006H         SYMBOL        msg
  -------         DO            
  X:0009H         SYMBOL        content
  X:0013H         SYMBOL        buffer
  X:0016H         SYMBOL        l_us_crc
  -------         ENDDO         
  C:5CEFH         LINE#         11
  C:5D07H         LINE#         13
  C:5D13H         LINE#         14
  C:5D1BH         LINE#         15
  C:5D21H         LINE#         16
  C:5D27H         LINE#         17
  C:5D2DH         LINE#         18
  C:5D33H         LINE#         19
  C:5D46H         LINE#         20
  C:5D53H         LINE#         21
  C:5D66H         LINE#         22
  C:5D73H         LINE#         23
  C:5D86H         LINE#         24
  C:5D93H         LINE#         26
  C:5DB8H         LINE#         27
  C:5DCFH         LINE#         29
  C:5DF8H         LINE#         30
  C:5E16H         LINE#         32
  C:5E29H         LINE#         33
  C:5E40H         LINE#         34
  -------         ENDPROC       _MCCIF_DOWNLINKSTREAM
  -------         ENDMOD        MCCIF_STREAM

  -------         MODULE        C8051_UART1_STRING
  C:0000H         SYMBOL        _ICE_DUMMY_
BL51 BANKED LINKER/LOCATER V6.22                                                      12/24/2012  13:21:13  PAGE 75


  C:82E1H         PUBLIC        _Uart1GetString
  C:8276H         PUBLIC        Uart1Get
  -------         PROC          UART1GET
  -------         DO            
  X:14CDH         SYMBOL        c
  X:14CEH         SYMBOL        now
  X:14D0H         SYMBOL        delta
  -------         ENDDO         
  C:8276H         LINE#         9
  C:8276H         LINE#         10
  C:827BH         LINE#         13
  C:8286H         LINE#         14
  C:828EH         LINE#         16
  C:829FH         LINE#         17
  C:829FH         LINE#         18
  C:82AFH         LINE#         19
  C:82B6H         LINE#         20
  C:82B8H         LINE#         21
  C:82B8H         LINE#         22
  C:82D2H         LINE#         23
  C:82D9H         LINE#         24
  C:82DBH         LINE#         25
  C:82E0H         LINE#         26
  -------         ENDPROC       UART1GET
  -------         PROC          _UART1GETSTRING
  X:149FH         SYMBOL        buffer
  X:14A2H         SYMBOL        bufferLength
  -------         DO            
  X:14A3H         SYMBOL        v
  X:14A4H         SYMBOL        count
  -------         ENDDO         
  C:82E1H         LINE#         28
  C:82ECH         LINE#         33
  C:82F1H         LINE#         34
  C:82F1H         LINE#         35
  C:82FBH         LINE#         36
  C:82FBH         LINE#         38
  C:8303H         LINE#         40
  C:830BH         LINE#         41
  C:830BH         LINE#         42
  C:830BH         LINE#         44
  C:8311H         LINE#         45
  C:8324H         LINE#         46
  C:832EH         LINE#         48
  C:8341H         LINE#         49
  C:8343H         LINE#         50
  C:8345H         LINE#         51
  C:834AH         LINE#         52
  -------         ENDPROC       _UART1GETSTRING
  -------         ENDMOD        C8051_UART1_STRING

  -------         MODULE        VELOX_STRING
  C:0000H         SYMBOL        _ICE_DUMMY_
  C:6679H         PUBLIC        _hexstring2ulong
  -------         PROC          _HEXSTRING2ULONG
  X:1372H         SYMBOL        read_buffer
  X:1375H         SYMBOL        length
BL51 BANKED LINKER/LOCATER V6.22                                                      12/24/2012  13:21:13  PAGE 76


  -------         DO            
  X:1376H         SYMBOL        charnum
  X:1377H         SYMBOL        hex_number
  X:137BH         SYMBOL        temp
  X:137CH         SYMBOL        buffer_pointer
  X:137FH         SYMBOL        i
  -------         ENDDO         
  C:6679H         LINE#         8
  C:6684H         LINE#         14
  C:668EH         LINE#         15
  C:669AH         LINE#         16
  C:66B7H         LINE#         17
  C:66CAH         LINE#         18
  C:66D2H         LINE#         19
  C:66D9H         LINE#         20
  C:66DEH         LINE#         21
  C:66F4H         LINE#         22
  C:6704H         LINE#         23
  C:671AH         LINE#         24
  C:672AH         LINE#         25
  C:6740H         LINE#         26
  C:674EH         LINE#         27
  C:674EH         LINE#         29
  C:674EH         LINE#         31
  C:675FH         LINE#         32
  C:6777H         LINE#         33
  C:6780H         LINE#         34
  C:6786H         LINE#         35
  -------         ENDPROC       _HEXSTRING2ULONG
  -------         ENDMOD        VELOX_STRING

  -------         MODULE        XBEE
  C:0000H         SYMBOL        _ICE_DUMMY_
  X:09CDH         PUBLIC        g_us_pan_id
  X:0A00H         PUBLIC        g_uc_poll_XBee_timer_flag
  D:00C8H         PUBLIC        P4
  D:00D8H         PUBLIC        P5
  X:09D7H         PUBLIC        g_us_scan_channel_mask
  D:00E8H         PUBLIC        P6
  X:09FFH         PUBLIC        g_uc_send_packet_flag
  D:00F8H         PUBLIC        P7
  X:09D9H         PUBLIC        g_ul_coord_EUI_hi
  X:0A19H         PUBLIC        g_us_xbee_sleep_period
  X:09E9H         PUBLIC        g_uc_encryption_enable
  C:4A3DH         PUBLIC        XBeeCoordHandler
  X:09DDH         PUBLIC        g_ul_coord_EUI_lo
  X:0595H         PUBLIC        XbeeTestData
  X:05B6H         PUBLIC        XBee_packetTimeout
  X:0A16H         PUBLIC        g_uc_xbee_power_level
  X:05BBH         PUBLIC        XBee_packetDelay
  C:9787H         PUBLIC        XBeePacketTimeoutReset
  X:0A1CH         PUBLIC        g_us_AT_mode_guard_time
  X:09F7H         PUBLIC        g_ul_XBee_link_key_0
  X:09F3H         PUBLIC        g_ul_XBee_link_key_1
  X:09EFH         PUBLIC        g_ul_XBee_link_key_2
  X:09EBH         PUBLIC        g_ul_XBee_link_key_3
  X:0A1BH         PUBLIC        g_uc_XBee_AT_Mode_flag
BL51 BANKED LINKER/LOCATER V6.22                                                      12/24/2012  13:21:13  PAGE 77


  X:09C4H         PUBLIC        g_uc_assoc_indicator
  X:05C0H         PUBLIC        XBee_networkTimeout
  X:09EAH         PUBLIC        g_uc_encryption_options
  C:978EH         PUBLIC        XBeeNetworkTimeoutReset
  X:0A17H         PUBLIC        g_us_xbee_no_sleep_periods
  X:0A01H         PUBLIC        g_uc_packet_failure_count
  X:09E1H         PUBLIC        g_ul_end_dev_EUI_hi
  X:0A14H         PUBLIC        g_uc_try_AT_mode_flag
  C:9082H         PUBLIC        _XBeeSetPacketTimeout
  X:09CFH         PUBLIC        g_ul_extended_pan_id_hi
  C:904CH         PUBLIC        _XBeeSetPacketDelay
  X:09E5H         PUBLIC        g_ul_end_dev_EUI_lo
  X:0A0BH         PUBLIC        g_uc_packet_timeout
  X:0A0AH         PUBLIC        g_uc_poll_XBee_timeout_flag
  X:09D3H         PUBLIC        g_ul_extended_pan_id_lo
  C:90B8H         PUBLIC        _XBeeSetNetworkTimeout
  C:9780H         PUBLIC        XBeeTimerReset
  X:0A15H         PUBLIC        g_uc_scan_duration
  C:0DC7H         PUBLIC        XBeeStart
  C:6FDAH         PUBLIC        XBeeInit
  -------         PROC          XBEETIMERRESET
  C:9780H         LINE#         39
  C:9780H         LINE#         40
  C:9786H         LINE#         41
  -------         ENDPROC       XBEETIMERRESET
  -------         PROC          _XBEESETPACKETDELAY
  X:14F0H         SYMBOL        xbee_delay_sec
  X:14F2H         SYMBOL        xbee_delay_ms
  C:904CH         LINE#         52
  C:905CH         LINE#         53
  C:9081H         LINE#         54
  -------         ENDPROC       _XBEESETPACKETDELAY
  -------         PROC          _XBEESETPACKETTIMEOUT
  X:14F4H         SYMBOL        xbee_timeout_sec
  X:14F6H         SYMBOL        xbee_timeout_ms
  C:9082H         LINE#         65
  C:9092H         LINE#         66
  C:90B7H         LINE#         67
  -------         ENDPROC       _XBEESETPACKETTIMEOUT
  -------         PROC          XBEEPACKETTIMEOUTRESET
  C:9787H         LINE#         76
  C:9787H         LINE#         77
  C:978DH         LINE#         78
  -------         ENDPROC       XBEEPACKETTIMEOUTRESET
  -------         PROC          _XBEESETNETWORKTIMEOUT
  X:14F8H         SYMBOL        xbee_timeout_sec
  X:14FAH         SYMBOL        xbee_timeout_ms
  C:90B8H         LINE#         89
  C:90C8H         LINE#         90
  C:90EDH         LINE#         91
  -------         ENDPROC       _XBEESETNETWORKTIMEOUT
  -------         PROC          XBEENETWORKTIMEOUTRESET
  C:978EH         LINE#         100
  C:978EH         LINE#         101
  C:9794H         LINE#         102
  -------         ENDPROC       XBEENETWORKTIMEOUTRESET
  -------         PROC          XBEECOORDHANDLER
BL51 BANKED LINKER/LOCATER V6.22                                                      12/24/2012  13:21:13  PAGE 78


  -------         DO            
  X:05E8H         SYMBOL        l_uc_rx1_byte_count
  X:05E9H         SYMBOL        l_uc_rx1_buffer
  X:05ECH         SYMBOL        l_uc_tx1_buffer
  -------         ENDDO         
  C:4A3DH         LINE#         122
  C:4A3DH         LINE#         127
  C:4A48H         LINE#         128
  C:4A48H         LINE#         136
  C:4A50H         LINE#         137
  C:4A5BH         LINE#         138
  C:4A5BH         LINE#         139
  C:4A74H         LINE#         140
  C:4A74H         LINE#         141
  C:4A79H         LINE#         142
  C:4A7EH         LINE#         144
  C:4A89H         LINE#         146
  C:4A8CH         LINE#         147
  C:4A92H         LINE#         150
  C:4A95H         LINE#         152
  C:4AA2H         LINE#         153
  C:4AA2H         LINE#         154
  C:4ACEH         LINE#         155
  C:4AD1H         LINE#         158
  C:4ADCH         LINE#         159
  C:4AF0H         LINE#         161
  C:4B22H         LINE#         163
  C:4B3EH         LINE#         164
  C:4B3EH         LINE#         165
  C:4B3EH         LINE#         168
  C:4B43H         LINE#         169
  C:4B45H         LINE#         170
  C:4B45H         LINE#         171
  C:4B48H         LINE#         172
  C:4B4AH         LINE#         173
  C:4B4AH         LINE#         175
  C:4B58H         LINE#         176
  C:4B5BH         LINE#         177
  C:4B5BH         LINE#         178
  C:4B5DH         LINE#         180
  C:4B5DH         LINE#         182
  C:4B62H         LINE#         189
  C:4B64H         LINE#         191
  C:4B64H         LINE#         193
  C:4B69H         LINE#         194
  C:4B69H         LINE#         195
  C:4B69H         LINE#         197
  C:4B69H         LINE#         202
  C:4B71H         LINE#         203
  C:4B7FH         LINE#         205
  C:4B7FH         LINE#         208
  C:4B87H         LINE#         209
  C:4B95H         LINE#         210
  C:4B9DH         LINE#         211
  C:4BA3H         LINE#         212
  C:4BAEH         LINE#         214
  C:4BB9H         LINE#         216
BL51 BANKED LINKER/LOCATER V6.22                                                      12/24/2012  13:21:13  PAGE 79


  C:4BCAH         LINE#         217
  C:4BD4H         LINE#         218
  C:4BD4H         LINE#         219
  C:4BD9H         LINE#         220
  C:4BD9H         LINE#         222
  C:4BDCH         LINE#         224
  C:4BE2H         LINE#         226
  C:4BE7H         LINE#         227
  C:4BE7H         LINE#         228
  C:4BE7H         LINE#         231
  C:4BF2H         LINE#         234
  C:4BFDH         LINE#         237
  C:4C06H         LINE#         238
  C:4C09H         LINE#         240
  C:4C0EH         LINE#         242
  C:4C11H         LINE#         243
  C:4C17H         LINE#         245
  C:4C1CH         LINE#         257
  C:4C1CH         LINE#         259
  C:4C1CH         LINE#         260
  C:4C28H         LINE#         261
  C:4C30H         LINE#         263
  C:4C33H         LINE#         264
  C:4C3BH         LINE#         266
  C:4C67H         LINE#         267
  C:4C77H         LINE#         270
  C:4C7AH         LINE#         272
  C:4C7AH         LINE#         275
  C:4C7AH         LINE#         277
  C:4C85H         LINE#         278
  C:4C88H         LINE#         279
  C:4C8DH         LINE#         281
  C:4C8EH         LINE#         282
  C:4C9CH         LINE#         283
  C:4C9CH         LINE#         285
  C:4CB0H         LINE#         286
  C:4CB8H         LINE#         287
  C:4CC0H         LINE#         288
  C:4CC5H         LINE#         289
  C:4CC6H         LINE#         290
  C:4CD4H         LINE#         291
  C:4CD4H         LINE#         292
  C:4CD4H         LINE#         293
  -------         ENDPROC       XBEECOORDHANDLER
  -------         PROC          XBEEINIT
  C:6FDAH         LINE#         573
  C:6FDAH         LINE#         575
  C:6FDFH         LINE#         576
  C:6FE4H         LINE#         577
  C:6FE9H         LINE#         578
  C:6FEFH         LINE#         580
  C:6FF4H         LINE#         581
  C:6FF9H         LINE#         582
  C:6FFEH         LINE#         585
  C:7009H         LINE#         586
  C:7014H         LINE#         589
  C:7019H         LINE#         590
BL51 BANKED LINKER/LOCATER V6.22                                                      12/24/2012  13:21:13  PAGE 80


  C:7023H         LINE#         591
  C:7028H         LINE#         593
  C:702DH         LINE#         598
  C:7037H         LINE#         599
  C:7041H         LINE#         602
  C:704BH         LINE#         604
  C:7051H         LINE#         606
  C:7056H         LINE#         608
  C:705FH         LINE#         609
  C:7068H         LINE#         625
  C:706DH         LINE#         627
  C:7070H         LINE#         629
  C:7075H         LINE#         630
  C:707BH         LINE#         631
  C:7085H         LINE#         632
  C:708FH         LINE#         633
  C:7099H         LINE#         634
  C:70A3H         LINE#         635
  -------         ENDPROC       XBEEINIT
  -------         PROC          XBEESTART
  -------         DO            
  X:0023H         SYMBOL        count
  X:0024H         SYMBOL        write_buffer
  X:0039H         SYMBOL        read_buffer
  X:004EH         SYMBOL        assoc_indicator
  -------         ENDDO         
  C:0DC7H         LINE#         644
  C:0DC7H         LINE#         668
  C:0DCAH         LINE#         670
  C:0DD7H         LINE#         672
  C:0E03H         LINE#         673
  C:0E35H         LINE#         675
  C:0E44H         LINE#         676
  C:0E75H         LINE#         677
  C:0E96H         LINE#         678
  C:0E96H         LINE#         681
  C:0EC2H         LINE#         682
  C:0EF2H         LINE#         684
  C:0F01H         LINE#         685
  C:0F2CH         LINE#         686
  C:0F4DH         LINE#         687
  C:0F4DH         LINE#         692
  C:0F79H         LINE#         693
  C:0F87H         LINE#         694
  C:0FBFH         LINE#         696
  C:0FCEH         LINE#         697
  C:0FFBH         LINE#         698
  C:1028H         LINE#         699
  C:1049H         LINE#         700
  C:1049H         LINE#         701
  C:104CH         LINE#         702
  C:108BH         LINE#         704
  C:109AH         LINE#         705
  C:10C7H         LINE#         706
  C:10F4H         LINE#         707
  C:1115H         LINE#         708
  C:1115H         LINE#         709
BL51 BANKED LINKER/LOCATER V6.22                                                      12/24/2012  13:21:13  PAGE 81


  C:1115H         LINE#         711
  C:1141H         LINE#         712
  C:1168H         LINE#         714
  C:1177H         LINE#         715
  C:119DH         LINE#         716
  C:11BEH         LINE#         717
  C:11BEH         LINE#         721
  C:11EAH         LINE#         722
  C:1219H         LINE#         724
  C:123AH         LINE#         725
  C:123AH         LINE#         727
  C:1266H         LINE#         728
  C:128DH         LINE#         730
  C:129CH         LINE#         731
  C:12C7H         LINE#         732
  C:12E8H         LINE#         733
  C:12E8H         LINE#         735
  C:1314H         LINE#         736
  C:133BH         LINE#         738
  C:134AH         LINE#         739
  C:1375H         LINE#         740
  C:1396H         LINE#         741
  C:1396H         LINE#         745
  C:13C2H         LINE#         746
  C:13F4H         LINE#         748
  C:1403H         LINE#         749
  C:1434H         LINE#         750
  C:1455H         LINE#         751
  C:1455H         LINE#         753
  C:1481H         LINE#         754
  C:14B3H         LINE#         756
  C:14C2H         LINE#         757
  C:14F3H         LINE#         758
  C:1514H         LINE#         759
  C:1514H         LINE#         813
  C:151DH         LINE#         814
  C:1549H         LINE#         815
  C:157BH         LINE#         817
  C:158AH         LINE#         818
  C:15BBH         LINE#         819
  C:15DCH         LINE#         820
  C:15DCH         LINE#         824
  C:1608H         LINE#         825
  C:1638H         LINE#         826
  C:1647H         LINE#         827
  C:1672H         LINE#         828
  C:1693H         LINE#         829
  C:1693H         LINE#         831
  C:169EH         LINE#         832
  C:16CAH         LINE#         833
  C:16FAH         LINE#         834
  C:1709H         LINE#         835
  C:1734H         LINE#         836
  C:1755H         LINE#         837
  C:1755H         LINE#         842
  C:1782H         LINE#         843
  C:17AFH         LINE#         844
BL51 BANKED LINKER/LOCATER V6.22                                                      12/24/2012  13:21:13  PAGE 82


  C:17DCH         LINE#         845
  C:1809H         LINE#         846
  C:182AH         LINE#         847
  C:182AH         LINE#         850
  C:1856H         LINE#         851
  C:1886H         LINE#         852
  C:1895H         LINE#         853
  C:18C0H         LINE#         854
  C:18E1H         LINE#         855
  C:18E1H         LINE#         859
  C:1902H         LINE#         862
  C:1923H         LINE#         865
  C:194FH         LINE#         866
  C:195FH         LINE#         869
  C:196AH         LINE#         870
  C:196DH         LINE#         874
  C:1970H         LINE#         890
  C:1976H         LINE#         891
  C:1978H         LINE#         893
  C:1983H         LINE#         894
  C:1986H         LINE#         901
  C:1989H         LINE#         902
  C:1989H         LINE#         903
  C:198BH         LINE#         904
  -------         ENDPROC       XBEESTART
  -------         ENDMOD        XBEE

  -------         MODULE        XBEE_ATCMD
  C:0000H         SYMBOL        _ICE_DUMMY_
  X:07D5H         PUBLIC        XBeeRxPayload
  X:0820H         PUBLIC        XBeeTxPayload
  D:00E7H         PUBLIC        EIE2
  X:086BH         PUBLIC        XBeeATRqParamResponse
  C:4CD5H         PUBLIC        XBeeRemoteATCmdRqHandler
  C:6A92H         PUBLIC        XBeeATAck
  X:0880H         PUBLIC        XBeeRxSeqNum
  X:0881H         PUBLIC        XBeeTxSeqNum
  X:0882H         PUBLIC        XBeeATRqParamSuccess
  X:0883H         PUBLIC        XBeeATRqParamLength
  X:0884H         PUBLIC        ATModePreserveRxLength
  C:9572H         PUBLIC        ATCmd_Init
  C:644AH         PUBLIC        _ATCmdRead
  X:0885H         PUBLIC        XBeeATRqCmdResponse
  X:0888H         PUBLIC        XBeeRxPrevSeqNum
  X:0889H         PUBLIC        XBeeTxData
  C:5744H         PUBLIC        _ATcheckOK
  C:6991H         PUBLIC        ATCmdModeEnter
  X:088AH         PUBLIC        XBeeRxHeaderPtr
  X:088BH         PUBLIC        XBeeRxPayloadPtr
  C:6200H         PUBLIC        _ATCmdWrite
  X:088CH         PUBLIC        XBeePktDelimiter
  C:8943H         PUBLIC        _XBeeWriteStringPayload
  C:4762H         PUBLIC        XBeeATDataReceive
  X:0890H         PUBLIC        XBeeRxFrameType
  C:8208H         PUBLIC        ATCmdModeExit
  C:6562H         PUBLIC        XBeeATDataTransmit
  X:0891H         PUBLIC        XBeeATRqCmd
BL51 BANKED LINKER/LOCATER V6.22                                                      12/24/2012  13:21:13  PAGE 83


  C:92BCH         PUBLIC        UART1_Check_Tx
  X:0894H         PUBLIC        XBeeRxPayloadLength
  X:0895H         PUBLIC        XBeeATRqParameter
  X:08AAH         PUBLIC        XBeeRxChecksum
  X:08ABH         PUBLIC        XBeePacketReceived
  C:4F36H         PUBLIC        _XBeeRemoteATCmdRequest
  X:08ACH         PUBLIC        ATModePreserveRXBuffer
  C:8046H         PUBLIC        _UART1_RX_Push
  -------         PROC          _UART1_RX_PUSH
  X:1575H         SYMBOL        rx_data
  C:8046H         LINE#         70
  C:804BH         LINE#         71
  C:8068H         LINE#         74
  C:8083H         LINE#         75
  C:808DH         LINE#         76
  C:80A5H         LINE#         77
  C:80ADH         LINE#         78
  C:80B7H         LINE#         79
  C:80B7H         LINE#         80
  -------         ENDPROC       _UART1_RX_PUSH
  -------         PROC          UART1_CHECK_TX
  -------         DO            
  X:1536H         SYMBOL        EIE2_SAVE
  X:1537H         SYMBOL        bytes_wait_tx
  -------         ENDDO         
  C:92BCH         LINE#         88
  C:92BCH         LINE#         89
  C:92C2H         LINE#         92
  C:92C5H         LINE#         94
  C:92D5H         LINE#         97
  C:92DCH         LINE#         99
  C:92E4H         LINE#         101
  -------         ENDPROC       UART1_CHECK_TX
  -------         PROC          ATCMD_INIT
  C:9572H         LINE#         103
  C:9572H         LINE#         104
  C:9581H         LINE#         105
  C:9590H         LINE#         107
  -------         ENDPROC       ATCMD_INIT
  -------         PROC          _ATCHECKOK
  X:13BDH         SYMBOL        timeout
  -------         DO            
  X:13BFH         SYMBOL        success
  X:13C0H         SYMBOL        char_count
  X:13C1H         SYMBOL        ack
  X:13C4H         SYMBOL        i
  X:13C5H         SYMBOL        now
  X:13C7H         SYMBOL        delta
  -------         ENDDO         
  C:5744H         LINE#         109
  C:574CH         LINE#         111
  C:5751H         LINE#         112
  C:5756H         LINE#         117
  C:575EH         LINE#         118
  C:5768H         LINE#         119
  C:5773H         LINE#         120
  C:578DH         LINE#         121
BL51 BANKED LINKER/LOCATER V6.22                                                      12/24/2012  13:21:13  PAGE 84


  C:57A7H         LINE#         122
  C:57ADH         LINE#         123
  C:57C9H         LINE#         124
  C:57E5H         LINE#         125
  C:5801H         LINE#         126
  C:5809H         LINE#         127
  C:5812H         LINE#         128
  C:5814H         LINE#         129
  C:5816H         LINE#         130
  C:582EH         LINE#         131
  C:5837H         LINE#         132
  C:5837H         LINE#         133
  C:5837H         LINE#         134
  C:5851H         LINE#         135
  C:5858H         LINE#         136
  C:585BH         LINE#         137
  C:5863H         LINE#         138
  C:587AH         LINE#         139
  C:5892H         LINE#         140
  C:589BH         LINE#         141
  C:589DH         LINE#         142
  C:589DH         LINE#         144
  C:58AEH         LINE#         145
  C:58B8H         LINE#         147
  C:58BDH         LINE#         148
  -------         ENDPROC       _ATCHECKOK
  -------         PROC          ATCMDMODEENTER
  -------         DO            
  X:14FCH         SYMBOL        dummy
  X:14FDH         SYMBOL        i
  X:14FEH         SYMBOL        EIE2_SAVE
  X:14FFH         SYMBOL        success
  -------         ENDDO         
  C:6991H         LINE#         160
  C:6991H         LINE#         167
  C:6998H         LINE#         170
  C:69A3H         LINE#         174
  C:69ADH         LINE#         175
  C:69B2H         LINE#         176
  C:69C9H         LINE#         177
  C:69D2H         LINE#         178
  C:69EAH         LINE#         179
  C:69ECH         LINE#         180
  C:69F6H         LINE#         181
  C:6A07H         LINE#         183
  C:6A1BH         LINE#         184
  C:6A26H         LINE#         186
  C:6A32H         LINE#         189
  C:6A3AH         LINE#         190
  C:6A40H         LINE#         191
  C:6A42H         LINE#         192
  C:6A47H         LINE#         193
  C:6A4DH         LINE#         195
  C:6A50H         LINE#         197
  C:6A64H         LINE#         198
  C:6A78H         LINE#         199
  C:6A80H         LINE#         201
BL51 BANKED LINKER/LOCATER V6.22                                                      12/24/2012  13:21:13  PAGE 85


  C:6A85H         LINE#         203
  C:6A8CH         LINE#         204
  C:6A8CH         LINE#         205
  C:6A91H         LINE#         206
  -------         ENDPROC       ATCMDMODEENTER
  -------         PROC          ATCMDMODEEXIT
  -------         DO            
  X:155CH         SYMBOL        j
  X:155DH         SYMBOL        EIE2_SAVE
  -------         ENDDO         
  C:8208H         LINE#         216
  C:8208H         LINE#         221
  C:8210H         LINE#         222
  C:8224H         LINE#         223
  C:822BH         LINE#         224
  C:8230H         LINE#         225
  C:8236H         LINE#         227
  C:8239H         LINE#         229
  C:824DH         LINE#         230
  C:8261H         LINE#         231
  C:8269H         LINE#         233
  C:826EH         LINE#         235
  C:8275H         LINE#         236
  C:8275H         LINE#         238
  -------         ENDPROC       ATCMDMODEEXIT
  -------         PROC          _ATCMDWRITE
  X:13EAH         SYMBOL        cmdBuffer
  X:13EDH         SYMBOL        paramBuffer
  -------         DO            
  X:13F0H         SYMBOL        buffer
  X:13F4H         SYMBOL        char_count
  -------         ENDDO         
  C:6200H         LINE#         251
  C:6206H         LINE#         253
  C:620BH         LINE#         254
  C:621AH         LINE#         255
  C:6225H         LINE#         257
  C:6239H         LINE#         258
  C:6255H         LINE#         259
  C:6269H         LINE#         260
  C:6285H         LINE#         261
  C:6299H         LINE#         264
  C:62B5H         LINE#         265
  C:62D1H         LINE#         266
  C:62E5H         LINE#         268
  C:62F5H         LINE#         270
  C:6324H         LINE#         271
  C:6327H         LINE#         272
  C:6327H         LINE#         273
  C:6329H         LINE#         274
  -------         ENDPROC       _ATCMDWRITE
  -------         PROC          _ATCMDREAD
  X:143AH         SYMBOL        cmdBuffer
  X:143DH         SYMBOL        paramBuffer
  X:1440H         SYMBOL        paramBufferLength
  -------         DO            
  X:1441H         SYMBOL        buffer
BL51 BANKED LINKER/LOCATER V6.22                                                      12/24/2012  13:21:13  PAGE 86


  X:1442H         SYMBOL        count
  -------         ENDDO         
  C:644AH         LINE#         288
  C:6450H         LINE#         289
  C:6455H         LINE#         290
  C:645AH         LINE#         291
  C:6465H         LINE#         292
  C:6479H         LINE#         293
  C:6495H         LINE#         294
  C:64A9H         LINE#         296
  C:64C5H         LINE#         298
  C:64D9H         LINE#         300
  C:64ECH         LINE#         301
  C:64F7H         LINE#         302
  C:6518H         LINE#         303
  C:6535H         LINE#         304
  C:653BH         LINE#         305
  C:6541H         LINE#         306
  C:6543H         LINE#         308
  C:654BH         LINE#         309
  C:6554H         LINE#         310
  C:655CH         LINE#         312
  C:655FH         LINE#         313
  C:655FH         LINE#         314
  C:655FH         LINE#         315
  C:655FH         LINE#         316
  C:6561H         LINE#         317
  -------         ENDPROC       _ATCMDREAD
  -------         PROC          XBEEATDATARECEIVE
  -------         DO            
  X:1539H         SYMBOL        message
  X:153AH         SYMBOL        length
  X:153BH         SYMBOL        bytes_received
  -------         ENDDO         
  C:4762H         LINE#         329
  C:4762H         LINE#         333
  C:4767H         LINE#         334
  C:4781H         LINE#         335
  C:4795H         LINE#         336
  C:47A0H         LINE#         337
  C:47BAH         LINE#         338
  C:47C3H         LINE#         340
  C:47C8H         LINE#         341
  C:47D4H         LINE#         343
  C:47DDH         LINE#         344
  C:47E6H         LINE#         346
  C:47EBH         LINE#         347
  C:47FCH         LINE#         348
  C:4807H         LINE#         349
  C:481DH         LINE#         350
  C:481DH         LINE#         351
  C:4827H         LINE#         352
  C:4835H         LINE#         353
  C:4837H         LINE#         354
  C:4837H         LINE#         355
  C:483CH         LINE#         356
  C:4846H         LINE#         357
BL51 BANKED LINKER/LOCATER V6.22                                                      12/24/2012  13:21:13  PAGE 87


  C:4851H         LINE#         358
  C:4853H         LINE#         359
  C:4853H         LINE#         360
  C:485DH         LINE#         361
  C:4867H         LINE#         362
  C:4872H         LINE#         363
  C:4886H         LINE#         364
  C:4886H         LINE#         365
  C:4886H         LINE#         366
  C:4886H         LINE#         367
  C:4886H         LINE#         368
  C:488CH         LINE#         369
  C:488FH         LINE#         371
  C:4892H         LINE#         372
  C:4892H         LINE#         373
  C:48B4H         LINE#         374
  C:48CAH         LINE#         375
  C:48CAH         LINE#         377
  C:48E0H         LINE#         378
  C:48E3H         LINE#         379
  C:48E3H         LINE#         380
  C:48EEH         LINE#         382
  C:4906H         LINE#         385
  C:491CH         LINE#         386
  C:491EH         LINE#         388
  C:491EH         LINE#         389
  C:4929H         LINE#         391
  C:4941H         LINE#         392
  C:494AH         LINE#         394
  C:4956H         LINE#         397
  C:496CH         LINE#         398
  C:496CH         LINE#         399
  C:496CH         LINE#         400
  C:496CH         LINE#         401
  C:496CH         LINE#         402
  C:4977H         LINE#         403
  C:497DH         LINE#         404
  C:499FH         LINE#         406
  C:49AAH         LINE#         407
  C:49B4H         LINE#         408
  C:49BAH         LINE#         409
  C:49C3H         LINE#         410
  C:49D1H         LINE#         411
  C:49E2H         LINE#         412
  C:49E2H         LINE#         413
  C:49F4H         LINE#         414
  C:4A05H         LINE#         415
  C:4A05H         LINE#         416
  C:4A05H         LINE#         418
  C:4A0AH         LINE#         419
  C:4A0FH         LINE#         421
  C:4A14H         LINE#         423
  C:4A1DH         LINE#         424
  C:4A23H         LINE#         425
  C:4A25H         LINE#         426
  C:4A25H         LINE#         428
  C:4A2EH         LINE#         429
BL51 BANKED LINKER/LOCATER V6.22                                                      12/24/2012  13:21:13  PAGE 88


  C:4A34H         LINE#         430
  C:4A37H         LINE#         431
  C:4A3CH         LINE#         432
  -------         ENDPROC       XBEEATDATARECEIVE
  -------         PROC          XBEEATACK
  -------         DO            
  X:1443H         SYMBOL        XBeeTxHeader
  X:144AH         SYMBOL        i
  X:144BH         SYMBOL        checksum
  -------         ENDDO         
  C:6A92H         LINE#         441
  C:6A92H         LINE#         446
  C:6AB7H         LINE#         449
  C:6ABDH         LINE#         450
  C:6AC3H         LINE#         452
  C:6AC8H         LINE#         453
  C:6ACEH         LINE#         454
  C:6AD9H         LINE#         455
  C:6AE3H         LINE#         456
  C:6AEEH         LINE#         458
  C:6B11H         LINE#         459
  C:6B35H         LINE#         460
  C:6B44H         LINE#         462
  C:6B58H         LINE#         463
  C:6B6CH         LINE#         464
  C:6B80H         LINE#         467
  C:6B85H         LINE#         468
  -------         ENDPROC       XBEEATACK
  -------         PROC          XBEEATDATATRANSMIT
  -------         DO            
  X:144CH         SYMBOL        XBeeTxHeader
  X:1453H         SYMBOL        i
  X:1454H         SYMBOL        checksum
  -------         ENDDO         
  C:6562H         LINE#         477
  C:6562H         LINE#         482
  C:6568H         LINE#         484
  C:658DH         LINE#         486
  C:6593H         LINE#         487
  C:65A1H         LINE#         489
  C:65A6H         LINE#         490
  C:65ACH         LINE#         491
  C:65B7H         LINE#         492
  C:65C1H         LINE#         493
  C:65CCH         LINE#         495
  C:65EFH         LINE#         496
  C:6613H         LINE#         497
  C:6622H         LINE#         499
  C:6636H         LINE#         500
  C:6650H         LINE#         501
  C:6664H         LINE#         502
  C:6678H         LINE#         503
  -------         ENDPROC       XBEEATDATATRANSMIT
  -------         PROC          _XBEEREMOTEATCMDREQUEST
  X:1354H         SYMBOL        cmd_buffer
  X:1357H         SYMBOL        param_buffer
  -------         DO            
BL51 BANKED LINKER/LOCATER V6.22                                                      12/24/2012  13:21:13  PAGE 89


  X:135AH         SYMBOL        XBeeTxHeader
  X:1361H         SYMBOL        i
  X:1362H         SYMBOL        checksum
  X:1363H         SYMBOL        param_length
  -------         ENDDO         
  C:4F36H         LINE#         514
  C:4F3CH         LINE#         516
  C:4F41H         LINE#         518
  C:4F46H         LINE#         519
  C:4F54H         LINE#         521
  C:4F5AH         LINE#         523
  C:4F7FH         LINE#         525
  C:4F85H         LINE#         527
  C:4F8AH         LINE#         528
  C:4F90H         LINE#         529
  C:4F9BH         LINE#         530
  C:4FA5H         LINE#         531
  C:4FB0H         LINE#         533
  C:4FC2H         LINE#         534
  C:4FE8H         LINE#         535
  C:4FEDH         LINE#         537
  C:5015H         LINE#         538
  C:5033H         LINE#         539
  C:5039H         LINE#         540
  C:503BH         LINE#         542
  C:5056H         LINE#         543
  C:506EH         LINE#         545
  C:507CH         LINE#         547
  C:508BH         LINE#         549
  C:509FH         LINE#         550
  C:50B3H         LINE#         551
  C:50CFH         LINE#         552
  C:50E3H         LINE#         553
  C:50F7H         LINE#         555
  C:510BH         LINE#         556
  C:511FH         LINE#         557
  C:513BH         LINE#         558
  C:514FH         LINE#         559
  -------         ENDPROC       _XBEEREMOTEATCMDREQUEST
  -------         PROC          XBEEREMOTEATCMDRQHANDLER
  -------         DO            
  X:07AEH         SYMBOL        XBeeTxHeader
  X:07B5H         SYMBOL        i
  X:07B6H         SYMBOL        checksum
  X:07B7H         SYMBOL        count
  X:07B8H         SYMBOL        success
  X:07B9H         SYMBOL        read_buffer
  -------         ENDDO         
  C:4CD5H         LINE#         568
  C:4CD5H         LINE#         572
  C:4CDAH         LINE#         573
  C:4CDFH         LINE#         578
  C:4CEEH         LINE#         579
  C:4CF3H         LINE#         591
  C:4CF6H         LINE#         592
  C:4D03H         LINE#         593
  C:4D0EH         LINE#         595
BL51 BANKED LINKER/LOCATER V6.22                                                      12/24/2012  13:21:13  PAGE 90


  C:4D3AH         LINE#         596
  C:4D69H         LINE#         597
  C:4D6FH         LINE#         598
  C:4D71H         LINE#         599
  C:4D76H         LINE#         600
  C:4D7BH         LINE#         601
  C:4D8AH         LINE#         602
  C:4D8AH         LINE#         603
  C:4D8CH         LINE#         605
  C:4DB2H         LINE#         606
  C:4DB2H         LINE#         607
  C:4DB5H         LINE#         608
  C:4DB5H         LINE#         612
  C:4DDAH         LINE#         614
  C:4DE0H         LINE#         616
  C:4DE5H         LINE#         617
  C:4DEBH         LINE#         618
  C:4DF6H         LINE#         619
  C:4E00H         LINE#         620
  C:4E0BH         LINE#         622
  C:4E1DH         LINE#         623
  C:4E41H         LINE#         625
  C:4E4CH         LINE#         627
  C:4E6FH         LINE#         628
  C:4E93H         LINE#         630
  C:4EA2H         LINE#         632
  C:4EB0H         LINE#         634
  C:4EC4H         LINE#         635
  C:4ED8H         LINE#         636
  C:4EECH         LINE#         638
  C:4F08H         LINE#         640
  C:4F1CH         LINE#         641
  C:4F30H         LINE#         644
  C:4F35H         LINE#         651
  -------         ENDPROC       XBEEREMOTEATCMDRQHANDLER
  -------         PROC          _XBEEWRITESTRINGPAYLOAD
  X:1500H         SYMBOL        str
  -------         DO            
  X:1503H         SYMBOL        c
  -------         ENDDO         
  C:8943H         LINE#         661
  C:8949H         LINE#         662
  C:8949H         LINE#         663
  C:894EH         LINE#         665
  C:8961H         LINE#         666
  C:8969H         LINE#         667
  C:8981H         LINE#         668
  C:8994H         LINE#         669
  C:8996H         LINE#         670
  -------         ENDPROC       _XBEEWRITESTRINGPAYLOAD
  -------         ENDMOD        XBEE_ATCMD

  -------         MODULE        VELOX_DELAY
  C:0000H         SYMBOL        _ICE_DUMMY_
  C:8ACFH         PUBLIC        _Delay_blockMs
  -------         PROC          _DELAY_BLOCKMS
  X:1478H         SYMBOL        value
BL51 BANKED LINKER/LOCATER V6.22                                                      12/24/2012  13:21:13  PAGE 91


  -------         DO            
  X:147AH         SYMBOL        delay_task
  -------         ENDDO         
  C:8ACFH         LINE#         6
  C:8AD7H         LINE#         8
  C:8AEFH         LINE#         9
  C:8AF5H         LINE#         10
  C:8AF8H         LINE#         11
  C:8B01H         LINE#         12
  C:8B0DH         LINE#         13
  C:8B10H         LINE#         14
  C:8B17H         LINE#         15
  C:8B19H         LINE#         16
  -------         ENDPROC       _DELAY_BLOCKMS
  -------         ENDMOD        VELOX_DELAY

  -------         MODULE        VELOX_WATCHDOG
  C:0000H         SYMBOL        _ICE_DUMMY_
  C:9662H         PUBLIC        Watchdog_confirmAlive
  B:00A8H.7       PUBLIC        EA
  C:93ABH         PUBLIC        Watchdog_interruptCallback
  X:1504H         PUBLIC        watchdog_limit
  X:1506H         PUBLIC        watchdog_count
  C:94EFH         PUBLIC        _Watchdog_advancedInit
  -------         PROC          WATCHDOG_CONFIRMALIVE
  -------         DO            
  B:0022H.6       SYMBOL        EA_SAVE
  -------         ENDDO         
  C:9662H         LINE#         12
  C:9662H         LINE#         13
  C:9666H         LINE#         14
  C:9668H         LINE#         15
  C:966AH         LINE#         16
  C:9672H         LINE#         17
  C:9676H         LINE#         18
  -------         ENDPROC       WATCHDOG_CONFIRMALIVE
  -------         PROC          _WATCHDOG_ADVANCEDINIT
  X:155EH         SYMBOL        limit
  C:94EFH         LINE#         20
  C:94F7H         LINE#         21
  C:9507H         LINE#         22
  C:950AH         LINE#         23
  C:950DH         LINE#         24
  C:9510H         LINE#         25
  -------         ENDPROC       _WATCHDOG_ADVANCEDINIT
  -------         PROC          WATCHDOG_INTERRUPTCALLBACK
  C:93ABH         LINE#         28
  C:93ABH         LINE#         29
  C:93C3H         LINE#         30
  C:93C6H         LINE#         31
  C:93D0H         LINE#         32
  C:93D0H         LINE#         33
  -------         ENDPROC       WATCHDOG_INTERRUPTCALLBACK
  -------         ENDMOD        VELOX_WATCHDOG

  -------         MODULE        PWRS_DEBUG
  C:0000H         SYMBOL        _ICE_DUMMY_
BL51 BANKED LINKER/LOCATER V6.22                                                      12/24/2012  13:21:13  PAGE 92


  D:00C8H         PUBLIC        P4
  D:00D8H         PUBLIC        P5
  B:00A8H.7       PUBLIC        EA
  D:00E8H         PUBLIC        P6
  D:00F8H         PUBLIC        P7
  B:00D8H.0       PUBLIC        BATT_CTRL
  C:221EH         PUBLIC        Debug_print
  -------         PROC          DEBUG_PRINT
  -------         DO            
  X:050AH         SYMBOL        i
  X:050CH         SYMBOL        j
  X:050EH         SYMBOL        tx_avail
  X:0510H         SYMBOL        ptr
  X:0512H         SYMBOL        buffer
  B:0022H.7       SYMBOL        EA_SAVE
  -------         ENDDO         
  C:221EH         LINE#         21
  C:221EH         LINE#         28
  C:2237H         LINE#         29
  C:2237H         LINE#         31
  C:2286H         LINE#         33
  C:22BFH         LINE#         34
  C:22F8H         LINE#         36
  C:2331H         LINE#         37
  C:2382H         LINE#         38
  C:23C1H         LINE#         39
  C:242AH         LINE#         40
  C:244FH         LINE#         41
  C:246CH         LINE#         43
  C:2495H         LINE#         44
  C:24BEH         LINE#         45
  C:24E7H         LINE#         46
  C:2510H         LINE#         47
  C:2539H         LINE#         48
  C:2562H         LINE#         49
  C:257FH         LINE#         50
  C:259CH         LINE#         52
  C:25C5H         LINE#         53
  C:25E6H         LINE#         54
  C:2603H         LINE#         55
  C:2636H         LINE#         56
  C:2679H         LINE#         57
  C:267AH         LINE#         58
  C:267AH         LINE#         59
  C:267AH         LINE#         60
  C:2684H         LINE#         61
  C:2688H         LINE#         62
  C:268AH         LINE#         63
  C:268CH         LINE#         64
  C:26B9H         LINE#         65
  C:26C9H         LINE#         66
  C:26CDH         LINE#         67
  C:26E3H         LINE#         68
  C:26F4H         LINE#         70
  C:26F5H         LINE#         71
  C:26F5H         LINE#         72
  C:26FEH         LINE#         73
BL51 BANKED LINKER/LOCATER V6.22                                                      12/24/2012  13:21:13  PAGE 93


  C:2707H         LINE#         74
  C:273AH         LINE#         78
  C:275BH         LINE#         79
  C:2764H         LINE#         80
  C:2782H         LINE#         81
  C:27ABH         LINE#         82
  C:27C6H         LINE#         83
  C:27F7H         LINE#         84
  C:2803H         LINE#         85
  C:281FH         LINE#         86
  C:2850H         LINE#         87
  C:285CH         LINE#         88
  C:2869H         LINE#         89
  C:2884H         LINE#         90
  C:288DH         LINE#         91
  C:2899H         LINE#         92
  C:28A2H         LINE#         93
  C:28BEH         LINE#         94
  C:28F8H         LINE#         95
  C:2913H         LINE#         96
  C:2973H         LINE#         97
  C:297FH         LINE#         98
  C:299BH         LINE#         99
  C:29CCH         LINE#         100
  C:29D8H         LINE#         101
  C:29E6H         LINE#         102
  C:29E6H         LINE#         103
  C:29E6H         LINE#         105
  -------         ENDPROC       DEBUG_PRINT
  -------         ENDMOD        PWRS_DEBUG

  -------         MODULE        C8051_MCUTEMP
  C:0000H         SYMBOL        _ICE_DUMMY_
  C:94CCH         PUBLIC        _Mcutemp_mVtoCelsius
  C:9750H         PUBLIC        Mcutemp_inCelsius
  -------         PROC          _MCUTEMP_MVTOCELSIUS
  X:1508H         SYMBOL        p_f_mV
  C:94CCH         LINE#         6
  C:94D2H         LINE#         7
  C:94EEH         LINE#         8
  -------         ENDPROC       _MCUTEMP_MVTOCELSIUS
  -------         PROC          MCUTEMP_INCELSIUS
  C:9750H         LINE#         10
  C:9750H         LINE#         11
  C:975AH         LINE#         12
  -------         ENDPROC       MCUTEMP_INCELSIUS
  -------         ENDMOD        C8051_MCUTEMP

  -------         MODULE        PWRS_TIMER
  C:0000H         SYMBOL        _ICE_DUMMY_
  D:00E7H         PUBLIC        EIE2
  D:0084H         PUBLIC        SFRPAGE
  D:00CCH         PUBLIC        TMR2
  D:00CCH         PUBLIC        TMR3
  D:00CCH         PUBLIC        TMR4
  D:00C9H         PUBLIC        TMR2CF
  D:00C9H         PUBLIC        TMR3CF
BL51 BANKED LINKER/LOCATER V6.22                                                      12/24/2012  13:21:13  PAGE 94


  D:00C9H         PUBLIC        TMR4CF
  D:0089H         PUBLIC        TMOD
  D:00C8H         PUBLIC        TMR2CN
  D:00C8H         PUBLIC        TMR3CN
  D:00C8H         PUBLIC        TMR4CN
  C:9591H         PUBLIC        Timer0_setReload
  B:00A8H.1       PUBLIC        ET0
  B:00A8H.3       PUBLIC        ET1
  C:90EEH         PUBLIC        _Timer0_init
  B:00A8H.5       PUBLIC        ET2
  C:7BF7H         PUBLIC        _Timer1_init
  D:008CH         PUBLIC        TH0
  C:8E80H         PUBLIC        _Timer2_init
  D:008DH         PUBLIC        TH1
  C:8B1AH         PUBLIC        _Timer3_init
  C:8129H         PUBLIC        _Timer4_init
  D:008AH         PUBLIC        TL0
  B:0088H.4       PUBLIC        TR0
  B:0088H.6       PUBLIC        TR1
  B:00C8H.2       PUBLIC        TR2
  D:00CAH         PUBLIC        RCAP2
  B:00C8H.2       PUBLIC        TR3
  D:00CAH         PUBLIC        RCAP3
  B:00C8H.2       PUBLIC        TR4
  D:00CAH         PUBLIC        RCAP4
  X:1562H         PUBLIC        timer0_reload_hi
  X:1563H         PUBLIC        timer0_reload_lo
  D:008EH         PUBLIC        CKCON
  -------         PROC          TIMER0_SETRELOAD
  -------         DO            
  X:1576H         SYMBOL        SFRPAGE_SAVE
  -------         ENDDO         
  C:9591H         LINE#         19
  C:9591H         LINE#         20
  C:9597H         LINE#         21
  C:959AH         LINE#         23
  C:95A1H         LINE#         24
  C:95A8H         LINE#         25
  C:95AFH         LINE#         26
  -------         ENDPROC       TIMER0_SETRELOAD
  -------         PROC          _TIMER0_INIT
  X:1560H         SYMBOL        p_c_CKCON
  -------         DO            
  X:1561H         SYMBOL        SFRPAGE_SAVE
  -------         ENDDO         
  C:90EEH         LINE#         42
  C:90F3H         LINE#         44
  C:90F9H         LINE#         46
  C:90FFH         LINE#         47
  C:9105H         LINE#         50
  C:9108H         LINE#         53
  C:910BH         LINE#         89
  C:910EH         LINE#         90
  C:9111H         LINE#         112
  C:9118H         LINE#         115
  C:911AH         LINE#         162
  C:911CH         LINE#         165
BL51 BANKED LINKER/LOCATER V6.22                                                      12/24/2012  13:21:13  PAGE 95


  C:9123H         LINE#         166
  -------         ENDPROC       _TIMER0_INIT
  -------         PROC          _TIMER1_INIT
  X:147FH         SYMBOL        sys_clk
  X:1483H         SYMBOL        prescaler
  -------         DO            
  X:1484H         SYMBOL        SFRPAGE_SAVE
  X:1485H         SYMBOL        timer1_reload_hi
  -------         ENDDO         
  C:7BF7H         LINE#         179
  C:7BFDH         LINE#         181
  C:7C03H         LINE#         184
  C:7C06H         LINE#         185
  C:7C5DH         LINE#         186
  C:7C67H         LINE#         189
  C:7C6AH         LINE#         190
  C:7C6DH         LINE#         197
  C:7C6FH         LINE#         201
  C:7C71H         LINE#         204
  C:7C78H         LINE#         205
  -------         ENDPROC       _TIMER1_INIT
  -------         PROC          _TIMER2_INIT
  X:14D2H         SYMBOL        sys_clk
  -------         DO            
  X:14D6H         SYMBOL        SFRPAGE_SAVE
  -------         ENDDO         
  C:8E80H         LINE#         217
  C:8E86H         LINE#         219
  C:8E8CH         LINE#         220
  C:8E8FH         LINE#         221
  C:8E92H         LINE#         225
  C:8E95H         LINE#         228
  C:8EADH         LINE#         229
  C:8EB3H         LINE#         230
  C:8EB5H         LINE#         231
  C:8EB7H         LINE#         232
  C:8EBEH         LINE#         234
  -------         ENDPROC       _TIMER2_INIT
  -------         PROC          _TIMER3_INIT
  X:14D7H         SYMBOL        sys_clk
  -------         DO            
  X:14DBH         SYMBOL        SFRPAGE_SAVE
  -------         ENDDO         
  C:8B1AH         LINE#         249
  C:8B20H         LINE#         251
  C:8B26H         LINE#         252
  C:8B29H         LINE#         253
  C:8B2CH         LINE#         256
  C:8B2FH         LINE#         259
  C:8B52H         LINE#         260
  C:8B58H         LINE#         261
  C:8B5BH         LINE#         263
  C:8B5DH         LINE#         264
  C:8B64H         LINE#         265
  -------         ENDPROC       _TIMER3_INIT
  -------         PROC          _TIMER4_INIT
  X:1486H         SYMBOL        sys_clk
BL51 BANKED LINKER/LOCATER V6.22                                                      12/24/2012  13:21:13  PAGE 96


  -------         DO            
  X:148AH         SYMBOL        SFRPAGE_SAVE
  X:148BH         SYMBOL        timer4_reload
  -------         ENDDO         
  C:8129H         LINE#         277
  C:812FH         LINE#         279
  C:8135H         LINE#         283
  C:8138H         LINE#         286
  C:813BH         LINE#         289
  C:813EH         LINE#         290
  C:8174H         LINE#         291
  C:8187H         LINE#         293
  C:818DH         LINE#         295
  C:8190H         LINE#         297
  C:8192H         LINE#         300
  C:8199H         LINE#         301
  -------         ENDPROC       _TIMER4_INIT
  -------         ENDMOD        PWRS_TIMER

  -------         MODULE        ?C?FPADD
  C:00ADH         PUBLIC        ?C?FPADD
  C:00A9H         PUBLIC        ?C?FPSUB
  -------         ENDMOD        ?C?FPADD

  -------         MODULE        ?C?FPMUL
  C:019EH         PUBLIC        ?C?FPMUL
  -------         ENDMOD        ?C?FPMUL

  -------         MODULE        ?C?FPDIV
  C:02A7H         PUBLIC        ?C?FPDIV
  -------         ENDMOD        ?C?FPDIV

  -------         MODULE        ?C?FPCMP
  C:0346H         PUBLIC        ?C?FPCMP
  C:0344H         PUBLIC        ?C?FPCMP3
  -------         ENDMOD        ?C?FPCMP

  -------         MODULE        ?C?FCAST
  C:03C7H         PUBLIC        ?C?FCASTC
  C:03C2H         PUBLIC        ?C?FCASTI
  C:03BDH         PUBLIC        ?C?FCASTL
  -------         ENDMOD        ?C?FCAST

  -------         MODULE        ?C?CASTF
  C:03FBH         PUBLIC        ?C?CASTF
  -------         ENDMOD        ?C?CASTF

  -------         MODULE        PRINTF
  X:12A0H         PUBLIC        ?_PRINTF?BYTE
  X:12A0H         PUBLIC        ?_SPRINTF?BYTE
  C:3D6DH         PUBLIC        _PRINTF
  C:3D67H         PUBLIC        _SPRINTF
  -------         ENDMOD        PRINTF

  -------         MODULE        ?C?FPROUND
  C:047CH         PUBLIC        ?C?FPROUND
  -------         ENDMOD        ?C?FPROUND
BL51 BANKED LINKER/LOCATER V6.22                                                      12/24/2012  13:21:13  PAGE 97



  -------         MODULE        ?C?FPCONVERT
  C:04B9H         PUBLIC        ?C?FPCONVERT
  -------         ENDMOD        ?C?FPCONVERT

  -------         MODULE        ?C?FTNPWR
  C:05EEH         PUBLIC        ?C?FTNPWR
  -------         ENDMOD        ?C?FTNPWR

  -------         MODULE        ?C?COPY
  C:06FEH         PUBLIC        ?C?COPY
  -------         ENDMOD        ?C?COPY

  -------         MODULE        ?C?CLDPTR
  C:0724H         PUBLIC        ?C?CLDPTR
  -------         ENDMOD        ?C?CLDPTR

  -------         MODULE        ?C?CLDOPTR
  C:073DH         PUBLIC        ?C?CLDOPTR
  -------         ENDMOD        ?C?CLDOPTR

  -------         MODULE        ?C?CSTPTR
  C:076AH         PUBLIC        ?C?CSTPTR
  -------         ENDMOD        ?C?CSTPTR

  -------         MODULE        ?C?CSTOPTR
  C:077CH         PUBLIC        ?C?CSTOPTR
  -------         ENDMOD        ?C?CSTOPTR

  -------         MODULE        ?C?IMUL
  C:079EH         PUBLIC        ?C?IMUL
  -------         ENDMOD        ?C?IMUL

  -------         MODULE        ?C?UIDIV
  C:07B0H         PUBLIC        ?C?UIDIV
  -------         ENDMOD        ?C?UIDIV

  -------         MODULE        ?C?SIDIV
  C:0805H         PUBLIC        ?C?SIDIV
  -------         ENDMOD        ?C?SIDIV

  -------         MODULE        ?C?IILDX
  C:083BH         PUBLIC        ?C?IILDX
  -------         ENDMOD        ?C?IILDX

  -------         MODULE        ?C?ILDPTR
  C:0851H         PUBLIC        ?C?ILDPTR
  -------         ENDMOD        ?C?ILDPTR

  -------         MODULE        ?C?ILDOPTR
  C:087CH         PUBLIC        ?C?ILDOPTR
  -------         ENDMOD        ?C?ILDOPTR

  -------         MODULE        ?C?IILDPTR
  C:08B4H         PUBLIC        ?C?IILDPTR
  -------         ENDMOD        ?C?IILDPTR

BL51 BANKED LINKER/LOCATER V6.22                                                      12/24/2012  13:21:13  PAGE 98


  -------         MODULE        ?C?ISTPTR
  C:08ECH         PUBLIC        ?C?ISTPTR
  -------         ENDMOD        ?C?ISTPTR

  -------         MODULE        ?C?ISTOPTR
  C:090BH         PUBLIC        ?C?ISTOPTR
  -------         ENDMOD        ?C?ISTOPTR

  -------         MODULE        ?C?LADD
  C:0938H         PUBLIC        ?C?LADD
  -------         ENDMOD        ?C?LADD

  -------         MODULE        ?C?LSUB
  C:0945H         PUBLIC        ?C?LSUB
  -------         ENDMOD        ?C?LSUB

  -------         MODULE        ?C?LMUL
  C:0953H         PUBLIC        ?C?LMUL
  -------         ENDMOD        ?C?LMUL

  -------         MODULE        ?C?ULDIV
  C:09DEH         PUBLIC        ?C?ULDIV
  -------         ENDMOD        ?C?ULDIV

  -------         MODULE        ?C?SLDIV
  C:8C7CH         PUBLIC        ?C?SLDIV
  -------         ENDMOD        ?C?SLDIV

  -------         MODULE        ?C?LNEG
  C:0A70H         PUBLIC        ?C?LNEG
  -------         ENDMOD        ?C?LNEG

  -------         MODULE        ?C?SLCMP
  C:0A7EH         PUBLIC        ?C?SLCMP
  -------         ENDMOD        ?C?SLCMP

  -------         MODULE        ?C?ULCMP
  C:0A94H         PUBLIC        ?C?ULCMP
  -------         ENDMOD        ?C?ULCMP

  -------         MODULE        ?C?SLSHR
  C:0AA5H         PUBLIC        ?C?SLSHR
  -------         ENDMOD        ?C?SLSHR

  -------         MODULE        ?C?LSHL
  C:0AB9H         PUBLIC        ?C?LSHL
  -------         ENDMOD        ?C?LSHL

  -------         MODULE        ?C?LSTPTR
  C:0ACCH         PUBLIC        ?C?LSTPTR
  -------         ENDMOD        ?C?LSTPTR

  -------         MODULE        ?C?LLDXDATA
  C:0AE6H         PUBLIC        ?C?LLDXDATA
  -------         ENDMOD        ?C?LLDXDATA

  -------         MODULE        ?C?LLDXDATA0
BL51 BANKED LINKER/LOCATER V6.22                                                      12/24/2012  13:21:13  PAGE 99


  C:0AF2H         PUBLIC        ?C?LLDXDATA0
  -------         ENDMOD        ?C?LLDXDATA0

  -------         MODULE        ?C?LSTXDATA
  C:0AFEH         PUBLIC        ?C?LSTXDATA
  -------         ENDMOD        ?C?LSTXDATA

  -------         MODULE        ?C?LSTKXDATA
  C:0B0AH         PUBLIC        ?C?LSTKXDATA
  -------         ENDMOD        ?C?LSTKXDATA

  -------         MODULE        ?C?LSTKPTR
  C:0B3BH         PUBLIC        ?C?LSTKPTR
  -------         ENDMOD        ?C?LSTKPTR

  -------         MODULE        ?C?OFFXADD
  C:0B55H         PUBLIC        ?C?OFFXADD
  -------         ENDMOD        ?C?OFFXADD

  -------         MODULE        ?C?PLDXDATA
  C:0B61H         PUBLIC        ?C?PLDXDATA
  -------         ENDMOD        ?C?PLDXDATA

  -------         MODULE        ?C?PLDIXDATA
  C:0B6AH         PUBLIC        ?C?PLDIXDATA
  -------         ENDMOD        ?C?PLDIXDATA

  -------         MODULE        ?C?PSTXDATA
  C:0B81H         PUBLIC        ?C?PSTXDATA
  -------         ENDMOD        ?C?PSTXDATA

  -------         MODULE        ?C?CCASE
  C:0B8AH         PUBLIC        ?C?CCASE
  -------         ENDMOD        ?C?CCASE

  -------         MODULE        ?C?ICALL
  C:0BB0H         PUBLIC        ?C?ICALL
  C:0BB4H         PUBLIC        ?C?ICALL2
  -------         ENDMOD        ?C?ICALL

  -------         MODULE        ?C?STRCMP
  C:0D34H         PUBLIC        ?C?STRCMP
  -------         ENDMOD        ?C?STRCMP

  -------         MODULE        STRLEN
  C:9677H         PUBLIC        _STRLEN
  -------         ENDMOD        STRLEN

  -------         MODULE        ?C?MEMSET
  C:0D51H         PUBLIC        ?C?MEMSET
  -------         ENDMOD        ?C?MEMSET

  -------         MODULE        ?C?LSTIDATA
  C:0D7DH         PUBLIC        ?C?LSTIDATA
  -------         ENDMOD        ?C?LSTIDATA

  -------         MODULE        ?C?LSTPDATA
BL51 BANKED LINKER/LOCATER V6.22                                                      12/24/2012  13:21:13  PAGE 100


  C:0D89H         PUBLIC        ?C?LSTPDATA
  -------         ENDMOD        ?C?LSTPDATA

  -------         MODULE        ?C?LSTKIDATA
  C:0D95H         PUBLIC        ?C?LSTKIDATA
  -------         ENDMOD        ?C?LSTKIDATA

  -------         MODULE        ?C?LSTKPDATA
  C:0DAEH         PUBLIC        ?C?LSTKPDATA
  -------         ENDMOD        ?C?LSTKPDATA

*** WARNING L16: UNCALLED SEGMENT, IGNORED FOR OVERLAY PROCESS
    SEGMENT: ?PR?SMBUS_TEARDOWNRX?C8051_SMBUS

*** WARNING L16: UNCALLED SEGMENT, IGNORED FOR OVERLAY PROCESS
    SEGMENT: ?PR?SPI0_FAILURECOUNT?C8051_SPI0

*** WARNING L16: UNCALLED SEGMENT, IGNORED FOR OVERLAY PROCESS
    SEGMENT: ?PR?_SPI0_GETPUTCHARS?C8051_SPI0

*** WARNING L16: UNCALLED SEGMENT, IGNORED FOR OVERLAY PROCESS
    SEGMENT: ?PR?BATTERY_CHARGINGCONTROL?PWRS_BATTERY

*** WARNING L16: UNCALLED SEGMENT, IGNORED FOR OVERLAY PROCESS
    SEGMENT: ?PR?_BATTERY_SETPWRSHT?PWRS_BATTERY

*** WARNING L16: UNCALLED SEGMENT, IGNORED FOR OVERLAY PROCESS
    SEGMENT: ?PR?BATTERY_UPDATEPARAMETERS?PWRS_BATTERY

*** WARNING L16: UNCALLED SEGMENT, IGNORED FOR OVERLAY PROCESS
    SEGMENT: ?PR?CALIBRATION_HANDLER?PWRS_CALIBRATION

*** WARNING L16: UNCALLED SEGMENT, IGNORED FOR OVERLAY PROCESS
    SEGMENT: ?PR?FAULT_HANDLING?PWRS_FAULT_HANDLING

*** WARNING L16: UNCALLED SEGMENT, IGNORED FOR OVERLAY PROCESS
    SEGMENT: ?PR?_MPPT_TRACKING?PWRS_MPPT

*** WARNING L16: UNCALLED SEGMENT, IGNORED FOR OVERLAY PROCESS
    SEGMENT: ?PR?HOUSEKEEPING_GETALL?PWRS_HOUSEKEEPING

*** WARNING L16: UNCALLED SEGMENT, IGNORED FOR OVERLAY PROCESS
    SEGMENT: ?PR?HOUSEKEEPING_GETINTERNAL?PWRS_HOUSEKEEPING

*** WARNING L16: UNCALLED SEGMENT, IGNORED FOR OVERLAY PROCESS
    SEGMENT: ?PR?THERMAL_UPDATETKSTATUS?PWRS_THERMAL

*** WARNING L16: UNCALLED SEGMENT, IGNORED FOR OVERLAY PROCESS
    SEGMENT: ?PR?RESET_OBDH?PWRS_RESET

*** WARNING L16: UNCALLED SEGMENT, IGNORED FOR OVERLAY PROCESS
    SEGMENT: ?PR?RESET_PWRS?PWRS_RESET

*** WARNING L16: UNCALLED SEGMENT, IGNORED FOR OVERLAY PROCESS
    SEGMENT: ?PR?CAMERA_ACQUISITIONHANDLER?PWRS_CAMERA

*** WARNING L16: UNCALLED SEGMENT, IGNORED FOR OVERLAY PROCESS
BL51 BANKED LINKER/LOCATER V6.22                                                      12/24/2012  13:21:13  PAGE 101


    SEGMENT: ?PR?CAMERA_GETFRAMEDATA?PWRS_CAMERA

*** WARNING L16: UNCALLED SEGMENT, IGNORED FOR OVERLAY PROCESS
    SEGMENT: ?PR?CAMERA_SMBUSTX?PWRS_CAMERA

*** WARNING L16: UNCALLED SEGMENT, IGNORED FOR OVERLAY PROCESS
    SEGMENT: ?PR?_CAMERA_UPLINKMCC?PWRS_CAMERA

*** WARNING L16: UNCALLED SEGMENT, IGNORED FOR OVERLAY PROCESS
    SEGMENT: ?PR?I2C_HANDLER?PWRS_I2C

*** WARNING L16: UNCALLED SEGMENT, IGNORED FOR OVERLAY PROCESS
    SEGMENT: ?PR?XBEECOORDHANDLER?XBEE

*** WARNING L16: UNCALLED SEGMENT, IGNORED FOR OVERLAY PROCESS
    SEGMENT: ?PR?XBEEINIT?XBEE

*** WARNING L16: UNCALLED SEGMENT, IGNORED FOR OVERLAY PROCESS
    SEGMENT: ?PR?_XBEEREMOTEATCMDREQUEST?XBEE_ATCMD

*** WARNING L16: UNCALLED SEGMENT, IGNORED FOR OVERLAY PROCESS
    SEGMENT: ?PR?DEBUG_PRINT?PWRS_DEBUG

Program Size: data=23.0 xdata=5495 code=38832
LINK/LOCATE RUN COMPLETE.  23 WARNING(S),  0 ERROR(S)
